---
triple:          'arm64-apple-darwin'
binary-path:     '/Users/tonisimoska/MQTTPlus/bin/Debug-macosx-universal/MQTTPlusBroker/MQTTPlusBroker'
relocations:
  - { offsetInCU: 0x3836, offset: 0x3836, size: 0x8, addend: 0x0, symName: __ZNSt3__117__cxx_atomic_loadB8ue170006IjEET_PKNS_22__cxx_atomic_base_implIS1_EENS_12memory_orderE, symObjAddr: 0x4D4, symBinAddr: 0x100002E68, symSize: 0x80 }
  - { offsetInCU: 0x6567, offset: 0x6567, size: 0x8, addend: 0x0, symName: '__ZNSt3__110__function10__not_nullB8ue170006IZN8MQTTPlus6Client11ProcessDataEPciE3$_0EEbRKT_', symObjAddr: 0x718, symBinAddr: 0x1000030AC, symSize: 0x18 }
  - { offsetInCU: 0x9E98, offset: 0x9E98, size: 0x8, addend: 0x0, symName: __ZNSt3__124__put_character_sequenceB8ue170006IcNS_11char_traitsIcEEEERNS_13basic_ostreamIT_T0_EES7_PKS4_m, symObjAddr: 0x2748, symBinAddr: 0x1000050DC, symSize: 0x1EC }
  - { offsetInCU: 0xCB6E, offset: 0xCB6E, size: 0x8, addend: 0x0, symName: __ZNSt3__122__cxx_atomic_fetch_subB8ue170006IjEET_PNS_22__cxx_atomic_base_implIS1_EES1_NS_12memory_orderE, symObjAddr: 0x3BC, symBinAddr: 0x100002D50, symSize: 0xD8 }
  - { offsetInCU: 0xCC73, offset: 0xCC73, size: 0x8, addend: 0x0, symName: '__ZNSt3__116forward_as_tupleB8ue170006IJZN8MQTTPlus6Client11ProcessDataEPciE3$_0EEENS_5tupleIJDpOT_EEES8_', symObjAddr: 0xC98, symBinAddr: 0x10000362C, symSize: 0x2C }
  - { offsetInCU: 0xCCAC, offset: 0xCCAC, size: 0x8, addend: 0x0, symName: '__ZNSt3__116forward_as_tupleB8ue170006IJNS_9allocatorIZN8MQTTPlus6Client11ProcessDataEPciE3$_0EEEEENS_5tupleIJDpOT_EEESA_', symObjAddr: 0xCC4, symBinAddr: 0x100003658, symSize: 0x2C }
  - { offsetInCU: 0xCD29, offset: 0xCD29, size: 0x8, addend: 0x0, symName: '__ZNSt3__13getB8ue170006ILm0EJOZN8MQTTPlus6Client11ProcessDataEPciE3$_0EEERNS_13tuple_elementIXT_ENS_5tupleIJDpT0_EEEE4typeERSA_', symObjAddr: 0xFDC, symBinAddr: 0x100003970, symSize: 0x24 }
  - { offsetInCU: 0xCD6B, offset: 0xCD6B, size: 0x8, addend: 0x0, symName: '__ZNSt3__13getB8ue170006ILm0EJONS_9allocatorIZN8MQTTPlus6Client11ProcessDataEPciE3$_0EEEEERNS_13tuple_elementIXT_ENS_5tupleIJDpT0_EEEE4typeERSC_', symObjAddr: 0x1018, symBinAddr: 0x1000039AC, symSize: 0x24 }
  - { offsetInCU: 0xD292, offset: 0xD292, size: 0x8, addend: 0x0, symName: __ZNSt3__117__libcpp_allocateB8ue170006Emm, symObjAddr: 0x1300, symBinAddr: 0x100003C94, symSize: 0x60 }
  - { offsetInCU: 0xD4D8, offset: 0xD4D8, size: 0x8, addend: 0x0, symName: __ZNSt3__124__is_overaligned_for_newB8ue170006Em, symObjAddr: 0x137C, symBinAddr: 0x100003D10, symSize: 0x20 }
  - { offsetInCU: 0xD506, offset: 0xD506, size: 0x8, addend: 0x0, symName: __ZNSt3__121__libcpp_operator_newB8ue170006IJmSt11align_val_tEEEPvDpT_, symObjAddr: 0x139C, symBinAddr: 0x100003D30, symSize: 0x2C }
  - { offsetInCU: 0xD553, offset: 0xD553, size: 0x8, addend: 0x0, symName: __ZNSt3__121__libcpp_operator_newB8ue170006IJmEEEPvDpT_, symObjAddr: 0x13C8, symBinAddr: 0x100003D5C, symSize: 0x24 }
  - { offsetInCU: 0xD58C, offset: 0xD58C, size: 0x8, addend: 0x0, symName: '__ZNSt3__116forward_as_tupleB8ue170006IJRKZN8MQTTPlus6Client11ProcessDataEPciE3$_0EEENS_5tupleIJDpOT_EEESA_', symObjAddr: 0x16BC, symBinAddr: 0x100004050, symSize: 0x2C }
  - { offsetInCU: 0xD5DA, offset: 0xD5DA, size: 0x8, addend: 0x0, symName: '__ZNSt3__13getB8ue170006ILm0EJRKZN8MQTTPlus6Client11ProcessDataEPciE3$_0EEERNS_13tuple_elementIXT_ENS_5tupleIJDpT0_EEEE4typeERSB_', symObjAddr: 0x18AC, symBinAddr: 0x100004240, symSize: 0x24 }
  - { offsetInCU: 0xD61D, offset: 0xD61D, size: 0x8, addend: 0x0, symName: __ZNSt3__119__libcpp_deallocateB8ue170006EPvmm, symObjAddr: 0x1AAC, symBinAddr: 0x100004440, symSize: 0x60 }
  - { offsetInCU: 0xD683, offset: 0xD683, size: 0x8, addend: 0x0, symName: __ZNSt3__127__do_deallocate_handle_sizeB8ue170006IJSt11align_val_tEEEvPvmDpT_, symObjAddr: 0x1B0C, symBinAddr: 0x1000044A0, symSize: 0x30 }
  - { offsetInCU: 0xD6D7, offset: 0xD6D7, size: 0x8, addend: 0x0, symName: __ZNSt3__127__do_deallocate_handle_sizeB8ue170006IJEEEvPvmDpT_, symObjAddr: 0x1B3C, symBinAddr: 0x1000044D0, symSize: 0x28 }
  - { offsetInCU: 0xD716, offset: 0xD716, size: 0x8, addend: 0x0, symName: __ZNSt3__124__libcpp_operator_deleteB8ue170006IJPvSt11align_val_tEEEvDpT_, symObjAddr: 0x1B64, symBinAddr: 0x1000044F8, symSize: 0x2C }
  - { offsetInCU: 0xD760, offset: 0xD760, size: 0x8, addend: 0x0, symName: __ZNSt3__124__libcpp_operator_deleteB8ue170006IJPvEEEvDpT_, symObjAddr: 0x1B90, symBinAddr: 0x100004524, symSize: 0x24 }
  - { offsetInCU: 0xD795, offset: 0xD795, size: 0x8, addend: 0x0, symName: '__ZNSt3__116forward_as_tupleB8ue170006IJRKNS_9allocatorIZN8MQTTPlus6Client11ProcessDataEPciE3$_0EEEEENS_5tupleIJDpOT_EEESC_', symObjAddr: 0x1D10, symBinAddr: 0x1000046A4, symSize: 0x2C }
  - { offsetInCU: 0xD7E3, offset: 0xD7E3, size: 0x8, addend: 0x0, symName: '__ZNSt3__13getB8ue170006ILm0EJRKNS_9allocatorIZN8MQTTPlus6Client11ProcessDataEPciE3$_0EEEEERNS_13tuple_elementIXT_ENS_5tupleIJDpT0_EEEE4typeERSD_', symObjAddr: 0x1EF4, symBinAddr: 0x100004888, symSize: 0x24 }
  - { offsetInCU: 0xD863, offset: 0xD863, size: 0x8, addend: 0x0, symName: '__ZNSt3__18__invokeB8ue170006IRZN8MQTTPlus6Client11ProcessDataEPciE3$_0JR3RefIN4MQTT7MessageEEEEEDTclclsr3stdE7declvalIT_EEspclsr3stdE7declvalIT0_EEEEOSB_DpOSC_', symObjAddr: 0x1FC0, symBinAddr: 0x100004954, symSize: 0x70 }
  - { offsetInCU: 0xD8B0, offset: 0xD8B0, size: 0x8, addend: 0x0, symName: __ZNSt3__1lsB8ue170006IcNS_11char_traitsIcEENS_9allocatorIcEEEERNS_13basic_ostreamIT_T0_EES9_RKNS_12basic_stringIS6_S7_T1_EE, symObjAddr: 0x23FC, symBinAddr: 0x100004D90, symSize: 0x4C }
  - { offsetInCU: 0xD908, offset: 0xD908, size: 0x8, addend: 0x0, symName: __ZNSt3__14endlB8ue170006IcNS_11char_traitsIcEEEERNS_13basic_ostreamIT_T0_EES7_, symObjAddr: 0x248C, symBinAddr: 0x100004E20, symSize: 0x58 }
  - { offsetInCU: 0xD948, offset: 0xD948, size: 0x8, addend: 0x0, symName: __ZNSt3__116__pad_and_outputB8ue170006IcNS_11char_traitsIcEEEENS_19ostreambuf_iteratorIT_T0_EES6_PKS4_S8_S8_RNS_8ios_baseES4_, symObjAddr: 0x29CC, symBinAddr: 0x100005360, symSize: 0x240 }
  - { offsetInCU: 0xDA18, offset: 0xDA18, size: 0x8, addend: 0x0, symName: __ZNSt3__112__to_addressB8ue170006IcEEPT_S2_, symObjAddr: 0x2F34, symBinAddr: 0x1000058C8, symSize: 0x14 }
  - { offsetInCU: 0xDA4E, offset: 0xDA4E, size: 0x8, addend: 0x0, symName: __ZNSt3__19use_facetB8ue170006INS_5ctypeIcEEEERKT_RKNS_6localeE, symObjAddr: 0x31EC, symBinAddr: 0x100005B80, symSize: 0x2C }
  - { offsetInCU: 0xDF1C, offset: 0xDF1C, size: 0x8, addend: 0x0, symName: __ZNSt3__112__to_addressB8ue170006IKcEEPT_S3_, symObjAddr: 0x3284, symBinAddr: 0x100005C18, symSize: 0x14 }
  - { offsetInCU: 0xDF84, offset: 0xDF84, size: 0x8, addend: 0x0, symName: __ZNSt3__122__cxx_atomic_fetch_addB8ue170006IjEET_PNS_22__cxx_atomic_base_implIS1_EES1_NS_12memory_orderE, symObjAddr: 0x34F8, symBinAddr: 0x100005E8C, symSize: 0xC4 }
  - { offsetInCU: 0xDFDA, offset: 0xDFDA, size: 0x8, addend: 0x0, symName: __ZNSt3__118__cxx_atomic_storeB8ue170006IjEEvPNS_22__cxx_atomic_base_implIT_EES2_NS_12memory_orderE, symObjAddr: 0x3C98, symBinAddr: 0x10000662C, symSize: 0x84 }
  - { offsetInCU: 0xE02C, offset: 0xE02C, size: 0x8, addend: 0x0, symName: __ZNSt3__122__make_exception_guardB8ue170006INS_6vectorIhNS_9allocatorIhEEE16__destroy_vectorEEENS_28__exception_guard_exceptionsIT_EES7_, symObjAddr: 0x3F20, symBinAddr: 0x1000068B4, symSize: 0x40 }
  - { offsetInCU: 0xE062, offset: 0xE062, size: 0x8, addend: 0x0, symName: __ZNSt3__119__allocate_at_leastB8ue170006INS_9allocatorIhEEEENS_19__allocation_resultINS_16allocator_traitsIT_E7pointerEEERS5_m, symObjAddr: 0x4320, symBinAddr: 0x100006CB4, symSize: 0x40 }
  - { offsetInCU: 0xE0A6, offset: 0xE0A6, size: 0x8, addend: 0x0, symName: __ZNSt3__13minB8ue170006ImEERKT_S3_S3_, symObjAddr: 0x445C, symBinAddr: 0x100006DF0, symSize: 0x2C }
  - { offsetInCU: 0xE2D5, offset: 0xE2D5, size: 0x8, addend: 0x0, symName: __ZNSt3__13minB8ue170006ImNS_6__lessIvvEEEERKT_S5_S5_T0_, symObjAddr: 0x44EC, symBinAddr: 0x100006E80, symSize: 0x54 }
  - { offsetInCU: 0xE377, offset: 0xE377, size: 0x8, addend: 0x0, symName: __ZNSt3__120__throw_length_errorB8ue170006EPKc, symObjAddr: 0x45B4, symBinAddr: 0x100006F48, symSize: 0x64 }
  - { offsetInCU: 0xE3A2, offset: 0xE3A2, size: 0x8, addend: 0x0, symName: __ZNSt3__112__to_addressB8ue170006IhEEPT_S2_, symObjAddr: 0x47E0, symBinAddr: 0x100007174, symSize: 0x14 }
  - { offsetInCU: 0xE3D7, offset: 0xE3D7, size: 0x8, addend: 0x0, symName: __ZNSt3__130__uninitialized_allocator_copyB8ue170006INS_9allocatorIhEEPKhS4_PhEET2_RT_T0_T1_S6_, symObjAddr: 0x4890, symBinAddr: 0x100007224, symSize: 0x80 }
  - { offsetInCU: 0xE475, offset: 0xE475, size: 0x8, addend: 0x0, symName: __ZNSt3__114__unwrap_rangeB8ue170006IPKhS2_EEDaT_T0_, symObjAddr: 0x4980, symBinAddr: 0x100007314, symSize: 0x3C }
  - { offsetInCU: 0xE4C1, offset: 0xE4C1, size: 0x8, addend: 0x0, symName: __ZNSt3__135__uninitialized_allocator_copy_implB8ue170006INS_9allocatorIhEEKhhhLPv0EEEPT2_RT_PT0_SA_S6_, symObjAddr: 0x49BC, symBinAddr: 0x100007350, symSize: 0x38 }
  - { offsetInCU: 0xE544, offset: 0xE544, size: 0x8, addend: 0x0, symName: __ZNSt3__113__unwrap_iterB8ue170006IPhNS_18__unwrap_iter_implIS1_Lb1EEELi0EEEDTclsrT0_8__unwrapclsr3stdE7declvalIT_EEEES5_, symObjAddr: 0x49F4, symBinAddr: 0x100007388, symSize: 0x24 }
  - { offsetInCU: 0xE589, offset: 0xE589, size: 0x8, addend: 0x0, symName: __ZNSt3__113__rewrap_iterB8ue170006IPhS1_NS_18__unwrap_iter_implIS1_Lb1EEEEET_S4_T0_, symObjAddr: 0x4A18, symBinAddr: 0x1000073AC, symSize: 0x3C }
  - { offsetInCU: 0xE6FB, offset: 0xE6FB, size: 0x8, addend: 0x0, symName: __ZNSt3__113__unwrap_iterB8ue170006IPKhNS_18__unwrap_iter_implIS2_Lb1EEELi0EEEDTclsrT0_8__unwrapclsr3stdE7declvalIT_EEEES6_, symObjAddr: 0x4AAC, symBinAddr: 0x100007440, symSize: 0x24 }
  - { offsetInCU: 0xE793, offset: 0xE793, size: 0x8, addend: 0x0, symName: __ZNSt3__112__to_addressB8ue170006IKhEEPT_S3_, symObjAddr: 0x4B30, symBinAddr: 0x1000074C4, symSize: 0x14 }
  - { offsetInCU: 0xE7C9, offset: 0xE7C9, size: 0x8, addend: 0x0, symName: __ZNSt3__14copyB8ue170006IPKhPhEET0_T_S5_S4_, symObjAddr: 0x4B78, symBinAddr: 0x10000750C, symSize: 0x40 }
  - { offsetInCU: 0xE824, offset: 0xE824, size: 0x8, addend: 0x0, symName: __ZNSt3__16__copyB8ue170006INS_17_ClassicAlgPolicyEPKhS3_PhEENS_4pairIT0_T2_EES6_T1_S7_, symObjAddr: 0x4BB8, symBinAddr: 0x10000754C, symSize: 0x44 }
  - { offsetInCU: 0xE891, offset: 0xE891, size: 0x8, addend: 0x0, symName: __ZNSt3__123__dispatch_copy_or_moveB8ue170006INS_17_ClassicAlgPolicyENS_11__copy_loopIS1_EENS_14__copy_trivialEPKhS6_PhEENS_4pairIT2_T4_EES9_T3_SA_, symObjAddr: 0x4BFC, symBinAddr: 0x100007590, symSize: 0x44 }
  - { offsetInCU: 0xE910, offset: 0xE910, size: 0x8, addend: 0x0, symName: __ZNSt3__121__unwrap_and_dispatchB8ue170006INS_10__overloadINS_11__copy_loopINS_17_ClassicAlgPolicyEEENS_14__copy_trivialEEEPKhS8_PhLi0EEENS_4pairIT0_T2_EESB_T1_SC_, symObjAddr: 0x4C40, symBinAddr: 0x1000075D4, symSize: 0xB4 }
  - { offsetInCU: 0xEAE9, offset: 0xEAE9, size: 0x8, addend: 0x0, symName: __ZNSt3__19make_pairB8ue170006IPKhPhEENS_4pairINS_18__unwrap_ref_decayIT_E4typeENS5_IT0_E4typeEEEOS6_OS9_, symObjAddr: 0x4D3C, symBinAddr: 0x1000076D0, symSize: 0x38 }
  - { offsetInCU: 0xEB39, offset: 0xEB39, size: 0x8, addend: 0x0, symName: __ZNSt3__114__rewrap_rangeB8ue170006IPKhS2_S2_EET0_S3_T1_, symObjAddr: 0x4D74, symBinAddr: 0x100007708, symSize: 0x2C }
  - { offsetInCU: 0xEB8F, offset: 0xEB8F, size: 0x8, addend: 0x0, symName: __ZNSt3__119__copy_trivial_implB8ue170006IKhhEENS_4pairIPT_PT0_EES4_S4_S6_, symObjAddr: 0x4DA0, symBinAddr: 0x100007734, symSize: 0x78 }
  - { offsetInCU: 0xEBF9, offset: 0xEBF9, size: 0x8, addend: 0x0, symName: __ZNSt3__119__constexpr_memmoveB8ue170006IhKhLi0EEEPT_S3_PT0_NS_15__element_countE, symObjAddr: 0x4E18, symBinAddr: 0x1000077AC, symSize: 0x64 }
  - { offsetInCU: 0xEC68, offset: 0xEC68, size: 0x8, addend: 0x0, symName: __ZNSt3__19make_pairB8ue170006IRPKhPhEENS_4pairINS_18__unwrap_ref_decayIT_E4typeENS6_IT0_E4typeEEEOS7_OSA_, symObjAddr: 0x4E7C, symBinAddr: 0x100007810, symSize: 0x38 }
  - { offsetInCU: 0xECB8, offset: 0xECB8, size: 0x8, addend: 0x0, symName: __ZNSt3__113__rewrap_iterB8ue170006IPKhS2_NS_18__unwrap_iter_implIS2_Lb1EEEEET_S5_T0_, symObjAddr: 0x4FC0, symBinAddr: 0x100007954, symSize: 0x3C }
  - { offsetInCU: 0xED61, offset: 0xED61, size: 0x8, addend: 0x0, symName: __ZNSt3__110destroy_atB8ue170006IhLi0EEEvPT_, symObjAddr: 0x5378, symBinAddr: 0x100007D0C, symSize: 0x24 }
  - { offsetInCU: 0xED99, offset: 0xED99, size: 0x8, addend: 0x0, symName: __ZNSt3__112__destroy_atB8ue170006IhLi0EEEvPT_, symObjAddr: 0x539C, symBinAddr: 0x100007D30, symSize: 0x10 }
  - { offsetInCU: 0xEDD1, offset: 0xEDD1, size: 0x8, addend: 0x0, symName: __ZNSt3__120uninitialized_copy_nB8ue170006IPcmS1_EET1_T_T0_S2_, symObjAddr: 0x6438, symBinAddr: 0x100008DCC, symSize: 0x40 }
  - { offsetInCU: 0xEE6B, offset: 0xEE6B, size: 0x8, addend: 0x0, symName: __ZNSt3__122__uninitialized_copy_nB8ue170006IcPcmS1_NS_22__unreachable_sentinelEEENS_4pairIT0_T2_EES4_T1_S5_T3_, symObjAddr: 0x6520, symBinAddr: 0x100008EB4, symSize: 0xD4 }
  - { offsetInCU: 0xEF1D, offset: 0xEF1D, size: 0x8, addend: 0x0, symName: __ZNSt3__1neB8ue170006IPcEEbRKT_NS_22__unreachable_sentinelE, symObjAddr: 0x65F4, symBinAddr: 0x100008F88, symSize: 0x18 }
  - { offsetInCU: 0xF02D, offset: 0xF02D, size: 0x8, addend: 0x0, symName: __ZNSt3__120uninitialized_copy_nB8ue170006IPKcmPcEET1_T_T0_S4_, symObjAddr: 0x7BE0, symBinAddr: 0x10000A508, symSize: 0x40 }
  - { offsetInCU: 0xF0A0, offset: 0xF0A0, size: 0x8, addend: 0x0, symName: __ZNSt3__122__uninitialized_copy_nB8ue170006IcPKcmPcNS_22__unreachable_sentinelEEENS_4pairIT0_T2_EES6_T1_S7_T3_, symObjAddr: 0x7C20, symBinAddr: 0x10000A548, symSize: 0xC4 }
  - { offsetInCU: 0xF226, offset: 0xF226, size: 0x8, addend: 0x0, symName: __ZNSt3__19has_facetB8ue170006IN3fmt3v1012format_facetINS_6localeEEEEEbRKS4_, symObjAddr: 0x9D10, symBinAddr: 0x10000C638, symSize: 0x40 }
  - { offsetInCU: 0xF25C, offset: 0xF25C, size: 0x8, addend: 0x0, symName: __ZNSt3__19use_facetB8ue170006IN3fmt3v1012format_facetINS_6localeEEEEERKT_RKS4_, symObjAddr: 0x9D50, symBinAddr: 0x10000C678, symSize: 0x2C }
  - { offsetInCU: 0xF292, offset: 0xF292, size: 0x8, addend: 0x0, symName: __ZNSt3__19use_facetB8ue170006INS_8numpunctIcEEEERKT_RKNS_6localeE, symObjAddr: 0xA05C, symBinAddr: 0x10000C984, symSize: 0x2C }
  - { offsetInCU: 0xF471, offset: 0xF471, size: 0x8, addend: 0x0, symName: __ZNSt3__1eqB8ue170006IPKcEEbRKNS_11__wrap_iterIT_EES7_, symObjAddr: 0xD888, symBinAddr: 0x1000101B0, symSize: 0x48 }
  - { offsetInCU: 0xF7BF, offset: 0xF7BF, size: 0x8, addend: 0x0, symName: __ZNSt3__120uninitialized_copy_nB8ue170006IPimS1_EET1_T_T0_S2_, symObjAddr: 0xE224, symBinAddr: 0x100010B4C, symSize: 0x40 }
  - { offsetInCU: 0xF859, offset: 0xF859, size: 0x8, addend: 0x0, symName: __ZNSt3__122__uninitialized_copy_nB8ue170006IiPimS1_NS_22__unreachable_sentinelEEENS_4pairIT0_T2_EES4_T1_S5_T3_, symObjAddr: 0xE2FC, symBinAddr: 0x100010C24, symSize: 0xD4 }
  - { offsetInCU: 0xF90B, offset: 0xF90B, size: 0x8, addend: 0x0, symName: __ZNSt3__1neB8ue170006IPiEEbRKT_NS_22__unreachable_sentinelE, symObjAddr: 0xE3D0, symBinAddr: 0x100010CF8, symSize: 0x18 }
  - { offsetInCU: 0xFAA7, offset: 0xFAA7, size: 0x8, addend: 0x0, symName: __ZNSt3__120uninitialized_copy_nB8ue170006IPjmS1_EET1_T_T0_S2_, symObjAddr: 0x25774, symBinAddr: 0x100028030, symSize: 0x40 }
  - { offsetInCU: 0xFB41, offset: 0xFB41, size: 0x8, addend: 0x0, symName: __ZNSt3__122__uninitialized_copy_nB8ue170006IjPjmS1_NS_22__unreachable_sentinelEEENS_4pairIT0_T2_EES4_T1_S5_T3_, symObjAddr: 0x2584C, symBinAddr: 0x100028108, symSize: 0xD4 }
  - { offsetInCU: 0xFBF3, offset: 0xFBF3, size: 0x8, addend: 0x0, symName: __ZNSt3__1neB8ue170006IPjEEbRKT_NS_22__unreachable_sentinelE, symObjAddr: 0x25920, symBinAddr: 0x1000281DC, symSize: 0x18 }
  - { offsetInCU: 0xFD03, offset: 0xFD03, size: 0x8, addend: 0x0, symName: __ZNSt3__120uninitialized_fill_nB8ue170006IPjijEET_S2_T0_RKT1_, symObjAddr: 0x26C54, symBinAddr: 0x1000294A4, symSize: 0x34 }
  - { offsetInCU: 0xFD67, offset: 0xFD67, size: 0x8, addend: 0x0, symName: __ZNSt3__122__uninitialized_fill_nB8ue170006IjPjijEET0_S2_T1_RKT2_, symObjAddr: 0x26C88, symBinAddr: 0x1000294D8, symSize: 0x74 }
  - { offsetInCU: 0xFE02, offset: 0xFE02, size: 0x8, addend: 0x0, symName: __ZNSt3__125__throw_bad_function_callB8ue170006Ev, symObjAddr: 0x2C214, symBinAddr: 0x10002EA64, symSize: 0x38 }
  - { offsetInCU: 0x1043B, offset: 0x1043B, size: 0x8, addend: 0x0, symName: __ZSt28__throw_bad_array_new_lengthB8ue170006v, symObjAddr: 0x12CC, symBinAddr: 0x100003C60, symSize: 0x34 }
  - { offsetInCU: 0x10480, offset: 0x10480, size: 0x8, addend: 0x0, symName: __ZN3fmt3v106detail15do_count_digitsEy, symObjAddr: 0x8348, symBinAddr: 0x10000AC70, symSize: 0x60 }
  - { offsetInCU: 0x104AC, offset: 0x104AC, size: 0x8, addend: 0x0, symName: __ZZN3fmt3v106detail15do_count_digitsEyE9bsr2log10, symObjAddr: 0x2D148, symBinAddr: 0x10004CA80, symSize: 0x0 }
  - { offsetInCU: 0x104C3, offset: 0x104C3, size: 0x8, addend: 0x0, symName: __ZZN3fmt3v106detail15do_count_digitsEyE20zero_or_powers_of_10, symObjAddr: 0x2D188, symBinAddr: 0x10004CAC0, symSize: 0x0 }
  - { offsetInCU: 0x10CD8, offset: 0x10CD8, size: 0x8, addend: 0x0, symName: __ZN3fmt3v106detail12is_printableEj, symObjAddr: 0xCC88, symBinAddr: 0x10000F5B0, symSize: 0x330 }
  - { offsetInCU: 0x10D04, offset: 0x10D04, size: 0x8, addend: 0x0, symName: __ZZN3fmt3v106detail12is_printableEjE11singletons0, symObjAddr: 0x2D25F, symBinAddr: 0x10004CB97, symSize: 0x0 }
  - { offsetInCU: 0x10D1B, offset: 0x10D1B, size: 0x8, addend: 0x0, symName: __ZZN3fmt3v106detail12is_printableEjE17singletons0_lower, symObjAddr: 0x2D2B1, symBinAddr: 0x10004CBE9, symSize: 0x0 }
  - { offsetInCU: 0x10D32, offset: 0x10D32, size: 0x8, addend: 0x0, symName: __ZZN3fmt3v106detail12is_printableEjE11singletons1, symObjAddr: 0x2D3D3, symBinAddr: 0x10004CD0B, symSize: 0x0 }
  - { offsetInCU: 0x10D49, offset: 0x10D49, size: 0x8, addend: 0x0, symName: __ZZN3fmt3v106detail12is_printableEjE17singletons1_lower, symObjAddr: 0x2D41F, symBinAddr: 0x10004CD57, symSize: 0x0 }
  - { offsetInCU: 0x10D60, offset: 0x10D60, size: 0x8, addend: 0x0, symName: __ZZN3fmt3v106detail12is_printableEjE7normal0, symObjAddr: 0x2D4CE, symBinAddr: 0x10004CE06, symSize: 0x0 }
  - { offsetInCU: 0x10D77, offset: 0x10D77, size: 0x8, addend: 0x0, symName: __ZZN3fmt3v106detail12is_printableEjE7normal1, symObjAddr: 0x2D603, symBinAddr: 0x10004CF3B, symSize: 0x0 }
  - { offsetInCU: 0x11161, offset: 0x11161, size: 0x8, addend: 0x0, symName: __ZN3fmt3v106detail9dragonbox10to_decimalIfEENS2_10decimal_fpIT_EES5_, symObjAddr: 0x119B8, symBinAddr: 0x100014274, symSize: 0x890 }
  - { offsetInCU: 0x11406, offset: 0x11406, size: 0x8, addend: 0x0, symName: __ZN3fmt3v106detail9dragonbox10to_decimalIdEENS2_10decimal_fpIT_EES5_, symObjAddr: 0x1534C, symBinAddr: 0x100017C08, symSize: 0xC44 }
  - { offsetInCU: 0x118EE, offset: 0x118EE, size: 0x8, addend: 0x0, symName: __ZN3fmt3v106detail9dragonbox16floor_log10_pow2Ei, symObjAddr: 0x125DC, symBinAddr: 0x100014E98, symSize: 0x80 }
  - { offsetInCU: 0x1191C, offset: 0x1191C, size: 0x8, addend: 0x0, symName: __ZN3fmt3v106detail9dragonbox16floor_log2_pow10Ei, symObjAddr: 0x126DC, symBinAddr: 0x100014F98, symSize: 0x80 }
  - { offsetInCU: 0x1194B, offset: 0x1194B, size: 0x8, addend: 0x0, symName: __ZN3fmt3v106detail9dragonbox28divide_by_10_to_kappa_plus_1Ej, symObjAddr: 0x127E4, symBinAddr: 0x1000150A0, symSize: 0x28 }
  - { offsetInCU: 0x11978, offset: 0x11978, size: 0x8, addend: 0x0, symName: __ZN3fmt3v106detail9dragonbox38check_divisibility_and_divide_by_pow10ILi1EEEbRj, symObjAddr: 0x12908, symBinAddr: 0x1000151C4, symSize: 0xC0 }
  - { offsetInCU: 0x119EB, offset: 0x119EB, size: 0x8, addend: 0x0, symName: __ZN3fmt3v106detail9dragonbox37floor_log10_pow2_minus_log10_4_over_3Ei, symObjAddr: 0x129C8, symBinAddr: 0x100015284, symSize: 0x8C }
  - { offsetInCU: 0x11A17, offset: 0x11A17, size: 0x8, addend: 0x0, symName: __ZN3fmt3v106detail9dragonbox41is_left_endpoint_integer_shorter_intervalIfEEbi, symObjAddr: 0x12B44, symBinAddr: 0x100015400, symSize: 0x58 }
  - { offsetInCU: 0x11A6D, offset: 0x11A6D, size: 0x8, addend: 0x0, symName: __ZN3fmt3v106detail9dragonbox14umul96_upper64Ejy, symObjAddr: 0x12BF4, symBinAddr: 0x1000154B0, symSize: 0x30 }
  - { offsetInCU: 0x11AA7, offset: 0x11AA7, size: 0x8, addend: 0x0, symName: __ZN3fmt3v106detail9dragonbox15umul128_upper64Eyy, symObjAddr: 0x12C24, symBinAddr: 0x1000154E0, symSize: 0x50 }
  - { offsetInCU: 0x11AF4, offset: 0x11AF4, size: 0x8, addend: 0x0, symName: __ZN3fmt3v106detail9dragonbox14umul96_lower64Ejy, symObjAddr: 0x12C74, symBinAddr: 0x100015530, symSize: 0x20 }
  - { offsetInCU: 0x11C8A, offset: 0x11C8A, size: 0x8, addend: 0x0, symName: __ZN3fmt3v106detail9dragonbox28divide_by_10_to_kappa_plus_1Ey, symObjAddr: 0x16390, symBinAddr: 0x100018C4C, symSize: 0x38 }
  - { offsetInCU: 0x11CB7, offset: 0x11CB7, size: 0x8, addend: 0x0, symName: __ZN3fmt3v106detail9dragonbox38check_divisibility_and_divide_by_pow10ILi2EEEbRj, symObjAddr: 0x1650C, symBinAddr: 0x100018DC8, symSize: 0xC0 }
  - { offsetInCU: 0x11D29, offset: 0x11D29, size: 0x8, addend: 0x0, symName: __ZN3fmt3v106detail9dragonbox41is_left_endpoint_integer_shorter_intervalIdEEbi, symObjAddr: 0x166BC, symBinAddr: 0x100018F78, symSize: 0x58 }
  - { offsetInCU: 0x11D7E, offset: 0x11D7E, size: 0x8, addend: 0x0, symName: __ZN3fmt3v106detail9dragonbox16umul192_upper128EyNS1_16uint128_fallbackE, symObjAddr: 0x168D8, symBinAddr: 0x100019194, symSize: 0x8C }
  - { offsetInCU: 0x11DCB, offset: 0x11DCB, size: 0x8, addend: 0x0, symName: __ZN3fmt3v106detail9dragonbox16umul192_lower128EyNS1_16uint128_fallbackE, symObjAddr: 0x16964, symBinAddr: 0x100019220, symSize: 0xC0 }
  - { offsetInCU: 0x11E23, offset: 0x11E23, size: 0x8, addend: 0x0, symName: __ZN3fmt3v106detail9dragonbox16get_cached_powerEi, symObjAddr: 0x2370C, symBinAddr: 0x100025FC8, symSize: 0x34 }
  - { offsetInCU: 0x12042, offset: 0x12042, size: 0x8, addend: 0x0, symName: __ZN3fmt3v106detail13get_containerINS1_6bufferIcEEEERT_NSt3__120back_insert_iteratorIS5_EE, symObjAddr: 0x77F0, symBinAddr: 0x10000A118, symSize: 0x34 }
  - { offsetInCU: 0x120E6, offset: 0x120E6, size: 0x8, addend: 0x0, symName: __ZN3fmt3v106detail9write_locENS0_8appenderENS0_9loc_valueERKNS0_12format_specsIcEENS1_10locale_refE, symObjAddr: 0x9084, symBinAddr: 0x10000B9AC, symSize: 0x1AC }
  - { offsetInCU: 0x1215C, offset: 0x1215C, size: 0x8, addend: 0x0, symName: __ZN3fmt3v106detail5writeIcNS0_8appenderEfLi0EEET0_S4_T1_, symObjAddr: 0x11628, symBinAddr: 0x100013EE4, symSize: 0x160 }
  - { offsetInCU: 0x1228F, offset: 0x1228F, size: 0x8, addend: 0x0, symName: __ZN3fmt3v106detail13exponent_maskIfEENS1_9dragonbox10float_infoIT_vE12carrier_uintEv, symObjAddr: 0x117A0, symBinAddr: 0x10001405C, symSize: 0x1C }
  - { offsetInCU: 0x122C3, offset: 0x122C3, size: 0x8, addend: 0x0, symName: __ZN3fmt3v106detail5writeIcNS0_8appenderEdLi0EEET0_S4_T1_, symObjAddr: 0x1516C, symBinAddr: 0x100017A28, symSize: 0x164 }
  - { offsetInCU: 0x123F7, offset: 0x123F7, size: 0x8, addend: 0x0, symName: __ZN3fmt3v106detail13exponent_maskIdEENS1_9dragonbox10float_infoIT_vE12carrier_uintEv, symObjAddr: 0x152E8, symBinAddr: 0x100017BA4, symSize: 0x20 }
  - { offsetInCU: 0x1242B, offset: 0x1242B, size: 0x8, addend: 0x0, symName: __ZN3fmt3v106detail5writeIcNS0_8appenderEeLi0EEET0_S4_T1_, symObjAddr: 0x187B0, symBinAddr: 0x10001B06C, symSize: 0x164 }
  - { offsetInCU: 0x1255F, offset: 0x1255F, size: 0x8, addend: 0x0, symName: __ZN3fmt3v106detail23parse_replacement_fieldIcRZNS1_10vformat_toIcEEvRNS1_6bufferIT_EENS0_17basic_string_viewIS5_EENS1_12vformat_argsIS5_E4typeENS1_10locale_refEE14format_handlerEEPKS5_SH_SH_OT0_, symObjAddr: 0x1942C, symBinAddr: 0x10001BCE8, symSize: 0xA04 }
  - { offsetInCU: 0x1275A, offset: 0x1275A, size: 0x8, addend: 0x0, symName: __ZN3fmt3v106detail10vformat_toIcEEvRNS1_6bufferIT_EENS0_17basic_string_viewIS4_EENS1_12vformat_argsIS4_E4typeENS1_10locale_refE, symObjAddr: 0x5A24, symBinAddr: 0x1000083B8, symSize: 0x5EC }
  - { offsetInCU: 0x12D3E, offset: 0x12D3E, size: 0x8, addend: 0x0, symName: __ZN3fmt3v106detail5writeIcNS0_8appenderEEET0_S4_T_RKNS0_12format_specsIS5_EENS1_10locale_refE, symObjAddr: 0x21210, symBinAddr: 0x100023ACC, symSize: 0x180 }
  - { offsetInCU: 0x12E35, offset: 0x12E35, size: 0x8, addend: 0x0, symName: __ZN3fmt3v106detail15format_hexfloatIdLi0EEEvT_iNS1_11float_specsERNS1_6bufferIcEE, symObjAddr: 0x220DC, symBinAddr: 0x100024998, symSize: 0x408 }
  - { offsetInCU: 0x1359E, offset: 0x1359E, size: 0x8, addend: 0x0, symName: __ZN3fmt3v106detail11utf8_decodeEPKcPjPi, symObjAddr: 0x2A454, symBinAddr: 0x10002CCA4, symSize: 0x294 }
  - { offsetInCU: 0x1368C, offset: 0x1368C, size: 0x8, addend: 0x0, symName: __ZN3fmt3v106detail13compute_widthENS0_17basic_string_viewIcEE, symObjAddr: 0x29EC8, symBinAddr: 0x10002C718, symSize: 0x48 }
  - { offsetInCU: 0x1377C, offset: 0x1377C, size: 0x8, addend: 0x0, symName: __ZN3fmt3v106detail18throw_format_errorEPKc, symObjAddr: 0x68A4, symBinAddr: 0x1000091CC, symSize: 0x64 }
  - { offsetInCU: 0x13AFE, offset: 0x13AFE, size: 0x8, addend: 0x0, symName: __ZN3fmt3v106detail16abort_fuzzing_ifEb, symObjAddr: 0x6374, symBinAddr: 0x100008D08, symSize: 0x28 }
  - { offsetInCU: 0x13B29, offset: 0x13B29, size: 0x8, addend: 0x0, symName: __ZN3fmt3v106detail13ignore_unusedIJbEEEvDpRKT_, symObjAddr: 0x64B8, symBinAddr: 0x100008E4C, symSize: 0x10 }
  - { offsetInCU: 0x13B5B, offset: 0x13B5B, size: 0x8, addend: 0x0, symName: __ZN3fmt3v106detail6equal2EPKcS3_, symObjAddr: 0x6734, symBinAddr: 0x10000905C, symSize: 0x3C }
  - { offsetInCU: 0x13B98, offset: 0x13B98, size: 0x8, addend: 0x0, symName: __ZN3fmt3v106detail17convert_for_visitInEET_S3_, symObjAddr: 0x6D8C, symBinAddr: 0x1000096B4, symSize: 0x2C }
  - { offsetInCU: 0x13BCF, offset: 0x13BCF, size: 0x8, addend: 0x0, symName: __ZN3fmt3v106detail17convert_for_visitIoEET_S3_, symObjAddr: 0x6E10, symBinAddr: 0x100009738, symSize: 0x2C }
  - { offsetInCU: 0x13C06, offset: 0x13C06, size: 0x8, addend: 0x0, symName: __ZN3fmt3v106detail5writeIcNS0_8appenderEiLi0EEET0_S4_T1_, symObjAddr: 0x7248, symBinAddr: 0x100009B70, symSize: 0x1A4 }
  - { offsetInCU: 0x13CC4, offset: 0x13CC4, size: 0x8, addend: 0x0, symName: __ZN3fmt3v106detail11is_negativeIiLi0EEEbT_, symObjAddr: 0x73EC, symBinAddr: 0x100009D14, symSize: 0x20 }
  - { offsetInCU: 0x13D2E, offset: 0x13D2E, size: 0x8, addend: 0x0, symName: __ZN3fmt3v106detail12count_digitsEj, symObjAddr: 0x740C, symBinAddr: 0x100009D34, symSize: 0x4C }
  - { offsetInCU: 0x13D85, offset: 0x13D85, size: 0x8, addend: 0x0, symName: __ZN3fmt3v106detail7reserveINS0_8appenderEEERT_S5_m, symObjAddr: 0x7458, symBinAddr: 0x100009D80, symSize: 0x18 }
  - { offsetInCU: 0x13DC8, offset: 0x13DC8, size: 0x8, addend: 0x0, symName: __ZN3fmt3v106detail10to_pointerIcEEPT_NSt3__111conditionalIXsr3std7is_sameIS3_cEE5valueENS0_8appenderENS5_20back_insert_iteratorINS1_6bufferIS3_EEEEE4typeEm, symObjAddr: 0x7470, symBinAddr: 0x100009D98, symSize: 0x9C }
  - { offsetInCU: 0x13E5E, offset: 0x13E5E, size: 0x8, addend: 0x0, symName: __ZN3fmt3v106detail14format_decimalIcjEENS1_21format_decimal_resultIPT_EES5_T0_i, symObjAddr: 0x750C, symBinAddr: 0x100009E34, symSize: 0x190 }
  - { offsetInCU: 0x13F1D, offset: 0x13F1D, size: 0x8, addend: 0x0, symName: __ZN3fmt3v106detail14format_decimalIcjNS0_8appenderELi0EEENS1_21format_decimal_resultIT1_EES5_T0_i, symObjAddr: 0x770C, symBinAddr: 0x10000A034, symSize: 0xC4 }
  - { offsetInCU: 0x13FA8, offset: 0x13FA8, size: 0x8, addend: 0x0, symName: __ZN3fmt3v106detail13base_iteratorINS0_8appenderEEET_S4_S4_, symObjAddr: 0x77D0, symBinAddr: 0x10000A0F8, symSize: 0x20 }
  - { offsetInCU: 0x13FEC, offset: 0x13FEC, size: 0x8, addend: 0x0, symName: __ZN3fmt3v106detail11assert_failEPKciS3_, symObjAddr: 0x7944, symBinAddr: 0x10000A26C, symSize: 0x54 }
  - { offsetInCU: 0x14030, offset: 0x14030, size: 0x8, addend: 0x0, symName: __ZN3fmt3v106detail7digits2Em, symObjAddr: 0x7998, symBinAddr: 0x10000A2C0, symSize: 0x20 }
  - { offsetInCU: 0x1405E, offset: 0x1405E, size: 0x8, addend: 0x0, symName: __ZN3fmt3v106detail17copy_str_noinlineIcPcNS0_8appenderEEET1_T0_S6_S5_, symObjAddr: 0x7A10, symBinAddr: 0x10000A338, symSize: 0x44 }
  - { offsetInCU: 0x140C5, offset: 0x140C5, size: 0x8, addend: 0x0, symName: __ZN3fmt3v106detail8copy_strIcPcEENS0_8appenderET0_S5_S4_, symObjAddr: 0x7A54, symBinAddr: 0x10000A37C, symSize: 0x4C }
  - { offsetInCU: 0x14123, offset: 0x14123, size: 0x8, addend: 0x0, symName: __ZN3fmt3v106detail11to_unsignedIlEENSt3__113make_unsignedIT_E4typeES5_, symObjAddr: 0x7B90, symBinAddr: 0x10000A4B8, symSize: 0x50 }
  - { offsetInCU: 0x1415A, offset: 0x1415A, size: 0x8, addend: 0x0, symName: __ZN3fmt3v106detail5writeIcNS0_8appenderEjLi0EEET0_S4_T1_, symObjAddr: 0x7D54, symBinAddr: 0x10000A67C, symSize: 0x1A4 }
  - { offsetInCU: 0x14218, offset: 0x14218, size: 0x8, addend: 0x0, symName: __ZN3fmt3v106detail11is_negativeIjLi0EEEbT_, symObjAddr: 0x7EF8, symBinAddr: 0x10000A820, symSize: 0x18 }
  - { offsetInCU: 0x14252, offset: 0x14252, size: 0x8, addend: 0x0, symName: __ZN3fmt3v106detail5writeIcNS0_8appenderExLi0EEET0_S4_T1_, symObjAddr: 0x7F10, symBinAddr: 0x10000A838, symSize: 0x1A4 }
  - { offsetInCU: 0x14310, offset: 0x14310, size: 0x8, addend: 0x0, symName: __ZN3fmt3v106detail11is_negativeIxLi0EEEbT_, symObjAddr: 0x80B4, symBinAddr: 0x10000A9DC, symSize: 0x20 }
  - { offsetInCU: 0x1434D, offset: 0x1434D, size: 0x8, addend: 0x0, symName: __ZN3fmt3v106detail12count_digitsEy, symObjAddr: 0x80D4, symBinAddr: 0x10000A9FC, symSize: 0x24 }
  - { offsetInCU: 0x1437B, offset: 0x1437B, size: 0x8, addend: 0x0, symName: __ZN3fmt3v106detail14format_decimalIcyEENS1_21format_decimal_resultIPT_EES5_T0_i, symObjAddr: 0x80F8, symBinAddr: 0x10000AA20, symSize: 0x188 }
  - { offsetInCU: 0x1443A, offset: 0x1443A, size: 0x8, addend: 0x0, symName: __ZN3fmt3v106detail14format_decimalIcyNS0_8appenderELi0EEENS1_21format_decimal_resultIT1_EES5_T0_i, symObjAddr: 0x8280, symBinAddr: 0x10000ABA8, symSize: 0xC8 }
  - { offsetInCU: 0x144C6, offset: 0x144C6, size: 0x8, addend: 0x0, symName: __ZN3fmt3v106detail5writeIcNS0_8appenderEyLi0EEET0_S4_T1_, symObjAddr: 0x83A8, symBinAddr: 0x10000ACD0, symSize: 0x1A4 }
  - { offsetInCU: 0x14584, offset: 0x14584, size: 0x8, addend: 0x0, symName: __ZN3fmt3v106detail11is_negativeIyLi0EEEbT_, symObjAddr: 0x854C, symBinAddr: 0x10000AE74, symSize: 0x18 }
  - { offsetInCU: 0x145BE, offset: 0x145BE, size: 0x8, addend: 0x0, symName: __ZN3fmt3v106detail5writeIcNS0_8appenderEnLi0EEET0_S4_T1_, symObjAddr: 0x8564, symBinAddr: 0x10000AE8C, symSize: 0x1A4 }
  - { offsetInCU: 0x1467E, offset: 0x1467E, size: 0x8, addend: 0x0, symName: __ZN3fmt3v106detail11is_negativeInLi0EEEbT_, symObjAddr: 0x8708, symBinAddr: 0x10000B030, symSize: 0x58 }
  - { offsetInCU: 0x146BB, offset: 0x146BB, size: 0x8, addend: 0x0, symName: __ZN3fmt3v106detail12count_digitsEo, symObjAddr: 0x8760, symBinAddr: 0x10000B088, symSize: 0x3C }
  - { offsetInCU: 0x146E9, offset: 0x146E9, size: 0x8, addend: 0x0, symName: __ZN3fmt3v106detail14format_decimalIcoEENS1_21format_decimal_resultIPT_EES5_T0_i, symObjAddr: 0x879C, symBinAddr: 0x10000B0C4, symSize: 0x1C0 }
  - { offsetInCU: 0x147A9, offset: 0x147A9, size: 0x8, addend: 0x0, symName: __ZN3fmt3v106detail14format_decimalIcoNS0_8appenderELi0EEENS1_21format_decimal_resultIT1_EES5_T0_i, symObjAddr: 0x895C, symBinAddr: 0x10000B284, symSize: 0xE4 }
  - { offsetInCU: 0x14836, offset: 0x14836, size: 0x8, addend: 0x0, symName: __ZN3fmt3v106detail21count_digits_fallbackIoEEiT_, symObjAddr: 0x8A40, symBinAddr: 0x10000B368, symSize: 0x1C0 }
  - { offsetInCU: 0x1487C, offset: 0x1487C, size: 0x8, addend: 0x0, symName: __ZN3fmt3v106detail5writeIcNS0_8appenderEoLi0EEET0_S4_T1_, symObjAddr: 0x8C00, symBinAddr: 0x10000B528, symSize: 0x1A4 }
  - { offsetInCU: 0x1493C, offset: 0x1493C, size: 0x8, addend: 0x0, symName: __ZN3fmt3v106detail11is_negativeIoLi0EEEbT_, symObjAddr: 0x8DA4, symBinAddr: 0x10000B6CC, symSize: 0x20 }
  - { offsetInCU: 0x149DE, offset: 0x149DE, size: 0x8, addend: 0x0, symName: __ZN3fmt3v106detail5writeIcNS0_8appenderEbLi0EEET0_S4_T1_RKNS0_12format_specsIT_EENS1_10locale_refE, symObjAddr: 0x8DC4, symBinAddr: 0x10000B6EC, symSize: 0x230 }
  - { offsetInCU: 0x14B32, offset: 0x14B32, size: 0x8, addend: 0x0, symName: __ZN3fmt3v106detail11write_bytesILNS0_5align4typeE1EcNS0_8appenderEEET1_S6_NS0_17basic_string_viewIcEERKNS0_12format_specsIT0_EE, symObjAddr: 0x9020, symBinAddr: 0x10000B948, symSize: 0x64 }
  - { offsetInCU: 0x1507F, offset: 0x1507F, size: 0x8, addend: 0x0, symName: __ZN3fmt3v106detail18write_int_noinlineIcNS0_8appenderEjEET0_S4_NS1_13write_int_argIT1_EERKNS0_12format_specsIT_EENS1_10locale_refE, symObjAddr: 0x9264, symBinAddr: 0x10000BB8C, symSize: 0x93C }
  - { offsetInCU: 0x153CC, offset: 0x153CC, size: 0x8, addend: 0x0, symName: __ZN3fmt3v106detail18make_write_int_argIiEENS1_13write_int_argINSt3__111conditionalIXaalecl8num_bitsIT_EELi32EntLi0EEjNS5_IXlecl8num_bitsIS6_EELi64EEyoE4typeEE4typeEEES6_NS0_4sign4typeE, symObjAddr: 0x9BE0, symBinAddr: 0x10000C508, symSize: 0xD0 }
  - { offsetInCU: 0x1574E, offset: 0x1574E, size: 0x8, addend: 0x0, symName: __ZN3fmt3v106detail9write_intINS0_8appenderEycEET_S4_T0_jRKNS0_12format_specsIT1_EERKNS1_14digit_groupingIS7_EE, symObjAddr: 0xB280, symBinAddr: 0x10000DBA8, symSize: 0x4A0 }
  - { offsetInCU: 0x159B6, offset: 0x159B6, size: 0x8, addend: 0x0, symName: __ZN3fmt3v106detail13prefix_appendERjj, symObjAddr: 0xB7C8, symBinAddr: 0x10000E0F0, symSize: 0x8C }
  - { offsetInCU: 0x159EF, offset: 0x159EF, size: 0x8, addend: 0x0, symName: __ZN3fmt3v106detail12count_digitsILi4EyEEiT0_, symObjAddr: 0xB854, symBinAddr: 0x10000E17C, symSize: 0x28 }
  - { offsetInCU: 0x15A51, offset: 0x15A51, size: 0x8, addend: 0x0, symName: __ZN3fmt3v106detail11format_uintILj4EcNS0_8appenderEyEET1_S4_T2_ib, symObjAddr: 0xB87C, symBinAddr: 0x10000E1A4, symSize: 0x11C }
  - { offsetInCU: 0x15AF5, offset: 0x15AF5, size: 0x8, addend: 0x0, symName: __ZN3fmt3v106detail12count_digitsILi1EyEEiT0_, symObjAddr: 0xB998, symBinAddr: 0x10000E2C0, symSize: 0x28 }
  - { offsetInCU: 0x15B57, offset: 0x15B57, size: 0x8, addend: 0x0, symName: __ZN3fmt3v106detail11format_uintILj1EcNS0_8appenderEyEET1_S4_T2_ib, symObjAddr: 0xB9C0, symBinAddr: 0x10000E2E8, symSize: 0x120 }
  - { offsetInCU: 0x15BFD, offset: 0x15BFD, size: 0x8, addend: 0x0, symName: __ZN3fmt3v106detail12count_digitsILi3EyEEiT0_, symObjAddr: 0xBAE0, symBinAddr: 0x10000E408, symSize: 0x28 }
  - { offsetInCU: 0x15C5F, offset: 0x15C5F, size: 0x8, addend: 0x0, symName: __ZN3fmt3v106detail11format_uintILj3EcNS0_8appenderEyEET1_S4_T2_ib, symObjAddr: 0xBB08, symBinAddr: 0x10000E430, symSize: 0x11C }
  - { offsetInCU: 0x15D03, offset: 0x15D03, size: 0x8, addend: 0x0, symName: __ZN3fmt3v106detail10write_charIcNS0_8appenderEEET0_S4_T_RKNS0_12format_specsIS5_EE, symObjAddr: 0xBC24, symBinAddr: 0x10000E54C, symSize: 0x78 }
  - { offsetInCU: 0x15DAB, offset: 0x15DAB, size: 0x8, addend: 0x0, symName: __ZN3fmt3v106detail11to_unsignedIiEENSt3__113make_unsignedIT_E4typeES5_, symObjAddr: 0xBC9C, symBinAddr: 0x10000E5C4, symSize: 0x50 }
  - { offsetInCU: 0x15DE2, offset: 0x15DE2, size: 0x8, addend: 0x0, symName: __ZN3fmt3v106detail12write_paddedILNS0_5align4typeE2ENS0_8appenderEcZNS1_9write_intIS5_ycEET_S7_T0_jRKNS0_12format_specsIT1_EERKNS1_14digit_groupingISA_EEEUlS5_E_EES8_S8_SD_mmOT2_, symObjAddr: 0xBD64, symBinAddr: 0x10000E68C, symSize: 0x1C4 }
  - { offsetInCU: 0x15ECF, offset: 0x15ECF, size: 0x8, addend: 0x0, symName: __ZN3fmt3v106detail11format_uintILj4EcyEEPT0_S4_T1_ib, symObjAddr: 0xBF74, symBinAddr: 0x10000E89C, symSize: 0xC4 }
  - { offsetInCU: 0x15F79, offset: 0x15F79, size: 0x8, addend: 0x0, symName: __ZN3fmt3v106detail11format_uintILj1EcyEEPT0_S4_T1_ib, symObjAddr: 0xC084, symBinAddr: 0x10000E9AC, symSize: 0xB8 }
  - { offsetInCU: 0x16023, offset: 0x16023, size: 0x8, addend: 0x0, symName: __ZN3fmt3v106detail11format_uintILj3EcyEEPT0_S4_T1_ib, symObjAddr: 0xC188, symBinAddr: 0x10000EAB0, symSize: 0xB8 }
  - { offsetInCU: 0x160CD, offset: 0x160CD, size: 0x8, addend: 0x0, symName: __ZN3fmt3v106detail12write_paddedILNS0_5align4typeE1ENS0_8appenderEcZNS1_10write_charIcS5_EET0_S7_T_RKNS0_12format_specsIS8_EEEUlS5_E_EES7_S7_RKNS9_IT1_EEmOT2_, symObjAddr: 0xC240, symBinAddr: 0x10000EB68, symSize: 0x50 }
  - { offsetInCU: 0x1614D, offset: 0x1614D, size: 0x8, addend: 0x0, symName: __ZN3fmt3v106detail12write_paddedILNS0_5align4typeE1ENS0_8appenderEcRZNS1_10write_charIcS5_EET0_S7_T_RKNS0_12format_specsIS8_EEEUlS5_E_EES7_S7_RKNS9_IT1_EEmmOT2_, symObjAddr: 0xC290, symBinAddr: 0x10000EBB8, symSize: 0x1C4 }
  - { offsetInCU: 0x1623A, offset: 0x1623A, size: 0x8, addend: 0x0, symName: __ZN3fmt3v106detail4fillINS0_8appenderEcEET_S4_mRKNS1_6fill_tIT0_EE, symObjAddr: 0xC470, symBinAddr: 0x10000ED98, symSize: 0xF4 }
  - { offsetInCU: 0x162DF, offset: 0x162DF, size: 0x8, addend: 0x0, symName: __ZN3fmt3v106detail6fill_nINS0_8appenderEmcEET_S4_T0_RKT1_, symObjAddr: 0xC5F8, symBinAddr: 0x10000EF20, symSize: 0x90 }
  - { offsetInCU: 0x16363, offset: 0x16363, size: 0x8, addend: 0x0, symName: __ZN3fmt3v106detail8copy_strIcPKcEENS0_8appenderET0_S6_S5_, symObjAddr: 0xC6BC, symBinAddr: 0x10000EFE4, symSize: 0x4C }
  - { offsetInCU: 0x163C1, offset: 0x163C1, size: 0x8, addend: 0x0, symName: __ZN3fmt3v106detail18write_escaped_charIcNS0_8appenderEEET0_S4_T_, symObjAddr: 0xC740, symBinAddr: 0x10000F068, symSize: 0x140 }
  - { offsetInCU: 0x1641F, offset: 0x1641F, size: 0x8, addend: 0x0, symName: __ZN3fmt3v106detail12needs_escapeEj, symObjAddr: 0xC880, symBinAddr: 0x10000F1A8, symSize: 0xA8 }
  - { offsetInCU: 0x1644D, offset: 0x1644D, size: 0x8, addend: 0x0, symName: __ZN3fmt3v106detail16write_escaped_cpINS0_8appenderEcEET_S4_RKNS1_18find_escape_resultIT0_EE, symObjAddr: 0xC928, symBinAddr: 0x10000F250, symSize: 0x360 }
  - { offsetInCU: 0x16501, offset: 0x16501, size: 0x8, addend: 0x0, symName: __ZN3fmt3v106detail12is_printableEtPKNS1_9singletonEmPKhS6_m, symObjAddr: 0xCFB8, symBinAddr: 0x10000F8E0, symSize: 0x234 }
  - { offsetInCU: 0x1666B, offset: 0x1666B, size: 0x8, addend: 0x0, symName: __ZN3fmt3v106detail15write_codepointILm2EcNS0_8appenderEEET1_S4_cj, symObjAddr: 0xD1EC, symBinAddr: 0x10000FB14, symSize: 0xE8 }
  - { offsetInCU: 0x166E2, offset: 0x166E2, size: 0x8, addend: 0x0, symName: __ZN3fmt3v106detail15write_codepointILm4EcNS0_8appenderEEET1_S4_cj, symObjAddr: 0xD2D4, symBinAddr: 0x10000FBFC, symSize: 0xE8 }
  - { offsetInCU: 0x16759, offset: 0x16759, size: 0x8, addend: 0x0, symName: __ZN3fmt3v106detail15write_codepointILm8EcNS0_8appenderEEET1_S4_cj, symObjAddr: 0xD3BC, symBinAddr: 0x10000FCE4, symSize: 0x124 }
  - { offsetInCU: 0x167D0, offset: 0x167D0, size: 0x8, addend: 0x0, symName: __ZN3fmt3v106detail6fill_nIcmEEPT_S4_T0_c, symObjAddr: 0xD518, symBinAddr: 0x10000FE40, symSize: 0x58 }
  - { offsetInCU: 0x1682E, offset: 0x1682E, size: 0x8, addend: 0x0, symName: __ZN3fmt3v106detail11format_uintILj4EcjEEPT0_S4_T1_ib, symObjAddr: 0xD570, symBinAddr: 0x10000FE98, symSize: 0xC4 }
  - { offsetInCU: 0x168D8, offset: 0x168D8, size: 0x8, addend: 0x0, symName: __ZN3fmt3v106detail11to_unsignedImEENSt3__113make_unsignedIT_E4typeES5_, symObjAddr: 0xD634, symBinAddr: 0x10000FF5C, symSize: 0x14 }
  - { offsetInCU: 0x1690F, offset: 0x1690F, size: 0x8, addend: 0x0, symName: __ZN3fmt3v106detail9max_valueIiEET_v, symObjAddr: 0xD874, symBinAddr: 0x10001019C, symSize: 0x14 }
  - { offsetInCU: 0x16937, offset: 0x16937, size: 0x8, addend: 0x0, symName: __ZN3fmt3v106detail9max_valueIcEET_v, symObjAddr: 0xD984, symBinAddr: 0x1000102AC, symSize: 0x18 }
  - { offsetInCU: 0x16B9E, offset: 0x16B9E, size: 0x8, addend: 0x0, symName: __ZN3fmt3v106detail18make_write_int_argIjEENS1_13write_int_argINSt3__111conditionalIXaalecl8num_bitsIT_EELi32EntLi0EEjNS5_IXlecl8num_bitsIS6_EELi64EEyoE4typeEE4typeEEES6_NS0_4sign4typeE, symObjAddr: 0xE6BC, symBinAddr: 0x100010F78, symSize: 0xD0 }
  - { offsetInCU: 0x16C1F, offset: 0x16C1F, size: 0x8, addend: 0x0, symName: __ZN3fmt3v106detail18make_write_int_argIxEENS1_13write_int_argINSt3__111conditionalIXaalecl8num_bitsIT_EELi32EntLi0EEjNS5_IXlecl8num_bitsIS6_EELi64EEyoE4typeEE4typeEEES6_NS0_4sign4typeE, symObjAddr: 0xE78C, symBinAddr: 0x100011048, symSize: 0xDC }
  - { offsetInCU: 0x16CA0, offset: 0x16CA0, size: 0x8, addend: 0x0, symName: __ZN3fmt3v106detail18make_write_int_argIyEENS1_13write_int_argINSt3__111conditionalIXaalecl8num_bitsIT_EELi32EntLi0EEjNS5_IXlecl8num_bitsIS6_EELi64EEyoE4typeEE4typeEEES6_NS0_4sign4typeE, symObjAddr: 0xE868, symBinAddr: 0x100011124, symSize: 0xDC }
  - { offsetInCU: 0x16D21, offset: 0x16D21, size: 0x8, addend: 0x0, symName: __ZN3fmt3v106detail18make_write_int_argInEENS1_13write_int_argINSt3__111conditionalIXaalecl8num_bitsIT_EELi32EntLi0EEjNS5_IXlecl8num_bitsIS6_EELi64EEyoE4typeEE4typeEEES6_NS0_4sign4typeE, symObjAddr: 0xE944, symBinAddr: 0x100011200, symSize: 0xF4 }
  - { offsetInCU: 0x16DA2, offset: 0x16DA2, size: 0x8, addend: 0x0, symName: __ZN3fmt3v106detail9write_intINS0_8appenderEocEET_S4_T0_jRKNS0_12format_specsIT1_EERKNS1_14digit_groupingIS7_EE, symObjAddr: 0xEA38, symBinAddr: 0x1000112F4, symSize: 0x570 }
  - { offsetInCU: 0x16EE0, offset: 0x16EE0, size: 0x8, addend: 0x0, symName: __ZN3fmt3v106detail12count_digitsILi4EoEEiT0_, symObjAddr: 0xEFE8, symBinAddr: 0x1000118A4, symSize: 0x40 }
  - { offsetInCU: 0x16F42, offset: 0x16F42, size: 0x8, addend: 0x0, symName: __ZN3fmt3v106detail11format_uintILj4EcNS0_8appenderEoEET1_S4_T2_ib, symObjAddr: 0xF028, symBinAddr: 0x1000118E4, symSize: 0x148 }
  - { offsetInCU: 0x16FE7, offset: 0x16FE7, size: 0x8, addend: 0x0, symName: __ZN3fmt3v106detail12count_digitsILi1EoEEiT0_, symObjAddr: 0xF170, symBinAddr: 0x100011A2C, symSize: 0x40 }
  - { offsetInCU: 0x17049, offset: 0x17049, size: 0x8, addend: 0x0, symName: __ZN3fmt3v106detail11format_uintILj1EcNS0_8appenderEoEET1_S4_T2_ib, symObjAddr: 0xF1B0, symBinAddr: 0x100011A6C, symSize: 0x150 }
  - { offsetInCU: 0x170EF, offset: 0x170EF, size: 0x8, addend: 0x0, symName: __ZN3fmt3v106detail12count_digitsILi3EoEEiT0_, symObjAddr: 0xF300, symBinAddr: 0x100011BBC, symSize: 0x40 }
  - { offsetInCU: 0x17151, offset: 0x17151, size: 0x8, addend: 0x0, symName: __ZN3fmt3v106detail11format_uintILj3EcNS0_8appenderEoEET1_S4_T2_ib, symObjAddr: 0xF340, symBinAddr: 0x100011BFC, symSize: 0x148 }
  - { offsetInCU: 0x171F6, offset: 0x171F6, size: 0x8, addend: 0x0, symName: __ZN3fmt3v106detail12write_paddedILNS0_5align4typeE2ENS0_8appenderEcZNS1_9write_intIS5_ocEET_S7_T0_jRKNS0_12format_specsIT1_EERKNS1_14digit_groupingISA_EEEUlS5_E_EES8_S8_SD_mmOT2_, symObjAddr: 0xF488, symBinAddr: 0x100011D44, symSize: 0x1C4 }
  - { offsetInCU: 0x172E3, offset: 0x172E3, size: 0x8, addend: 0x0, symName: __ZN3fmt3v106detail11format_uintILj4EcoEEPT0_S4_T1_ib, symObjAddr: 0xF6D4, symBinAddr: 0x100011F90, symSize: 0x10C }
  - { offsetInCU: 0x1738E, offset: 0x1738E, size: 0x8, addend: 0x0, symName: __ZN3fmt3v106detail11format_uintILj1EcoEEPT0_S4_T1_ib, symObjAddr: 0xF868, symBinAddr: 0x100012124, symSize: 0x100 }
  - { offsetInCU: 0x17439, offset: 0x17439, size: 0x8, addend: 0x0, symName: __ZN3fmt3v106detail11format_uintILj3EcoEEPT0_S4_T1_ib, symObjAddr: 0xF9F0, symBinAddr: 0x1000122AC, symSize: 0x100 }
  - { offsetInCU: 0x174E4, offset: 0x174E4, size: 0x8, addend: 0x0, symName: __ZN3fmt3v106detail18make_write_int_argIoEENS1_13write_int_argINSt3__111conditionalIXaalecl8num_bitsIT_EELi32EntLi0EEjNS5_IXlecl8num_bitsIS6_EELi64EEyoE4typeEE4typeEEES6_NS0_4sign4typeE, symObjAddr: 0xFBE0, symBinAddr: 0x10001249C, symSize: 0xF4 }
  - { offsetInCU: 0x17855, offset: 0x17855, size: 0x8, addend: 0x0, symName: __ZN3fmt3v106detail8make_argINS0_20basic_format_contextINS0_8appenderEcEEiEENS0_16basic_format_argIT_EERT0_, symObjAddr: 0xFDB0, symBinAddr: 0x10001266C, symSize: 0xA0 }
  - { offsetInCU: 0x1795C, offset: 0x1795C, size: 0x8, addend: 0x0, symName: __ZN3fmt3v106detail12count_digitsILi4EjEEiT0_, symObjAddr: 0xFE50, symBinAddr: 0x10001270C, symSize: 0x2C }
  - { offsetInCU: 0x1799D, offset: 0x1799D, size: 0x8, addend: 0x0, symName: __ZN3fmt3v106detail12count_digitsILi1EjEEiT0_, symObjAddr: 0xFE7C, symBinAddr: 0x100012738, symSize: 0x2C }
  - { offsetInCU: 0x179DE, offset: 0x179DE, size: 0x8, addend: 0x0, symName: __ZN3fmt3v106detail12count_digitsILi3EjEEiT0_, symObjAddr: 0xFEA8, symBinAddr: 0x100012764, symSize: 0x2C }
  - { offsetInCU: 0x17A1F, offset: 0x17A1F, size: 0x8, addend: 0x0, symName: __ZN3fmt3v106detail12write_paddedILNS0_5align4typeE2ENS0_8appenderEcZNS1_9write_intIS5_cZNS1_9write_intIcS5_jEET0_S8_NS1_13write_int_argIT1_EERKNS0_12format_specsIT_EENS1_10locale_refEEUlS5_E_EESD_SD_ijRKNSC_IS8_EESA_EUlS5_E_EES8_S8_RKNSC_ISA_EEmOT2_, symObjAddr: 0xFF68, symBinAddr: 0x100012824, symSize: 0x50 }
  - { offsetInCU: 0x17A9F, offset: 0x17A9F, size: 0x8, addend: 0x0, symName: __ZN3fmt3v106detail12write_paddedILNS0_5align4typeE2ENS0_8appenderEcRZNS1_9write_intIS5_cZNS1_9write_intIcS5_jEET0_S8_NS1_13write_int_argIT1_EERKNS0_12format_specsIT_EENS1_10locale_refEEUlS5_E_EESD_SD_ijRKNSC_IS8_EESA_EUlS5_E_EES8_S8_RKNSC_ISA_EEmmOT2_, symObjAddr: 0x100F0, symBinAddr: 0x1000129AC, symSize: 0x1C4 }
  - { offsetInCU: 0x17BD7, offset: 0x17BD7, size: 0x8, addend: 0x0, symName: __ZN3fmt3v106detail12write_paddedILNS0_5align4typeE2ENS0_8appenderEcZNS1_9write_intIS5_cZNS1_9write_intIcS5_jEET0_S8_NS1_13write_int_argIT1_EERKNS0_12format_specsIT_EENS1_10locale_refEEUlS5_E0_EESD_SD_ijRKNSC_IS8_EESA_EUlS5_E_EES8_S8_RKNSC_ISA_EEmOT2_, symObjAddr: 0x103E4, symBinAddr: 0x100012CA0, symSize: 0x50 }
  - { offsetInCU: 0x17C57, offset: 0x17C57, size: 0x8, addend: 0x0, symName: __ZN3fmt3v106detail11format_uintILj4EcNS0_8appenderEjEET1_S4_T2_ib, symObjAddr: 0x10434, symBinAddr: 0x100012CF0, symSize: 0x118 }
  - { offsetInCU: 0x17CFB, offset: 0x17CFB, size: 0x8, addend: 0x0, symName: __ZN3fmt3v106detail12write_paddedILNS0_5align4typeE2ENS0_8appenderEcRZNS1_9write_intIS5_cZNS1_9write_intIcS5_jEET0_S8_NS1_13write_int_argIT1_EERKNS0_12format_specsIT_EENS1_10locale_refEEUlS5_E0_EESD_SD_ijRKNSC_IS8_EESA_EUlS5_E_EES8_S8_RKNSC_ISA_EEmmOT2_, symObjAddr: 0x1054C, symBinAddr: 0x100012E08, symSize: 0x1C4 }
  - { offsetInCU: 0x17E33, offset: 0x17E33, size: 0x8, addend: 0x0, symName: __ZN3fmt3v106detail12write_paddedILNS0_5align4typeE2ENS0_8appenderEcZNS1_9write_intIS5_cZNS1_9write_intIcS5_jEET0_S8_NS1_13write_int_argIT1_EERKNS0_12format_specsIT_EENS1_10locale_refEEUlS5_E1_EESD_SD_ijRKNSC_IS8_EESA_EUlS5_E_EES8_S8_RKNSC_ISA_EEmOT2_, symObjAddr: 0x10840, symBinAddr: 0x1000130FC, symSize: 0x50 }
  - { offsetInCU: 0x17EB3, offset: 0x17EB3, size: 0x8, addend: 0x0, symName: __ZN3fmt3v106detail11format_uintILj1EcNS0_8appenderEjEET1_S4_T2_ib, symObjAddr: 0x10890, symBinAddr: 0x10001314C, symSize: 0x120 }
  - { offsetInCU: 0x17F58, offset: 0x17F58, size: 0x8, addend: 0x0, symName: __ZN3fmt3v106detail11format_uintILj1EcjEEPT0_S4_T1_ib, symObjAddr: 0x109B0, symBinAddr: 0x10001326C, symSize: 0xBC }
  - { offsetInCU: 0x18002, offset: 0x18002, size: 0x8, addend: 0x0, symName: __ZN3fmt3v106detail12write_paddedILNS0_5align4typeE2ENS0_8appenderEcRZNS1_9write_intIS5_cZNS1_9write_intIcS5_jEET0_S8_NS1_13write_int_argIT1_EERKNS0_12format_specsIT_EENS1_10locale_refEEUlS5_E1_EESD_SD_ijRKNSC_IS8_EESA_EUlS5_E_EES8_S8_RKNSC_ISA_EEmmOT2_, symObjAddr: 0x10A6C, symBinAddr: 0x100013328, symSize: 0x1C4 }
  - { offsetInCU: 0x1813A, offset: 0x1813A, size: 0x8, addend: 0x0, symName: __ZN3fmt3v106detail12write_paddedILNS0_5align4typeE2ENS0_8appenderEcZNS1_9write_intIS5_cZNS1_9write_intIcS5_jEET0_S8_NS1_13write_int_argIT1_EERKNS0_12format_specsIT_EENS1_10locale_refEEUlS5_E2_EESD_SD_ijRKNSC_IS8_EESA_EUlS5_E_EES8_S8_RKNSC_ISA_EEmOT2_, symObjAddr: 0x10D60, symBinAddr: 0x10001361C, symSize: 0x50 }
  - { offsetInCU: 0x181BA, offset: 0x181BA, size: 0x8, addend: 0x0, symName: __ZN3fmt3v106detail11format_uintILj3EcNS0_8appenderEjEET1_S4_T2_ib, symObjAddr: 0x10DB0, symBinAddr: 0x10001366C, symSize: 0x118 }
  - { offsetInCU: 0x1825E, offset: 0x1825E, size: 0x8, addend: 0x0, symName: __ZN3fmt3v106detail11format_uintILj3EcjEEPT0_S4_T1_ib, symObjAddr: 0x10EC8, symBinAddr: 0x100013784, symSize: 0xB8 }
  - { offsetInCU: 0x18308, offset: 0x18308, size: 0x8, addend: 0x0, symName: __ZN3fmt3v106detail12write_paddedILNS0_5align4typeE2ENS0_8appenderEcRZNS1_9write_intIS5_cZNS1_9write_intIcS5_jEET0_S8_NS1_13write_int_argIT1_EERKNS0_12format_specsIT_EENS1_10locale_refEEUlS5_E2_EESD_SD_ijRKNSC_IS8_EESA_EUlS5_E_EES8_S8_RKNSC_ISA_EEmmOT2_, symObjAddr: 0x10F80, symBinAddr: 0x10001383C, symSize: 0x1C4 }
  - { offsetInCU: 0x18440, offset: 0x18440, size: 0x8, addend: 0x0, symName: __ZN3fmt3v106detail12write_paddedILNS0_5align4typeE1ENS0_8appenderEcZNS1_11write_bytesILS4_1EcS5_EET1_S7_NS0_17basic_string_viewIcEERKNS0_12format_specsIT0_EEEUlS5_E_EESB_SB_RKNSA_IS7_EEmOT2_, symObjAddr: 0x11228, symBinAddr: 0x100013AE4, symSize: 0x50 }
  - { offsetInCU: 0x184C0, offset: 0x184C0, size: 0x8, addend: 0x0, symName: __ZN3fmt3v106detail12write_paddedILNS0_5align4typeE1ENS0_8appenderEcRZNS1_11write_bytesILS4_1EcS5_EET1_S7_NS0_17basic_string_viewIcEERKNS0_12format_specsIT0_EEEUlS5_E_EESB_SB_RKNSA_IS7_EEmmOT2_, symObjAddr: 0x11278, symBinAddr: 0x100013B34, symSize: 0x1C4 }
  - { offsetInCU: 0x185AD, offset: 0x185AD, size: 0x8, addend: 0x0, symName: __ZN3fmt3v106detail5writeIcNS0_8appenderEEET0_S4_T_, symObjAddr: 0x115A0, symBinAddr: 0x100013E5C, symSize: 0x88 }
  - { offsetInCU: 0x18663, offset: 0x18663, size: 0x8, addend: 0x0, symName: __ZN3fmt3v106detail27is_supported_floating_pointIfEEbT_, symObjAddr: 0x11788, symBinAddr: 0x100014044, symSize: 0x18 }
  - { offsetInCU: 0x18697, offset: 0x18697, size: 0x8, addend: 0x0, symName: __ZN3fmt3v106detail8bit_castIjfLi0EEET_RKT0_, symObjAddr: 0x117BC, symBinAddr: 0x100014078, symSize: 0x24 }
  - { offsetInCU: 0x186EC, offset: 0x186EC, size: 0x8, addend: 0x0, symName: __ZN3fmt3v106detail15write_nonfiniteIcNS0_8appenderEEET0_S4_bNS0_12format_specsIT_EERKNS1_11float_specsE, symObjAddr: 0x117E0, symBinAddr: 0x10001409C, symSize: 0x1B8 }
  - { offsetInCU: 0x187E1, offset: 0x187E1, size: 0x8, addend: 0x0, symName: __ZN3fmt3v106detail11write_floatINS0_8appenderENS1_9dragonbox10decimal_fpIfEEcEET_S7_RKT0_RKNS0_12format_specsIT1_EENS1_11float_specsENS1_10locale_refE, symObjAddr: 0x12248, symBinAddr: 0x100014B04, symSize: 0x64 }
  - { offsetInCU: 0x18866, offset: 0x18866, size: 0x8, addend: 0x0, symName: __ZN3fmt3v106detail20num_significand_bitsIfEEiv, symObjAddr: 0x122D0, symBinAddr: 0x100014B8C, symSize: 0x8 }
  - { offsetInCU: 0x1888E, offset: 0x1888E, size: 0x8, addend: 0x0, symName: __ZN3fmt3v106detail12write_paddedILNS0_5align4typeE1ENS0_8appenderEcZNS1_15write_nonfiniteIcS5_EET0_S7_bNS0_12format_specsIT_EERKNS1_11float_specsEEUlS5_E_EES7_S7_RKNS8_IT1_EEmOT2_, symObjAddr: 0x122F8, symBinAddr: 0x100014BB4, symSize: 0x50 }
  - { offsetInCU: 0x1890E, offset: 0x1890E, size: 0x8, addend: 0x0, symName: __ZN3fmt3v106detail12write_paddedILNS0_5align4typeE1ENS0_8appenderEcRZNS1_15write_nonfiniteIcS5_EET0_S7_bNS0_12format_specsIT_EERKNS1_11float_specsEEUlS5_E_EES7_S7_RKNS8_IT1_EEmmOT2_, symObjAddr: 0x12348, symBinAddr: 0x100014C04, symSize: 0x1C4 }
  - { offsetInCU: 0x189FB, offset: 0x189FB, size: 0x8, addend: 0x0, symName: __ZN3fmt3v106detail4signIcNS0_4sign4typeEEET_T0_, symObjAddr: 0x125B0, symBinAddr: 0x100014E6C, symSize: 0x24 }
  - { offsetInCU: 0x18A3B, offset: 0x18A3B, size: 0x8, addend: 0x0, symName: __ZN3fmt3v106detail13exponent_biasIfEEiv, symObjAddr: 0x125D4, symBinAddr: 0x100014E90, symSize: 0x8 }
  - { offsetInCU: 0x18A64, offset: 0x18A64, size: 0x8, addend: 0x0, symName: __ZN3fmt3v106detail4rotrEjj, symObjAddr: 0x12C94, symBinAddr: 0x100015550, symSize: 0x44 }
  - { offsetInCU: 0x18A9E, offset: 0x18A9E, size: 0x8, addend: 0x0, symName: __ZN3fmt3v106detail9max_valueIjEET_v, symObjAddr: 0x12CD8, symBinAddr: 0x100015594, symSize: 0x14 }
  - { offsetInCU: 0x18AC6, offset: 0x18AC6, size: 0x8, addend: 0x0, symName: __ZN3fmt3v106detail14do_write_floatINS0_8appenderENS1_9dragonbox10decimal_fpIfEEcNS1_14digit_groupingIcEEEET_S9_RKT0_RKNS0_12format_specsIT1_EENS1_11float_specsENS1_10locale_refE, symObjAddr: 0x12D08, symBinAddr: 0x1000155C4, symSize: 0x7D8 }
  - { offsetInCU: 0x18F14, offset: 0x18F14, size: 0x8, addend: 0x0, symName: __ZN3fmt3v106detail20get_significand_sizeIfEEiRKNS1_9dragonbox10decimal_fpIT_EE, symObjAddr: 0x134E0, symBinAddr: 0x100015D9C, symSize: 0x28 }
  - { offsetInCU: 0x18F4B, offset: 0x18F4B, size: 0x8, addend: 0x0, symName: __ZN3fmt3v106detail13decimal_pointIcEET_NS1_10locale_refE, symObjAddr: 0x13508, symBinAddr: 0x100015DC4, symSize: 0x30 }
  - { offsetInCU: 0x18FEC, offset: 0x18FEC, size: 0x8, addend: 0x0, symName: __ZN3fmt3v106detail12write_paddedILNS0_5align4typeE2ENS0_8appenderEcRZNS1_14do_write_floatIS5_NS1_9dragonbox10decimal_fpIfEEcNS1_14digit_groupingIcEEEET_SC_RKT0_RKNS0_12format_specsIT1_EENS1_11float_specsENS1_10locale_refEEUlS5_E_EESD_SD_SK_mOT2_, symObjAddr: 0x13648, symBinAddr: 0x100015F04, symSize: 0x50 }
  - { offsetInCU: 0x1906C, offset: 0x1906C, size: 0x8, addend: 0x0, symName: __ZN3fmt3v106detail12write_paddedILNS0_5align4typeE2ENS0_8appenderEcZNS1_14do_write_floatIS5_NS1_9dragonbox10decimal_fpIfEEcNS1_14digit_groupingIcEEEET_SC_RKT0_RKNS0_12format_specsIT1_EENS1_11float_specsENS1_10locale_refEEUlS5_E0_EESD_SD_SK_mOT2_, symObjAddr: 0x13828, symBinAddr: 0x1000160E4, symSize: 0x50 }
  - { offsetInCU: 0x190EC, offset: 0x190EC, size: 0x8, addend: 0x0, symName: __ZN3fmt3v106detail12write_paddedILNS0_5align4typeE2ENS0_8appenderEcZNS1_14do_write_floatIS5_NS1_9dragonbox10decimal_fpIfEEcNS1_14digit_groupingIcEEEET_SC_RKT0_RKNS0_12format_specsIT1_EENS1_11float_specsENS1_10locale_refEEUlS5_E1_EESD_SD_SK_mOT2_, symObjAddr: 0x13878, symBinAddr: 0x100016134, symSize: 0x50 }
  - { offsetInCU: 0x1916C, offset: 0x1916C, size: 0x8, addend: 0x0, symName: __ZN3fmt3v106detail12write_paddedILNS0_5align4typeE2ENS0_8appenderEcZNS1_14do_write_floatIS5_NS1_9dragonbox10decimal_fpIfEEcNS1_14digit_groupingIcEEEET_SC_RKT0_RKNS0_12format_specsIT1_EENS1_11float_specsENS1_10locale_refEEUlS5_E2_EESD_SD_SK_mOT2_, symObjAddr: 0x138C8, symBinAddr: 0x100016184, symSize: 0x50 }
  - { offsetInCU: 0x191ED, offset: 0x191ED, size: 0x8, addend: 0x0, symName: __ZN3fmt3v106detail18decimal_point_implIcEET_NS1_10locale_refE, symObjAddr: 0x13918, symBinAddr: 0x1000161D4, symSize: 0x80 }
  - { offsetInCU: 0x19223, offset: 0x19223, size: 0x8, addend: 0x0, symName: __ZN3fmt3v106detail12write_paddedILNS0_5align4typeE2ENS0_8appenderEcRZNS1_14do_write_floatIS5_NS1_9dragonbox10decimal_fpIfEEcNS1_14digit_groupingIcEEEET_SC_RKT0_RKNS0_12format_specsIT1_EENS1_11float_specsENS1_10locale_refEEUlS5_E_EESD_SD_SK_mmOT2_, symObjAddr: 0x139C8, symBinAddr: 0x100016284, symSize: 0x1C4 }
  - { offsetInCU: 0x19310, offset: 0x19310, size: 0x8, addend: 0x0, symName: __ZN3fmt3v106detail17write_significandINS0_8appenderEjcLi0EEET_S4_T0_iiT1_, symObjAddr: 0x13B8C, symBinAddr: 0x100016448, symSize: 0xAC }
  - { offsetInCU: 0x193B9, offset: 0x193B9, size: 0x8, addend: 0x0, symName: __ZN3fmt3v106detail6fill_nINS0_8appenderEicEET_S4_T0_RKT1_, symObjAddr: 0x13C38, symBinAddr: 0x1000164F4, symSize: 0x90 }
  - { offsetInCU: 0x1943D, offset: 0x1943D, size: 0x8, addend: 0x0, symName: __ZN3fmt3v106detail14write_exponentIcNS0_8appenderEEET0_iS4_, symObjAddr: 0x13CC8, symBinAddr: 0x100016584, symSize: 0x278 }
  - { offsetInCU: 0x194B9, offset: 0x194B9, size: 0x8, addend: 0x0, symName: __ZN3fmt3v106detail17write_significandIcjLi0EEEPT_S4_T0_iiS3_, symObjAddr: 0x13F40, symBinAddr: 0x1000167FC, symSize: 0x1D0 }
  - { offsetInCU: 0x1959F, offset: 0x1959F, size: 0x8, addend: 0x0, symName: __ZN3fmt3v106detail13thousands_sepIcEENS1_20thousands_sep_resultIT_EENS1_10locale_refE, symObjAddr: 0x14218, symBinAddr: 0x100016AD4, symSize: 0x80 }
  - { offsetInCU: 0x19620, offset: 0x19620, size: 0x8, addend: 0x0, symName: __ZN3fmt3v106detail18thousands_sep_implIcEENS1_20thousands_sep_resultIT_EENS1_10locale_refE, symObjAddr: 0x142C4, symBinAddr: 0x100016B80, symSize: 0x108 }
  - { offsetInCU: 0x19683, offset: 0x19683, size: 0x8, addend: 0x0, symName: __ZN3fmt3v106detail12write_paddedILNS0_5align4typeE2ENS0_8appenderEcRZNS1_14do_write_floatIS5_NS1_9dragonbox10decimal_fpIfEEcNS1_14digit_groupingIcEEEET_SC_RKT0_RKNS0_12format_specsIT1_EENS1_11float_specsENS1_10locale_refEEUlS5_E0_EESD_SD_SK_mmOT2_, symObjAddr: 0x143F8, symBinAddr: 0x100016CB4, symSize: 0x1C4 }
  - { offsetInCU: 0x19770, offset: 0x19770, size: 0x8, addend: 0x0, symName: __ZN3fmt3v106detail17write_significandIcNS0_8appenderEjNS1_14digit_groupingIcEEEET0_S6_T1_iiRKT2_, symObjAddr: 0x14724, symBinAddr: 0x100016FE0, symSize: 0x1E0 }
  - { offsetInCU: 0x19813, offset: 0x19813, size: 0x8, addend: 0x0, symName: __ZN3fmt3v106detail17write_significandIcNS0_8appenderEjEET0_S4_T1_i, symObjAddr: 0x14934, symBinAddr: 0x1000171F0, symSize: 0x50 }
  - { offsetInCU: 0x1987A, offset: 0x1987A, size: 0x8, addend: 0x0, symName: __ZN3fmt3v106detail12write_paddedILNS0_5align4typeE2ENS0_8appenderEcRZNS1_14do_write_floatIS5_NS1_9dragonbox10decimal_fpIfEEcNS1_14digit_groupingIcEEEET_SC_RKT0_RKNS0_12format_specsIT1_EENS1_11float_specsENS1_10locale_refEEUlS5_E1_EESD_SD_SK_mmOT2_, symObjAddr: 0x14984, symBinAddr: 0x100017240, symSize: 0x1C4 }
  - { offsetInCU: 0x19967, offset: 0x19967, size: 0x8, addend: 0x0, symName: __ZN3fmt3v106detail17write_significandINS0_8appenderEcjNS1_14digit_groupingIcEEEET_S6_T1_iiT0_RKT2_, symObjAddr: 0x14C64, symBinAddr: 0x100017520, symSize: 0x1E4 }
  - { offsetInCU: 0x19A3B, offset: 0x19A3B, size: 0x8, addend: 0x0, symName: __ZN3fmt3v106detail12write_paddedILNS0_5align4typeE2ENS0_8appenderEcRZNS1_14do_write_floatIS5_NS1_9dragonbox10decimal_fpIfEEcNS1_14digit_groupingIcEEEET_SC_RKT0_RKNS0_12format_specsIT1_EENS1_11float_specsENS1_10locale_refEEUlS5_E2_EESD_SD_SK_mmOT2_, symObjAddr: 0x14E48, symBinAddr: 0x100017704, symSize: 0x1C4 }
  - { offsetInCU: 0x19B57, offset: 0x19B57, size: 0x8, addend: 0x0, symName: __ZN3fmt3v106detail27is_supported_floating_pointIdEEbT_, symObjAddr: 0x152D0, symBinAddr: 0x100017B8C, symSize: 0x18 }
  - { offsetInCU: 0x19B8B, offset: 0x19B8B, size: 0x8, addend: 0x0, symName: __ZN3fmt3v106detail8bit_castIydLi0EEET_RKT0_, symObjAddr: 0x15308, symBinAddr: 0x100017BC4, symSize: 0x24 }
  - { offsetInCU: 0x19BE0, offset: 0x19BE0, size: 0x8, addend: 0x0, symName: __ZN3fmt3v106detail11write_floatINS0_8appenderENS1_9dragonbox10decimal_fpIdEEcEET_S7_RKT0_RKNS0_12format_specsIT1_EENS1_11float_specsENS1_10locale_refE, symObjAddr: 0x15F90, symBinAddr: 0x10001884C, symSize: 0x64 }
  - { offsetInCU: 0x19C65, offset: 0x19C65, size: 0x8, addend: 0x0, symName: __ZN3fmt3v106detail20num_significand_bitsIdEEiv, symObjAddr: 0x15FF4, symBinAddr: 0x1000188B0, symSize: 0x8 }
  - { offsetInCU: 0x19C8D, offset: 0x19C8D, size: 0x8, addend: 0x0, symName: __ZN3fmt3v106detail13exponent_biasIdEEiv, symObjAddr: 0x15FFC, symBinAddr: 0x1000188B8, symSize: 0x8 }
  - { offsetInCU: 0x19CB5, offset: 0x19CB5, size: 0x8, addend: 0x0, symName: __ZN3fmt3v106detail7umul128Eyy, symObjAddr: 0x16788, symBinAddr: 0x100019044, symSize: 0x7C }
  - { offsetInCU: 0x19D02, offset: 0x19D02, size: 0x8, addend: 0x0, symName: __ZN3fmt3v106detail4rotrEyj, symObjAddr: 0x16A24, symBinAddr: 0x1000192E0, symSize: 0x44 }
  - { offsetInCU: 0x19D3C, offset: 0x19D3C, size: 0x8, addend: 0x0, symName: __ZN3fmt3v106detail9max_valueIyEET_v, symObjAddr: 0x16A68, symBinAddr: 0x100019324, symSize: 0x14 }
  - { offsetInCU: 0x19D64, offset: 0x19D64, size: 0x8, addend: 0x0, symName: __ZN3fmt3v106detail14do_write_floatINS0_8appenderENS1_9dragonbox10decimal_fpIdEEcNS1_14digit_groupingIcEEEET_S9_RKT0_RKNS0_12format_specsIT1_EENS1_11float_specsENS1_10locale_refE, symObjAddr: 0x16A98, symBinAddr: 0x100019354, symSize: 0x7D8 }
  - { offsetInCU: 0x1A1B2, offset: 0x1A1B2, size: 0x8, addend: 0x0, symName: __ZN3fmt3v106detail20get_significand_sizeIdEEiRKNS1_9dragonbox10decimal_fpIT_EE, symObjAddr: 0x17270, symBinAddr: 0x100019B2C, symSize: 0x28 }
  - { offsetInCU: 0x1A1E9, offset: 0x1A1E9, size: 0x8, addend: 0x0, symName: __ZN3fmt3v106detail12write_paddedILNS0_5align4typeE2ENS0_8appenderEcRZNS1_14do_write_floatIS5_NS1_9dragonbox10decimal_fpIdEEcNS1_14digit_groupingIcEEEET_SC_RKT0_RKNS0_12format_specsIT1_EENS1_11float_specsENS1_10locale_refEEUlS5_E_EESD_SD_SK_mOT2_, symObjAddr: 0x173A8, symBinAddr: 0x100019C64, symSize: 0x50 }
  - { offsetInCU: 0x1A269, offset: 0x1A269, size: 0x8, addend: 0x0, symName: __ZN3fmt3v106detail12write_paddedILNS0_5align4typeE2ENS0_8appenderEcZNS1_14do_write_floatIS5_NS1_9dragonbox10decimal_fpIdEEcNS1_14digit_groupingIcEEEET_SC_RKT0_RKNS0_12format_specsIT1_EENS1_11float_specsENS1_10locale_refEEUlS5_E0_EESD_SD_SK_mOT2_, symObjAddr: 0x17540, symBinAddr: 0x100019DFC, symSize: 0x50 }
  - { offsetInCU: 0x1A2E9, offset: 0x1A2E9, size: 0x8, addend: 0x0, symName: __ZN3fmt3v106detail12write_paddedILNS0_5align4typeE2ENS0_8appenderEcZNS1_14do_write_floatIS5_NS1_9dragonbox10decimal_fpIdEEcNS1_14digit_groupingIcEEEET_SC_RKT0_RKNS0_12format_specsIT1_EENS1_11float_specsENS1_10locale_refEEUlS5_E1_EESD_SD_SK_mOT2_, symObjAddr: 0x17590, symBinAddr: 0x100019E4C, symSize: 0x50 }
  - { offsetInCU: 0x1A369, offset: 0x1A369, size: 0x8, addend: 0x0, symName: __ZN3fmt3v106detail12write_paddedILNS0_5align4typeE2ENS0_8appenderEcZNS1_14do_write_floatIS5_NS1_9dragonbox10decimal_fpIdEEcNS1_14digit_groupingIcEEEET_SC_RKT0_RKNS0_12format_specsIT1_EENS1_11float_specsENS1_10locale_refEEUlS5_E2_EESD_SD_SK_mOT2_, symObjAddr: 0x175E0, symBinAddr: 0x100019E9C, symSize: 0x50 }
  - { offsetInCU: 0x1A3E9, offset: 0x1A3E9, size: 0x8, addend: 0x0, symName: __ZN3fmt3v106detail12write_paddedILNS0_5align4typeE2ENS0_8appenderEcRZNS1_14do_write_floatIS5_NS1_9dragonbox10decimal_fpIdEEcNS1_14digit_groupingIcEEEET_SC_RKT0_RKNS0_12format_specsIT1_EENS1_11float_specsENS1_10locale_refEEUlS5_E_EESD_SD_SK_mmOT2_, symObjAddr: 0x17630, symBinAddr: 0x100019EEC, symSize: 0x1C4 }
  - { offsetInCU: 0x1A4D6, offset: 0x1A4D6, size: 0x8, addend: 0x0, symName: __ZN3fmt3v106detail17write_significandINS0_8appenderEycLi0EEET_S4_T0_iiT1_, symObjAddr: 0x177F4, symBinAddr: 0x10001A0B0, symSize: 0xAC }
  - { offsetInCU: 0x1A57F, offset: 0x1A57F, size: 0x8, addend: 0x0, symName: __ZN3fmt3v106detail17write_significandIcyLi0EEEPT_S4_T0_iiS3_, symObjAddr: 0x178A0, symBinAddr: 0x10001A15C, symSize: 0x1CC }
  - { offsetInCU: 0x1A665, offset: 0x1A665, size: 0x8, addend: 0x0, symName: __ZN3fmt3v106detail12write_paddedILNS0_5align4typeE2ENS0_8appenderEcRZNS1_14do_write_floatIS5_NS1_9dragonbox10decimal_fpIdEEcNS1_14digit_groupingIcEEEET_SC_RKT0_RKNS0_12format_specsIT1_EENS1_11float_specsENS1_10locale_refEEUlS5_E0_EESD_SD_SK_mmOT2_, symObjAddr: 0x17A6C, symBinAddr: 0x10001A328, symSize: 0x1C4 }
  - { offsetInCU: 0x1A752, offset: 0x1A752, size: 0x8, addend: 0x0, symName: __ZN3fmt3v106detail17write_significandIcNS0_8appenderEyNS1_14digit_groupingIcEEEET0_S6_T1_iiRKT2_, symObjAddr: 0x17D98, symBinAddr: 0x10001A654, symSize: 0x1E0 }
  - { offsetInCU: 0x1A7F5, offset: 0x1A7F5, size: 0x8, addend: 0x0, symName: __ZN3fmt3v106detail17write_significandIcNS0_8appenderEyEET0_S4_T1_i, symObjAddr: 0x17F78, symBinAddr: 0x10001A834, symSize: 0x50 }
  - { offsetInCU: 0x1A85C, offset: 0x1A85C, size: 0x8, addend: 0x0, symName: __ZN3fmt3v106detail12write_paddedILNS0_5align4typeE2ENS0_8appenderEcRZNS1_14do_write_floatIS5_NS1_9dragonbox10decimal_fpIdEEcNS1_14digit_groupingIcEEEET_SC_RKT0_RKNS0_12format_specsIT1_EENS1_11float_specsENS1_10locale_refEEUlS5_E1_EESD_SD_SK_mmOT2_, symObjAddr: 0x17FC8, symBinAddr: 0x10001A884, symSize: 0x1C4 }
  - { offsetInCU: 0x1A949, offset: 0x1A949, size: 0x8, addend: 0x0, symName: __ZN3fmt3v106detail17write_significandINS0_8appenderEcyNS1_14digit_groupingIcEEEET_S6_T1_iiT0_RKT2_, symObjAddr: 0x182A8, symBinAddr: 0x10001AB64, symSize: 0x1E4 }
  - { offsetInCU: 0x1AA1D, offset: 0x1AA1D, size: 0x8, addend: 0x0, symName: __ZN3fmt3v106detail12write_paddedILNS0_5align4typeE2ENS0_8appenderEcRZNS1_14do_write_floatIS5_NS1_9dragonbox10decimal_fpIdEEcNS1_14digit_groupingIcEEEET_SC_RKT0_RKNS0_12format_specsIT1_EENS1_11float_specsENS1_10locale_refEEUlS5_E2_EESD_SD_SK_mmOT2_, symObjAddr: 0x1848C, symBinAddr: 0x10001AD48, symSize: 0x1C4 }
  - { offsetInCU: 0x1AB39, offset: 0x1AB39, size: 0x8, addend: 0x0, symName: __ZN3fmt3v106detail27is_supported_floating_pointIeEEbT_, symObjAddr: 0x18914, symBinAddr: 0x10001B1D0, symSize: 0x18 }
  - { offsetInCU: 0x1AB6D, offset: 0x1AB6D, size: 0x8, addend: 0x0, symName: __ZN3fmt3v106detail8bit_castIyeLi0EEET_RKT0_, symObjAddr: 0x1892C, symBinAddr: 0x10001B1E8, symSize: 0x24 }
  - { offsetInCU: 0x1ABC2, offset: 0x1ABC2, size: 0x8, addend: 0x0, symName: __ZN3fmt3v106detail5writeIcNS0_8appenderEEET0_S4_PKT_, symObjAddr: 0x18970, symBinAddr: 0x10001B22C, symSize: 0xA0 }
  - { offsetInCU: 0x1AC63, offset: 0x1AC63, size: 0x8, addend: 0x0, symName: __ZN3fmt3v106detail5writeIcNS0_8appenderEEET0_S4_NS0_17basic_string_viewIT_EE, symObjAddr: 0x18A10, symBinAddr: 0x10001B2CC, symSize: 0xB0 }
  - { offsetInCU: 0x1ACC1, offset: 0x1ACC1, size: 0x8, addend: 0x0, symName: __ZN3fmt3v106detail17copy_str_noinlineIcPKcNS0_8appenderEEET1_T0_S7_S6_, symObjAddr: 0x18AC0, symBinAddr: 0x10001B37C, symSize: 0x44 }
  - { offsetInCU: 0x1AD28, offset: 0x1AD28, size: 0x8, addend: 0x0, symName: __ZN3fmt3v106detail5writeIcNS0_8appenderEvLi0EEET0_S4_PKT1_RKNS0_12format_specsIT_EENS1_10locale_refE, symObjAddr: 0x18B30, symBinAddr: 0x10001B3EC, symSize: 0x50 }
  - { offsetInCU: 0x1AD9D, offset: 0x1AD9D, size: 0x8, addend: 0x0, symName: __ZN3fmt3v106detail9write_ptrIcNS0_8appenderEmEET0_S4_T1_PKNS0_12format_specsIT_EE, symObjAddr: 0x18B80, symBinAddr: 0x10001B43C, symSize: 0xD0 }
  - { offsetInCU: 0x1AE6C, offset: 0x1AE6C, size: 0x8, addend: 0x0, symName: __ZN3fmt3v106detail8bit_castImPKvLi0EEET_RKT0_, symObjAddr: 0x18C50, symBinAddr: 0x10001B50C, symSize: 0x24 }
  - { offsetInCU: 0x1AEC1, offset: 0x1AEC1, size: 0x8, addend: 0x0, symName: __ZN3fmt3v106detail12count_digitsILi4EmEEiT0_, symObjAddr: 0x18C74, symBinAddr: 0x10001B530, symSize: 0x28 }
  - { offsetInCU: 0x1AF23, offset: 0x1AF23, size: 0x8, addend: 0x0, symName: __ZN3fmt3v106detail12write_paddedILNS0_5align4typeE2ENS0_8appenderEcRZNS1_9write_ptrIcS5_mEET0_S7_T1_PKNS0_12format_specsIT_EEEUlS5_E_EES7_S7_RKNS9_IS8_EEmOT2_, symObjAddr: 0x18C9C, symBinAddr: 0x10001B558, symSize: 0x50 }
  - { offsetInCU: 0x1AFA3, offset: 0x1AFA3, size: 0x8, addend: 0x0, symName: __ZN3fmt3v106detail12write_paddedILNS0_5align4typeE2ENS0_8appenderEcRZNS1_9write_ptrIcS5_mEET0_S7_T1_PKNS0_12format_specsIT_EEEUlS5_E_EES7_S7_RKNS9_IS8_EEmmOT2_, symObjAddr: 0x18E00, symBinAddr: 0x10001B6BC, symSize: 0x1C4 }
  - { offsetInCU: 0x1B090, offset: 0x1B090, size: 0x8, addend: 0x0, symName: __ZN3fmt3v106detail11format_uintILj4EcNS0_8appenderEmEET1_S4_T2_ib, symObjAddr: 0x18FC4, symBinAddr: 0x10001B880, symSize: 0x11C }
  - { offsetInCU: 0x1B134, offset: 0x1B134, size: 0x8, addend: 0x0, symName: __ZN3fmt3v106detail11format_uintILj4EcmEEPT0_S4_T1_ib, symObjAddr: 0x190E0, symBinAddr: 0x10001B99C, symSize: 0xC4 }
  - { offsetInCU: 0x1B1DE, offset: 0x1B1DE, size: 0x8, addend: 0x0, symName: __ZN3fmt3v106detail5writeIcNS0_8appenderEEET0_S4_NS0_9monostateENS0_12format_specsIT_EENS1_10locale_refE, symObjAddr: 0x19368, symBinAddr: 0x10001BC24, symSize: 0x34 }
  - { offsetInCU: 0x1B29B, offset: 0x1B29B, size: 0x8, addend: 0x0, symName: __ZN3fmt3v106detail4findILb0EcPKcEEbT1_S5_T0_RS5_, symObjAddr: 0x19ECC, symBinAddr: 0x10001C788, symSize: 0x74 }
  - { offsetInCU: 0x1B6A0, offset: 0x1B6A0, size: 0x8, addend: 0x0, symName: __ZN3fmt3v106detail7get_argINS0_20basic_format_contextINS0_8appenderEcEEiEEDTcldtfp_3argfp0_EERT_T0_, symObjAddr: 0x1B6D0, symBinAddr: 0x10001DF8C, symSize: 0x54 }
  - { offsetInCU: 0x1B700, offset: 0x1B700, size: 0x8, addend: 0x0, symName: __ZN3fmt3v106detail15do_parse_arg_idIcRZNS1_23parse_replacement_fieldIcRZNS1_10vformat_toIcEEvRNS1_6bufferIT_EENS0_17basic_string_viewIS6_EENS1_12vformat_argsIS6_E4typeENS1_10locale_refEE14format_handlerEEPKS6_SI_SI_OT0_E10id_adapterEESI_SI_SI_SK_, symObjAddr: 0x1B83C, symBinAddr: 0x10001E0F8, symSize: 0x234 }
  - { offsetInCU: 0x1B7A8, offset: 0x1B7A8, size: 0x8, addend: 0x0, symName: __ZN3fmt3v106detail21parse_nonnegative_intIcEEiRPKT_S5_i, symObjAddr: 0x1BAA4, symBinAddr: 0x10001E360, symSize: 0x210 }
  - { offsetInCU: 0x1B848, offset: 0x1B848, size: 0x8, addend: 0x0, symName: __ZN3fmt3v106detail13is_name_startIcEEbT_, symObjAddr: 0x1BCF0, symBinAddr: 0x10001E5AC, symSize: 0x94 }
  - { offsetInCU: 0x1B880, offset: 0x1B880, size: 0x8, addend: 0x0, symName: __ZN3fmt3v106detail19handle_dynamic_specINS1_13width_checkerENS0_20basic_format_contextINS0_8appenderEcEEEEvRiNS1_7arg_refINT0_9char_typeEEERS9_, symObjAddr: 0x1C268, symBinAddr: 0x10001EB24, symSize: 0x108 }
  - { offsetInCU: 0x1B8DE, offset: 0x1B8DE, size: 0x8, addend: 0x0, symName: __ZN3fmt3v106detail19handle_dynamic_specINS1_17precision_checkerENS0_20basic_format_contextINS0_8appenderEcEEEEvRiNS1_7arg_refINT0_9char_typeEEERS9_, symObjAddr: 0x1C370, symBinAddr: 0x10001EC2C, symSize: 0x108 }
  - { offsetInCU: 0x1B93B, offset: 0x1B93B, size: 0x8, addend: 0x0, symName: __ZN3fmt3v106detail8to_asciiIcLi0EEEcT_, symObjAddr: 0x1C5F8, symBinAddr: 0x10001EEB4, symSize: 0x44 }
  - { offsetInCU: 0x1B978, offset: 0x1B978, size: 0x8, addend: 0x0, symName: __ZN3fmt3v106detail11parse_alignEc, symObjAddr: 0x1C63C, symBinAddr: 0x10001EEF8, symSize: 0x80 }
  - { offsetInCU: 0x1B9A6, offset: 0x1B9A6, size: 0x8, addend: 0x0, symName: __ZN3fmt3v106detail2inENS1_4typeEi, symObjAddr: 0x1C758, symBinAddr: 0x10001F014, symSize: 0x2C }
  - { offsetInCU: 0x1B9E3, offset: 0x1B9E3, size: 0x8, addend: 0x0, symName: __ZN3fmt3v106detail18is_arithmetic_typeENS1_4typeE, symObjAddr: 0x1C784, symBinAddr: 0x10001F040, symSize: 0x48 }
  - { offsetInCU: 0x1BA6A, offset: 0x1BA6A, size: 0x8, addend: 0x0, symName: __ZN3fmt3v106detail18parse_dynamic_specIcEEPKT_S5_S5_RiRNS1_7arg_refIS3_EERNS0_26basic_format_parse_contextIS3_EE, symObjAddr: 0x1C7CC, symBinAddr: 0x10001F088, symSize: 0x244 }
  - { offsetInCU: 0x1BB52, offset: 0x1BB52, size: 0x8, addend: 0x0, symName: __ZN3fmt3v106detail15parse_precisionIcEEPKT_S5_S5_RiRNS1_7arg_refIS3_EERNS0_26basic_format_parse_contextIS3_EE, symObjAddr: 0x1CA10, symBinAddr: 0x10001F2CC, symSize: 0x8C }
  - { offsetInCU: 0x1BBC5, offset: 0x1BBC5, size: 0x8, addend: 0x0, symName: __ZN3fmt3v106detail17code_point_lengthIcEEiPKT_, symObjAddr: 0x1CB3C, symBinAddr: 0x10001F3F8, symSize: 0x3C }
  - { offsetInCU: 0x1BC0B, offset: 0x1BC0B, size: 0x8, addend: 0x0, symName: __ZN3fmt3v106detail15do_parse_arg_idIcRNS1_23dynamic_spec_id_handlerIcEEEEPKT_S8_S8_OT0_, symObjAddr: 0x1CC5C, symBinAddr: 0x10001F518, symSize: 0x234 }
  - { offsetInCU: 0x1BF5E, offset: 0x1BF5E, size: 0x8, addend: 0x0, symName: __ZN3fmt3v106detail16get_dynamic_specINS1_13width_checkerENS0_16basic_format_argINS0_20basic_format_contextINS0_8appenderEcEEEEEEiT0_, symObjAddr: 0x1D158, symBinAddr: 0x10001FA14, symSize: 0x2D0 }
  - { offsetInCU: 0x1BFD9, offset: 0x1BFD9, size: 0x8, addend: 0x0, symName: __ZN3fmt3v106detail7get_argINS0_20basic_format_contextINS0_8appenderEcEENS0_17basic_string_viewIcEEEEDTcldtfp_3argfp0_EERT_T0_, symObjAddr: 0x1D468, symBinAddr: 0x10001FD24, symSize: 0x64 }
  - { offsetInCU: 0x1C2E4, offset: 0x1C2E4, size: 0x8, addend: 0x0, symName: __ZN3fmt3v106detail16get_dynamic_specINS1_17precision_checkerENS0_16basic_format_argINS0_20basic_format_contextINS0_8appenderEcEEEEEEiT0_, symObjAddr: 0x1D88C, symBinAddr: 0x100020148, symSize: 0x2D0 }
  - { offsetInCU: 0x1C3C8, offset: 0x1C3C8, size: 0x8, addend: 0x0, symName: __ZN3fmt3v106detail8make_argINS0_20basic_format_contextINS0_8appenderEcEEjEENS0_16basic_format_argIT_EERT0_, symObjAddr: 0x1DF30, symBinAddr: 0x1000207EC, symSize: 0xA0 }
  - { offsetInCU: 0x1C93B, offset: 0x1C93B, size: 0x8, addend: 0x0, symName: __ZN3fmt3v106detail18write_int_noinlineIcNS0_8appenderEyEET0_S4_NS1_13write_int_argIT1_EERKNS0_12format_specsIT_EENS1_10locale_refE, symObjAddr: 0x1E004, symBinAddr: 0x1000208C0, symSize: 0x920 }
  - { offsetInCU: 0x1CCEC, offset: 0x1CCEC, size: 0x8, addend: 0x0, symName: __ZN3fmt3v106detail8make_argINS0_20basic_format_contextINS0_8appenderEcEExEENS0_16basic_format_argIT_EERT0_, symObjAddr: 0x1E998, symBinAddr: 0x100021254, symSize: 0xA0 }
  - { offsetInCU: 0x1CDF3, offset: 0x1CDF3, size: 0x8, addend: 0x0, symName: __ZN3fmt3v106detail12write_paddedILNS0_5align4typeE2ENS0_8appenderEcZNS1_9write_intIS5_cZNS1_9write_intIcS5_yEET0_S8_NS1_13write_int_argIT1_EERKNS0_12format_specsIT_EENS1_10locale_refEEUlS5_E_EESD_SD_ijRKNSC_IS8_EESA_EUlS5_E_EES8_S8_RKNSC_ISA_EEmOT2_, symObjAddr: 0x1EA88, symBinAddr: 0x100021344, symSize: 0x50 }
  - { offsetInCU: 0x1CE73, offset: 0x1CE73, size: 0x8, addend: 0x0, symName: __ZN3fmt3v106detail12write_paddedILNS0_5align4typeE2ENS0_8appenderEcRZNS1_9write_intIS5_cZNS1_9write_intIcS5_yEET0_S8_NS1_13write_int_argIT1_EERKNS0_12format_specsIT_EENS1_10locale_refEEUlS5_E_EESD_SD_ijRKNSC_IS8_EESA_EUlS5_E_EES8_S8_RKNSC_ISA_EEmmOT2_, symObjAddr: 0x1EAD8, symBinAddr: 0x100021394, symSize: 0x1C4 }
  - { offsetInCU: 0x1CFAB, offset: 0x1CFAB, size: 0x8, addend: 0x0, symName: __ZN3fmt3v106detail12write_paddedILNS0_5align4typeE2ENS0_8appenderEcZNS1_9write_intIS5_cZNS1_9write_intIcS5_yEET0_S8_NS1_13write_int_argIT1_EERKNS0_12format_specsIT_EENS1_10locale_refEEUlS5_E0_EESD_SD_ijRKNSC_IS8_EESA_EUlS5_E_EES8_S8_RKNSC_ISA_EEmOT2_, symObjAddr: 0x1EDCC, symBinAddr: 0x100021688, symSize: 0x50 }
  - { offsetInCU: 0x1D02B, offset: 0x1D02B, size: 0x8, addend: 0x0, symName: __ZN3fmt3v106detail12write_paddedILNS0_5align4typeE2ENS0_8appenderEcRZNS1_9write_intIS5_cZNS1_9write_intIcS5_yEET0_S8_NS1_13write_int_argIT1_EERKNS0_12format_specsIT_EENS1_10locale_refEEUlS5_E0_EESD_SD_ijRKNSC_IS8_EESA_EUlS5_E_EES8_S8_RKNSC_ISA_EEmmOT2_, symObjAddr: 0x1EE1C, symBinAddr: 0x1000216D8, symSize: 0x1C4 }
  - { offsetInCU: 0x1D163, offset: 0x1D163, size: 0x8, addend: 0x0, symName: __ZN3fmt3v106detail12write_paddedILNS0_5align4typeE2ENS0_8appenderEcZNS1_9write_intIS5_cZNS1_9write_intIcS5_yEET0_S8_NS1_13write_int_argIT1_EERKNS0_12format_specsIT_EENS1_10locale_refEEUlS5_E1_EESD_SD_ijRKNSC_IS8_EESA_EUlS5_E_EES8_S8_RKNSC_ISA_EEmOT2_, symObjAddr: 0x1F110, symBinAddr: 0x1000219CC, symSize: 0x50 }
  - { offsetInCU: 0x1D1E3, offset: 0x1D1E3, size: 0x8, addend: 0x0, symName: __ZN3fmt3v106detail12write_paddedILNS0_5align4typeE2ENS0_8appenderEcRZNS1_9write_intIS5_cZNS1_9write_intIcS5_yEET0_S8_NS1_13write_int_argIT1_EERKNS0_12format_specsIT_EENS1_10locale_refEEUlS5_E1_EESD_SD_ijRKNSC_IS8_EESA_EUlS5_E_EES8_S8_RKNSC_ISA_EEmmOT2_, symObjAddr: 0x1F160, symBinAddr: 0x100021A1C, symSize: 0x1C4 }
  - { offsetInCU: 0x1D31B, offset: 0x1D31B, size: 0x8, addend: 0x0, symName: __ZN3fmt3v106detail12write_paddedILNS0_5align4typeE2ENS0_8appenderEcZNS1_9write_intIS5_cZNS1_9write_intIcS5_yEET0_S8_NS1_13write_int_argIT1_EERKNS0_12format_specsIT_EENS1_10locale_refEEUlS5_E2_EESD_SD_ijRKNSC_IS8_EESA_EUlS5_E_EES8_S8_RKNSC_ISA_EEmOT2_, symObjAddr: 0x1F454, symBinAddr: 0x100021D10, symSize: 0x50 }
  - { offsetInCU: 0x1D39B, offset: 0x1D39B, size: 0x8, addend: 0x0, symName: __ZN3fmt3v106detail12write_paddedILNS0_5align4typeE2ENS0_8appenderEcRZNS1_9write_intIS5_cZNS1_9write_intIcS5_yEET0_S8_NS1_13write_int_argIT1_EERKNS0_12format_specsIT_EENS1_10locale_refEEUlS5_E2_EESD_SD_ijRKNSC_IS8_EESA_EUlS5_E_EES8_S8_RKNSC_ISA_EEmmOT2_, symObjAddr: 0x1F4A4, symBinAddr: 0x100021D60, symSize: 0x1C4 }
  - { offsetInCU: 0x1D53C, offset: 0x1D53C, size: 0x8, addend: 0x0, symName: __ZN3fmt3v106detail8make_argINS0_20basic_format_contextINS0_8appenderEcEEyEENS0_16basic_format_argIT_EERT0_, symObjAddr: 0x1F7B4, symBinAddr: 0x100022070, symSize: 0xA0 }
  - { offsetInCU: 0x1DAAF, offset: 0x1DAAF, size: 0x8, addend: 0x0, symName: __ZN3fmt3v106detail18write_int_noinlineIcNS0_8appenderEoEET0_S4_NS1_13write_int_argIT1_EERKNS0_12format_specsIT_EENS1_10locale_refE, symObjAddr: 0x1F8A0, symBinAddr: 0x10002215C, symSize: 0x9D8 }
  - { offsetInCU: 0x1DE6B, offset: 0x1DE6B, size: 0x8, addend: 0x0, symName: __ZN3fmt3v106detail8make_argINS0_20basic_format_contextINS0_8appenderEcEEnEENS0_16basic_format_argIT_EERT0_, symObjAddr: 0x202F4, symBinAddr: 0x100022BB0, symSize: 0xA0 }
  - { offsetInCU: 0x1DF74, offset: 0x1DF74, size: 0x8, addend: 0x0, symName: __ZN3fmt3v106detail12write_paddedILNS0_5align4typeE2ENS0_8appenderEcZNS1_9write_intIS5_cZNS1_9write_intIcS5_oEET0_S8_NS1_13write_int_argIT1_EERKNS0_12format_specsIT_EENS1_10locale_refEEUlS5_E_EESD_SD_ijRKNSC_IS8_EESA_EUlS5_E_EES8_S8_RKNSC_ISA_EEmOT2_, symObjAddr: 0x203F4, symBinAddr: 0x100022CB0, symSize: 0x50 }
  - { offsetInCU: 0x1DFF4, offset: 0x1DFF4, size: 0x8, addend: 0x0, symName: __ZN3fmt3v106detail12write_paddedILNS0_5align4typeE2ENS0_8appenderEcRZNS1_9write_intIS5_cZNS1_9write_intIcS5_oEET0_S8_NS1_13write_int_argIT1_EERKNS0_12format_specsIT_EENS1_10locale_refEEUlS5_E_EESD_SD_ijRKNSC_IS8_EESA_EUlS5_E_EES8_S8_RKNSC_ISA_EEmmOT2_, symObjAddr: 0x20444, symBinAddr: 0x100022D00, symSize: 0x1C4 }
  - { offsetInCU: 0x1E12C, offset: 0x1E12C, size: 0x8, addend: 0x0, symName: __ZN3fmt3v106detail12write_paddedILNS0_5align4typeE2ENS0_8appenderEcZNS1_9write_intIS5_cZNS1_9write_intIcS5_oEET0_S8_NS1_13write_int_argIT1_EERKNS0_12format_specsIT_EENS1_10locale_refEEUlS5_E0_EESD_SD_ijRKNSC_IS8_EESA_EUlS5_E_EES8_S8_RKNSC_ISA_EEmOT2_, symObjAddr: 0x20748, symBinAddr: 0x100023004, symSize: 0x50 }
  - { offsetInCU: 0x1E1AC, offset: 0x1E1AC, size: 0x8, addend: 0x0, symName: __ZN3fmt3v106detail12write_paddedILNS0_5align4typeE2ENS0_8appenderEcRZNS1_9write_intIS5_cZNS1_9write_intIcS5_oEET0_S8_NS1_13write_int_argIT1_EERKNS0_12format_specsIT_EENS1_10locale_refEEUlS5_E0_EESD_SD_ijRKNSC_IS8_EESA_EUlS5_E_EES8_S8_RKNSC_ISA_EEmmOT2_, symObjAddr: 0x20798, symBinAddr: 0x100023054, symSize: 0x1C4 }
  - { offsetInCU: 0x1E2E4, offset: 0x1E2E4, size: 0x8, addend: 0x0, symName: __ZN3fmt3v106detail12write_paddedILNS0_5align4typeE2ENS0_8appenderEcZNS1_9write_intIS5_cZNS1_9write_intIcS5_oEET0_S8_NS1_13write_int_argIT1_EERKNS0_12format_specsIT_EENS1_10locale_refEEUlS5_E1_EESD_SD_ijRKNSC_IS8_EESA_EUlS5_E_EES8_S8_RKNSC_ISA_EEmOT2_, symObjAddr: 0x20A9C, symBinAddr: 0x100023358, symSize: 0x50 }
  - { offsetInCU: 0x1E364, offset: 0x1E364, size: 0x8, addend: 0x0, symName: __ZN3fmt3v106detail12write_paddedILNS0_5align4typeE2ENS0_8appenderEcRZNS1_9write_intIS5_cZNS1_9write_intIcS5_oEET0_S8_NS1_13write_int_argIT1_EERKNS0_12format_specsIT_EENS1_10locale_refEEUlS5_E1_EESD_SD_ijRKNSC_IS8_EESA_EUlS5_E_EES8_S8_RKNSC_ISA_EEmmOT2_, symObjAddr: 0x20AEC, symBinAddr: 0x1000233A8, symSize: 0x1C4 }
  - { offsetInCU: 0x1E49C, offset: 0x1E49C, size: 0x8, addend: 0x0, symName: __ZN3fmt3v106detail12write_paddedILNS0_5align4typeE2ENS0_8appenderEcZNS1_9write_intIS5_cZNS1_9write_intIcS5_oEET0_S8_NS1_13write_int_argIT1_EERKNS0_12format_specsIT_EENS1_10locale_refEEUlS5_E2_EESD_SD_ijRKNSC_IS8_EESA_EUlS5_E_EES8_S8_RKNSC_ISA_EEmOT2_, symObjAddr: 0x20DF0, symBinAddr: 0x1000236AC, symSize: 0x50 }
  - { offsetInCU: 0x1E51C, offset: 0x1E51C, size: 0x8, addend: 0x0, symName: __ZN3fmt3v106detail12write_paddedILNS0_5align4typeE2ENS0_8appenderEcRZNS1_9write_intIS5_cZNS1_9write_intIcS5_oEET0_S8_NS1_13write_int_argIT1_EERKNS0_12format_specsIT_EENS1_10locale_refEEUlS5_E2_EESD_SD_ijRKNSC_IS8_EESA_EUlS5_E_EES8_S8_RKNSC_ISA_EEmmOT2_, symObjAddr: 0x20E40, symBinAddr: 0x1000236FC, symSize: 0x1C4 }
  - { offsetInCU: 0x1E6BD, offset: 0x1E6BD, size: 0x8, addend: 0x0, symName: __ZN3fmt3v106detail8make_argINS0_20basic_format_contextINS0_8appenderEcEEoEENS0_16basic_format_argIT_EERT0_, symObjAddr: 0x21170, symBinAddr: 0x100023A2C, symSize: 0xA0 }
  - { offsetInCU: 0x1E82E, offset: 0x1E82E, size: 0x8, addend: 0x0, symName: __ZN3fmt3v106detail16check_char_specsIcEEbRKNS0_12format_specsIT_EE, symObjAddr: 0x21390, symBinAddr: 0x100023C4C, symSize: 0xFC }
  - { offsetInCU: 0x1E865, offset: 0x1E865, size: 0x8, addend: 0x0, symName: __ZN3fmt3v106detail18make_write_int_argIhEENS1_13write_int_argINSt3__111conditionalIXaalecl8num_bitsIT_EELi32EntLi0EEjNS5_IXlecl8num_bitsIS6_EELi64EEyoE4typeEE4typeEEES6_NS0_4sign4typeE, symObjAddr: 0x214C0, symBinAddr: 0x100023D7C, symSize: 0xD0 }
  - { offsetInCU: 0x1E94F, offset: 0x1E94F, size: 0x8, addend: 0x0, symName: __ZN3fmt3v106detail8make_argINS0_20basic_format_contextINS0_8appenderEcEEhEENS0_16basic_format_argIT_EERT0_, symObjAddr: 0x215C4, symBinAddr: 0x100023E80, symSize: 0xA0 }
  - { offsetInCU: 0x1EA56, offset: 0x1EA56, size: 0x8, addend: 0x0, symName: __ZN3fmt3v106detail11is_negativeIhLi0EEEbT_, symObjAddr: 0x21664, symBinAddr: 0x100023F20, symSize: 0x18 }
  - { offsetInCU: 0x1EA90, offset: 0x1EA90, size: 0x8, addend: 0x0, symName: __ZN3fmt3v106detail5writeIcNS0_8appenderEfLi0EEET0_S4_T1_NS0_12format_specsIT_EENS1_10locale_refE, symObjAddr: 0x2167C, symBinAddr: 0x100023F38, symSize: 0x134 }
  - { offsetInCU: 0x1EB30, offset: 0x1EB30, size: 0x8, addend: 0x0, symName: __ZN3fmt3v106detail11write_floatIcNS0_8appenderEfEET0_S4_T1_NS0_12format_specsIT_EENS1_10locale_refE, symObjAddr: 0x217E4, symBinAddr: 0x1000240A0, symSize: 0x590 }
  - { offsetInCU: 0x1ECA2, offset: 0x1ECA2, size: 0x8, addend: 0x0, symName: __ZN3fmt3v106detail8make_argINS0_20basic_format_contextINS0_8appenderEcEEfEENS0_16basic_format_argIT_EERT0_, symObjAddr: 0x21DA8, symBinAddr: 0x100024664, symSize: 0xA0 }
  - { offsetInCU: 0x1EDA9, offset: 0x1EDA9, size: 0x8, addend: 0x0, symName: __ZN3fmt3v106detail21parse_float_type_specIcEENS1_11float_specsERKNS0_12format_specsIT_EE, symObjAddr: 0x21E48, symBinAddr: 0x100024704, symSize: 0x200 }
  - { offsetInCU: 0x1EDEF, offset: 0x1EDEF, size: 0x8, addend: 0x0, symName: __ZN3fmt3v106detail8isfiniteIfLi0EEEbT_, symObjAddr: 0x22084, symBinAddr: 0x100024940, symSize: 0x34 }
  - { offsetInCU: 0x1EE3B, offset: 0x1EE3B, size: 0x8, addend: 0x0, symName: __ZN3fmt3v106detail5isnanIfEEbT_, symObjAddr: 0x220B8, symBinAddr: 0x100024974, symSize: 0x24 }
  - { offsetInCU: 0x1EE72, offset: 0x1EE72, size: 0x8, addend: 0x0, symName: __ZN3fmt3v106detail13convert_floatIfEENSt3__111conditionalIXoosr3std7is_sameIT_fEE5valueeqcl8num_bitsIS5_EEclL_ZNS1_8num_bitsIdEEivEEEdS5_E4typeES5_, symObjAddr: 0x224E4, symBinAddr: 0x100024DA0, symSize: 0x18 }
  - { offsetInCU: 0x1EEA9, offset: 0x1EEA9, size: 0x8, addend: 0x0, symName: __ZN3fmt3v106detail11write_bytesILNS0_5align4typeE2EcNS0_8appenderEEET1_S6_NS0_17basic_string_viewIcEERKNS0_12format_specsIT0_EE, symObjAddr: 0x224FC, symBinAddr: 0x100024DB8, symSize: 0x64 }
  - { offsetInCU: 0x1EF3F, offset: 0x1EF3F, size: 0x8, addend: 0x0, symName: __ZN3fmt3v106detail12format_floatIdEEiT_iNS1_11float_specsERNS1_6bufferIcEE, symObjAddr: 0x22560, symBinAddr: 0x100024E1C, symSize: 0xC58 }
  - { offsetInCU: 0x1F2B6, offset: 0x1F2B6, size: 0x8, addend: 0x0, symName: __ZN3fmt3v106detail11write_floatINS0_8appenderENS1_14big_decimal_fpEcEET_S5_RKT0_RKNS0_12format_specsIT1_EENS1_11float_specsENS1_10locale_refE, symObjAddr: 0x231B8, symBinAddr: 0x100025A74, symSize: 0x64 }
  - { offsetInCU: 0x1F3E1, offset: 0x1F3E1, size: 0x8, addend: 0x0, symName: __ZN3fmt3v106detail11countl_zeroEj, symObjAddr: 0x23284, symBinAddr: 0x100025B40, symSize: 0x18 }
  - { offsetInCU: 0x1F40F, offset: 0x1F40F, size: 0x8, addend: 0x0, symName: __ZN3fmt3v106detail12write_paddedILNS0_5align4typeE2ENS0_8appenderEcZNS1_11write_bytesILS4_2EcS5_EET1_S7_NS0_17basic_string_viewIcEERKNS0_12format_specsIT0_EEEUlS5_E_EESB_SB_RKNSA_IS7_EEmOT2_, symObjAddr: 0x233EC, symBinAddr: 0x100025CA8, symSize: 0x50 }
  - { offsetInCU: 0x1F48F, offset: 0x1F48F, size: 0x8, addend: 0x0, symName: __ZN3fmt3v106detail12write_paddedILNS0_5align4typeE2ENS0_8appenderEcRZNS1_11write_bytesILS4_2EcS5_EET1_S7_NS0_17basic_string_viewIcEERKNS0_12format_specsIT0_EEEUlS5_E_EESB_SB_RKNSA_IS7_EEmmOT2_, symObjAddr: 0x2343C, symBinAddr: 0x100025CF8, symSize: 0x1C4 }
  - { offsetInCU: 0x1F57C, offset: 0x1F57C, size: 0x8, addend: 0x0, symName: __ZN3fmt3v106detail13convert_floatIdEENSt3__111conditionalIXoosr3std7is_sameIT_fEE5valueeqcl8num_bitsIS5_EEclL_ZNS1_8num_bitsIdEEivEEEdS5_E4typeES5_, symObjAddr: 0x23674, symBinAddr: 0x100025F30, symSize: 0x14 }
  - { offsetInCU: 0x1F5B3, offset: 0x1F5B3, size: 0x8, addend: 0x0, symName: __ZN3fmt3v106detail6fill_nIciEEPT_S4_T0_c, symObjAddr: 0x23688, symBinAddr: 0x100025F44, symSize: 0x60 }
  - { offsetInCU: 0x1F611, offset: 0x1F611, size: 0x8, addend: 0x0, symName: __ZN3fmt3v106detail11countl_zeroEy, symObjAddr: 0x236E8, symBinAddr: 0x100025FA4, symSize: 0x1C }
  - { offsetInCU: 0x1F63F, offset: 0x1F63F, size: 0x8, addend: 0x0, symName: __ZN3fmt3v106detail8num_bitsIyEEiv, symObjAddr: 0x23704, symBinAddr: 0x100025FC0, symSize: 0x8 }
  - { offsetInCU: 0x1F668, offset: 0x1F668, size: 0x8, addend: 0x0, symName: __ZN3fmt3v106detail16adjust_precisionERii, symObjAddr: 0x23740, symBinAddr: 0x100025FFC, symSize: 0xCC }
  - { offsetInCU: 0x1F6A1, offset: 0x1F6A1, size: 0x8, addend: 0x0, symName: __ZN3fmt3v106detail35fractional_part_rounding_thresholdsEi, symObjAddr: 0x239F4, symBinAddr: 0x1000262B0, symSize: 0x20 }
  - { offsetInCU: 0x1F784, offset: 0x1F784, size: 0x8, addend: 0x0, symName: __ZN3fmt3v106detail13format_dragonENS1_8basic_fpIoEEjiRNS1_6bufferIcEERi, symObjAddr: 0x23C8C, symBinAddr: 0x100026548, symSize: 0xB54 }
  - { offsetInCU: 0x1F993, offset: 0x1F993, size: 0x8, addend: 0x0, symName: __ZN3fmt3v106detail11add_compareERKNS1_6bigintES4_S4_, symObjAddr: 0x24DE0, symBinAddr: 0x10002769C, symSize: 0x230 }
  - { offsetInCU: 0x1FB04, offset: 0x1FB04, size: 0x8, addend: 0x0, symName: __ZN3fmt3v106detail7compareERKNS1_6bigintES4_, symObjAddr: 0x251A0, symBinAddr: 0x100027A5C, symSize: 0x1B4 }
  - { offsetInCU: 0x1FBB8, offset: 0x1FBB8, size: 0x8, addend: 0x0, symName: __ZN3fmt3v106detail8num_bitsIjEEiv, symObjAddr: 0x260EC, symBinAddr: 0x10002893C, symSize: 0x8 }
  - { offsetInCU: 0x1FBE0, offset: 0x1FBE0, size: 0x8, addend: 0x0, symName: __ZN3fmt3v106detail8copy_strIjPjS3_EET1_T0_S5_S4_, symObjAddr: 0x26320, symBinAddr: 0x100028B70, symSize: 0x5C }
  - { offsetInCU: 0x1FC47, offset: 0x1FC47, size: 0x8, addend: 0x0, symName: __ZN3fmt3v106detail8copy_strIjPKjPjEET1_T0_S7_S6_, symObjAddr: 0x26470, symBinAddr: 0x100028CC0, symSize: 0x5C }
  - { offsetInCU: 0x1FCAE, offset: 0x1FCAE, size: 0x8, addend: 0x0, symName: __ZN3fmt3v106detail14do_write_floatINS0_8appenderENS1_14big_decimal_fpEcNS1_14digit_groupingIcEEEET_S7_RKT0_RKNS0_12format_specsIT1_EENS1_11float_specsENS1_10locale_refE, symObjAddr: 0x26DAC, symBinAddr: 0x1000295FC, symSize: 0x7D8 }
  - { offsetInCU: 0x200FC, offset: 0x200FC, size: 0x8, addend: 0x0, symName: __ZN3fmt3v106detail20get_significand_sizeERKNS1_14big_decimal_fpE, symObjAddr: 0x27584, symBinAddr: 0x100029DD4, symSize: 0x18 }
  - { offsetInCU: 0x2012A, offset: 0x2012A, size: 0x8, addend: 0x0, symName: __ZN3fmt3v106detail12write_paddedILNS0_5align4typeE2ENS0_8appenderEcRZNS1_14do_write_floatIS5_NS1_14big_decimal_fpEcNS1_14digit_groupingIcEEEET_SA_RKT0_RKNS0_12format_specsIT1_EENS1_11float_specsENS1_10locale_refEEUlS5_E_EESB_SB_SI_mOT2_, symObjAddr: 0x276AC, symBinAddr: 0x100029EFC, symSize: 0x50 }
  - { offsetInCU: 0x201AA, offset: 0x201AA, size: 0x8, addend: 0x0, symName: __ZN3fmt3v106detail12write_paddedILNS0_5align4typeE2ENS0_8appenderEcZNS1_14do_write_floatIS5_NS1_14big_decimal_fpEcNS1_14digit_groupingIcEEEET_SA_RKT0_RKNS0_12format_specsIT1_EENS1_11float_specsENS1_10locale_refEEUlS5_E0_EESB_SB_SI_mOT2_, symObjAddr: 0x27844, symBinAddr: 0x10002A094, symSize: 0x50 }
  - { offsetInCU: 0x2022A, offset: 0x2022A, size: 0x8, addend: 0x0, symName: __ZN3fmt3v106detail12write_paddedILNS0_5align4typeE2ENS0_8appenderEcZNS1_14do_write_floatIS5_NS1_14big_decimal_fpEcNS1_14digit_groupingIcEEEET_SA_RKT0_RKNS0_12format_specsIT1_EENS1_11float_specsENS1_10locale_refEEUlS5_E1_EESB_SB_SI_mOT2_, symObjAddr: 0x27894, symBinAddr: 0x10002A0E4, symSize: 0x50 }
  - { offsetInCU: 0x202AA, offset: 0x202AA, size: 0x8, addend: 0x0, symName: __ZN3fmt3v106detail12write_paddedILNS0_5align4typeE2ENS0_8appenderEcZNS1_14do_write_floatIS5_NS1_14big_decimal_fpEcNS1_14digit_groupingIcEEEET_SA_RKT0_RKNS0_12format_specsIT1_EENS1_11float_specsENS1_10locale_refEEUlS5_E2_EESB_SB_SI_mOT2_, symObjAddr: 0x278E4, symBinAddr: 0x10002A134, symSize: 0x50 }
  - { offsetInCU: 0x2032A, offset: 0x2032A, size: 0x8, addend: 0x0, symName: __ZN3fmt3v106detail12write_paddedILNS0_5align4typeE2ENS0_8appenderEcRZNS1_14do_write_floatIS5_NS1_14big_decimal_fpEcNS1_14digit_groupingIcEEEET_SA_RKT0_RKNS0_12format_specsIT1_EENS1_11float_specsENS1_10locale_refEEUlS5_E_EESB_SB_SI_mmOT2_, symObjAddr: 0x27934, symBinAddr: 0x10002A184, symSize: 0x1C4 }
  - { offsetInCU: 0x20417, offset: 0x20417, size: 0x8, addend: 0x0, symName: __ZN3fmt3v106detail17write_significandINS0_8appenderEcEET_S4_PKciiT0_, symObjAddr: 0x27AF8, symBinAddr: 0x10002A348, symSize: 0xD0 }
  - { offsetInCU: 0x20493, offset: 0x20493, size: 0x8, addend: 0x0, symName: __ZN3fmt3v106detail12write_paddedILNS0_5align4typeE2ENS0_8appenderEcRZNS1_14do_write_floatIS5_NS1_14big_decimal_fpEcNS1_14digit_groupingIcEEEET_SA_RKT0_RKNS0_12format_specsIT1_EENS1_11float_specsENS1_10locale_refEEUlS5_E0_EESB_SB_SI_mmOT2_, symObjAddr: 0x27BC8, symBinAddr: 0x10002A418, symSize: 0x1C4 }
  - { offsetInCU: 0x20580, offset: 0x20580, size: 0x8, addend: 0x0, symName: __ZN3fmt3v106detail17write_significandIcNS0_8appenderEPKcNS1_14digit_groupingIcEEEET0_S8_T1_iiRKT2_, symObjAddr: 0x27EF4, symBinAddr: 0x10002A744, symSize: 0x1E0 }
  - { offsetInCU: 0x20623, offset: 0x20623, size: 0x8, addend: 0x0, symName: __ZN3fmt3v106detail17write_significandIcNS0_8appenderEEET0_S4_PKci, symObjAddr: 0x280D4, symBinAddr: 0x10002A924, symSize: 0x4C }
  - { offsetInCU: 0x20681, offset: 0x20681, size: 0x8, addend: 0x0, symName: __ZN3fmt3v106detail12write_paddedILNS0_5align4typeE2ENS0_8appenderEcRZNS1_14do_write_floatIS5_NS1_14big_decimal_fpEcNS1_14digit_groupingIcEEEET_SA_RKT0_RKNS0_12format_specsIT1_EENS1_11float_specsENS1_10locale_refEEUlS5_E1_EESB_SB_SI_mmOT2_, symObjAddr: 0x28120, symBinAddr: 0x10002A970, symSize: 0x1C4 }
  - { offsetInCU: 0x2076E, offset: 0x2076E, size: 0x8, addend: 0x0, symName: __ZN3fmt3v106detail17write_significandINS0_8appenderEcPKcNS1_14digit_groupingIcEEEET_S8_T1_iiT0_RKT2_, symObjAddr: 0x28400, symBinAddr: 0x10002AC50, symSize: 0x1E4 }
  - { offsetInCU: 0x20842, offset: 0x20842, size: 0x8, addend: 0x0, symName: __ZN3fmt3v106detail12write_paddedILNS0_5align4typeE2ENS0_8appenderEcRZNS1_14do_write_floatIS5_NS1_14big_decimal_fpEcNS1_14digit_groupingIcEEEET_SA_RKT0_RKNS0_12format_specsIT1_EENS1_11float_specsENS1_10locale_refEEUlS5_E2_EESB_SB_SI_mmOT2_, symObjAddr: 0x285E4, symBinAddr: 0x10002AE34, symSize: 0x1C4 }
  - { offsetInCU: 0x2092F, offset: 0x2092F, size: 0x8, addend: 0x0, symName: __ZN3fmt3v106detail5writeIcNS0_8appenderEdLi0EEET0_S4_T1_NS0_12format_specsIT_EENS1_10locale_refE, symObjAddr: 0x28908, symBinAddr: 0x10002B158, symSize: 0x134 }
  - { offsetInCU: 0x209CF, offset: 0x209CF, size: 0x8, addend: 0x0, symName: __ZN3fmt3v106detail11write_floatIcNS0_8appenderEdEET0_S4_T1_NS0_12format_specsIT_EENS1_10locale_refE, symObjAddr: 0x28A70, symBinAddr: 0x10002B2C0, symSize: 0x548 }
  - { offsetInCU: 0x20B41, offset: 0x20B41, size: 0x8, addend: 0x0, symName: __ZN3fmt3v106detail8make_argINS0_20basic_format_contextINS0_8appenderEcEEdEENS0_16basic_format_argIT_EERT0_, symObjAddr: 0x28FEC, symBinAddr: 0x10002B83C, symSize: 0xA0 }
  - { offsetInCU: 0x20C48, offset: 0x20C48, size: 0x8, addend: 0x0, symName: __ZN3fmt3v106detail8isfiniteIdLi0EEEbT_, symObjAddr: 0x2908C, symBinAddr: 0x10002B8DC, symSize: 0x34 }
  - { offsetInCU: 0x20C94, offset: 0x20C94, size: 0x8, addend: 0x0, symName: __ZN3fmt3v106detail5isnanIdEEbT_, symObjAddr: 0x290C0, symBinAddr: 0x10002B910, symSize: 0x24 }
  - { offsetInCU: 0x20CCB, offset: 0x20CCB, size: 0x8, addend: 0x0, symName: __ZN3fmt3v106detail5writeIcNS0_8appenderEeLi0EEET0_S4_T1_NS0_12format_specsIT_EENS1_10locale_refE, symObjAddr: 0x29118, symBinAddr: 0x10002B968, symSize: 0x134 }
  - { offsetInCU: 0x20D6B, offset: 0x20D6B, size: 0x8, addend: 0x0, symName: __ZN3fmt3v106detail11write_floatIcNS0_8appenderEeEET0_S4_T1_NS0_12format_specsIT_EENS1_10locale_refE, symObjAddr: 0x29280, symBinAddr: 0x10002BAD0, symSize: 0x560 }
  - { offsetInCU: 0x20EDD, offset: 0x20EDD, size: 0x8, addend: 0x0, symName: __ZN3fmt3v106detail8make_argINS0_20basic_format_contextINS0_8appenderEcEEeEENS0_16basic_format_argIT_EERT0_, symObjAddr: 0x29814, symBinAddr: 0x10002C064, symSize: 0xA0 }
  - { offsetInCU: 0x20FE4, offset: 0x20FE4, size: 0x8, addend: 0x0, symName: __ZN3fmt3v106detail8isfiniteIeLi0EEEbT_, symObjAddr: 0x298B4, symBinAddr: 0x10002C104, symSize: 0x34 }
  - { offsetInCU: 0x21030, offset: 0x21030, size: 0x8, addend: 0x0, symName: __ZN3fmt3v106detail5isnanIeEEbT_, symObjAddr: 0x298E8, symBinAddr: 0x10002C138, symSize: 0x24 }
  - { offsetInCU: 0x21067, offset: 0x21067, size: 0x8, addend: 0x0, symName: __ZN3fmt3v106detail13convert_floatIeEENSt3__111conditionalIXoosr3std7is_sameIT_fEE5valueeqcl8num_bitsIS5_EEclL_ZNS1_8num_bitsIdEEivEEEdS5_E4typeES5_, symObjAddr: 0x2990C, symBinAddr: 0x10002C15C, symSize: 0x14 }
  - { offsetInCU: 0x2109E, offset: 0x2109E, size: 0x8, addend: 0x0, symName: __ZN3fmt3v106detail5writeIcNS0_8appenderEEET0_S4_PKT_RKNS0_12format_specsIS5_EENS1_10locale_refE, symObjAddr: 0x29954, symBinAddr: 0x10002C1A4, symSize: 0x10C }
  - { offsetInCU: 0x2119C, offset: 0x2119C, size: 0x8, addend: 0x0, symName: __ZN3fmt3v106detail8bit_castImPKcLi0EEET_RKT0_, symObjAddr: 0x29A60, symBinAddr: 0x10002C2B0, symSize: 0x24 }
  - { offsetInCU: 0x211F1, offset: 0x211F1, size: 0x8, addend: 0x0, symName: __ZN3fmt3v106detail5writeIcNS0_8appenderEEET0_S4_NS0_17basic_string_viewINS0_13type_identityIT_E4typeEEERKNS0_12format_specsIS7_EENS1_10locale_refE, symObjAddr: 0x29A84, symBinAddr: 0x10002C2D4, symSize: 0x58 }
  - { offsetInCU: 0x2125B, offset: 0x2125B, size: 0x8, addend: 0x0, symName: __ZN3fmt3v106detail5writeIcNS0_8appenderEEET0_S4_NS0_17basic_string_viewIT_EERKNS0_12format_specsIS6_EE, symObjAddr: 0x29ADC, symBinAddr: 0x10002C32C, symSize: 0x1A4 }
  - { offsetInCU: 0x2134C, offset: 0x2134C, size: 0x8, addend: 0x0, symName: __ZN3fmt3v106detail16code_point_indexENS0_17basic_string_viewIcEEm, symObjAddr: 0x29C80, symBinAddr: 0x10002C4D0, symSize: 0x8C }
  - { offsetInCU: 0x213F4, offset: 0x213F4, size: 0x8, addend: 0x0, symName: __ZN3fmt3v106detail20write_escaped_stringIcNS1_17counting_iteratorEEET0_S4_NS0_17basic_string_viewIT_EE, symObjAddr: 0x29D0C, symBinAddr: 0x10002C55C, symSize: 0x178 }
  - { offsetInCU: 0x2152D, offset: 0x2152D, size: 0x8, addend: 0x0, symName: __ZN3fmt3v106detail12write_paddedILNS0_5align4typeE1ENS0_8appenderEcZNS1_5writeIcS5_EET0_S7_NS0_17basic_string_viewIT_EERKNS0_12format_specsIS9_EEEUlS5_E_EES7_S7_RKNSB_IT1_EEmmOT2_, symObjAddr: 0x29F10, symBinAddr: 0x10002C760, symSize: 0x1C4 }
  - { offsetInCU: 0x2161B, offset: 0x2161B, size: 0x8, addend: 0x0, symName: __ZN3fmt3v106detail18for_each_codepointIZNS1_16code_point_indexENS0_17basic_string_viewIcEEmEUljS4_E_EEvS4_T_, symObjAddr: 0x2A0D4, symBinAddr: 0x10002C924, symSize: 0x1CC }
  - { offsetInCU: 0x21733, offset: 0x21733, size: 0x8, addend: 0x0, symName: __ZN3fmt3v106detail8copy_strIcKccLi0EEEPT1_PT0_S7_S5_, symObjAddr: 0x2A3E4, symBinAddr: 0x10002CC34, symSize: 0x70 }
  - { offsetInCU: 0x217AF, offset: 0x217AF, size: 0x8, addend: 0x0, symName: __ZN3fmt3v106detail11find_escapeEPKcS3_, symObjAddr: 0x2A7F0, symBinAddr: 0x10002D040, symSize: 0x74 }
  - { offsetInCU: 0x21830, offset: 0x21830, size: 0x8, addend: 0x0, symName: __ZN3fmt3v106detail8copy_strIcPKcNS1_17counting_iteratorEEET1_T0_S7_S6_, symObjAddr: 0x2A864, symBinAddr: 0x10002D0B4, symSize: 0x94 }
  - { offsetInCU: 0x21897, offset: 0x21897, size: 0x8, addend: 0x0, symName: __ZN3fmt3v106detail16write_escaped_cpINS1_17counting_iteratorEcEET_S4_RKNS1_18find_escape_resultIT0_EE, symObjAddr: 0x2A8F8, symBinAddr: 0x10002D148, symSize: 0x3C4 }
  - { offsetInCU: 0x2194C, offset: 0x2194C, size: 0x8, addend: 0x0, symName: __ZN3fmt3v106detail18for_each_codepointIZNS1_11find_escapeEPKcS4_EUljNS0_17basic_string_viewIcEEE_EEvS6_T_, symObjAddr: 0x2ACDC, symBinAddr: 0x10002D52C, symSize: 0x1C0 }
  - { offsetInCU: 0x21A62, offset: 0x21A62, size: 0x8, addend: 0x0, symName: __ZN3fmt3v106detail15write_codepointILm2EcNS1_17counting_iteratorEEET1_S4_cj, symObjAddr: 0x2B090, symBinAddr: 0x10002D8E0, symSize: 0xF0 }
  - { offsetInCU: 0x21AD9, offset: 0x21AD9, size: 0x8, addend: 0x0, symName: __ZN3fmt3v106detail15write_codepointILm4EcNS1_17counting_iteratorEEET1_S4_cj, symObjAddr: 0x2B180, symBinAddr: 0x10002D9D0, symSize: 0xF0 }
  - { offsetInCU: 0x21B50, offset: 0x21B50, size: 0x8, addend: 0x0, symName: __ZN3fmt3v106detail15write_codepointILm8EcNS1_17counting_iteratorEEET1_S4_cj, symObjAddr: 0x2B270, symBinAddr: 0x10002DAC0, symSize: 0x12C }
  - { offsetInCU: 0x21BC7, offset: 0x21BC7, size: 0x8, addend: 0x0, symName: __ZN3fmt3v106detail8copy_strIcPcNS1_17counting_iteratorEEET1_T0_S6_S5_, symObjAddr: 0x2B39C, symBinAddr: 0x10002DBEC, symSize: 0x94 }
  - { offsetInCU: 0x21C2F, offset: 0x21C2F, size: 0x8, addend: 0x0, symName: __ZN3fmt3v106detail18for_each_codepointIZNS1_13compute_widthENS0_17basic_string_viewIcEEE17count_code_pointsEEvS4_T_, symObjAddr: 0x2B448, symBinAddr: 0x10002DC98, symSize: 0x1C0 }
  - { offsetInCU: 0x21D45, offset: 0x21D45, size: 0x8, addend: 0x0, symName: __ZN3fmt3v106detail20write_escaped_stringIcNS0_8appenderEEET0_S4_NS0_17basic_string_viewIT_EE, symObjAddr: 0x2BB68, symBinAddr: 0x10002E3B8, symSize: 0x154 }
  - { offsetInCU: 0x21E58, offset: 0x21E58, size: 0x8, addend: 0x0, symName: __ZN3fmt3v1012format_facetINSt3__16localeEE2idE, symObjAddr: 0x2E2D0, symBinAddr: 0x100054000, symSize: 0x0 }
  - { offsetInCU: 0x22D95, offset: 0x22D95, size: 0x8, addend: 0x0, symName: __ZN3fmt3v107vformatENS0_17basic_string_viewIcEENS0_17basic_format_argsINS0_20basic_format_contextINS0_8appenderEcEEEE, symObjAddr: 0x5818, symBinAddr: 0x1000081AC, symSize: 0x108 }
  - { offsetInCU: 0x22E26, offset: 0x22E26, size: 0x8, addend: 0x0, symName: __ZN3fmt3v1016make_format_argsINS0_20basic_format_contextINS0_8appenderEcEEJEEENS0_16format_arg_storeIT_JDpNSt3__19remove_cvINS7_16remove_referenceIT0_E4typeEE4typeEEEEDpRSA_, symObjAddr: 0x5920, symBinAddr: 0x1000082B4, symSize: 0xA4 }
  - { offsetInCU: 0x23084, offset: 0x23084, size: 0x8, addend: 0x0, symName: __ZN3fmt3v109to_stringIcLm500EEENSt3__112basic_stringIT_NS2_11char_traitsIS4_EENS2_9allocatorIS4_EEEERKNS0_19basic_memory_bufferIS4_XT0_ES8_EE, symObjAddr: 0x6050, symBinAddr: 0x1000089E4, symSize: 0x84 }
  - { offsetInCU: 0x232B5, offset: 0x232B5, size: 0x8, addend: 0x0, symName: __ZN3fmt3v10eqENS0_17basic_string_viewIcEES2_, symObjAddr: 0x1C084, symBinAddr: 0x10001E940, symSize: 0x50 }
  - { offsetInCU: 0x23959, offset: 0x23959, size: 0x8, addend: 0x0, symName: __ZN3fmt3v106detail9dragonbox14cache_accessorIfE16get_cached_powerEi, symObjAddr: 0x1265C, symBinAddr: 0x100014F18, symSize: 0x80 }
  - { offsetInCU: 0x2397A, offset: 0x2397A, size: 0x8, addend: 0x0, symName: __ZZN3fmt3v106detail9dragonbox14cache_accessorIfE16get_cached_powerEiE18pow10_significands, symObjAddr: 0x2D810, symBinAddr: 0x10004D148, symSize: 0x0 }
  - { offsetInCU: 0x239C6, offset: 0x239C6, size: 0x8, addend: 0x0, symName: __ZN3fmt3v106detail9dragonbox14cache_accessorIdE16get_cached_powerEi, symObjAddr: 0x16004, symBinAddr: 0x1000188C0, symSize: 0x2D4 }
  - { offsetInCU: 0x239E7, offset: 0x239E7, size: 0x8, addend: 0x0, symName: __ZZN3fmt3v106detail9dragonbox14cache_accessorIdE16get_cached_powerEiE18pow10_significands, symObjAddr: 0x2DA80, symBinAddr: 0x10004D3B8, symSize: 0x0 }
  - { offsetInCU: 0x239FE, offset: 0x239FE, size: 0x8, addend: 0x0, symName: __ZZN3fmt3v106detail9dragonbox14cache_accessorIdE16get_cached_powerEiE14powers_of_5_64, symObjAddr: 0x2DC00, symBinAddr: 0x10004D538, symSize: 0x0 }
  - { offsetInCU: 0x257C3, offset: 0x257C3, size: 0x8, addend: 0x0, symName: __ZN8MQTTPlus6Client11ProcessDataEPci, symObjAddr: 0x0, symBinAddr: 0x100002994, symSize: 0xC8 }
  - { offsetInCU: 0x2616B, offset: 0x2616B, size: 0x8, addend: 0x0, symName: __ZN3fmt3v106detail6bigint8multiplyIoLi0EEEvT_, symObjAddr: 0x264CC, symBinAddr: 0x100028D1C, symSize: 0x21C }
  - { offsetInCU: 0x27833, offset: 0x27833, size: 0x8, addend: 0x0, symName: __Z5isnanB8ue170006e, symObjAddr: 0x18950, symBinAddr: 0x10001B20C, symSize: 0x20 }
  - { offsetInCU: 0x2860D, offset: 0x2860D, size: 0x8, addend: 0x0, symName: '__ZNSt3__18functionIFvR3RefIN4MQTT7MessageEEEEC1IZN8MQTTPlus6Client11ProcessDataEPciE3$_0vEET_', symObjAddr: 0xC8, symBinAddr: 0x100002A5C, symSize: 0x34 }
  - { offsetInCU: 0x28652, offset: 0x28652, size: 0x8, addend: 0x0, symName: __ZNSt3__18functionIFvR3RefIN4MQTT7MessageEEEED1Ev, symObjAddr: 0xFC, symBinAddr: 0x100002A90, symSize: 0x2C }
  - { offsetInCU: 0x2867E, offset: 0x2867E, size: 0x8, addend: 0x0, symName: __ZN8MQTTPlus6Client11SendMessageE3RefIN4MQTT7MessageEE, symObjAddr: 0x128, symBinAddr: 0x100002ABC, symSize: 0x74 }
  - { offsetInCU: 0x286B5, offset: 0x286B5, size: 0x8, addend: 0x0, symName: __ZNKSt3__18functionIFv3RefIN4MQTT7MessageEEEEclES4_, symObjAddr: 0x19C, symBinAddr: 0x100002B30, symSize: 0x2C }
  - { offsetInCU: 0x286ED, offset: 0x286ED, size: 0x8, addend: 0x0, symName: __ZN3RefIN4MQTT7MessageEEC1ERKS2_, symObjAddr: 0x1C8, symBinAddr: 0x100002B5C, symSize: 0x34 }
  - { offsetInCU: 0x28725, offset: 0x28725, size: 0x8, addend: 0x0, symName: __ZN3RefIN4MQTT7MessageEED1Ev, symObjAddr: 0x1FC, symBinAddr: 0x100002B90, symSize: 0x2C }
  - { offsetInCU: 0x2874F, offset: 0x2874F, size: 0x8, addend: 0x0, symName: __ZN3RefIN4MQTT7MessageEED2Ev, symObjAddr: 0x228, symBinAddr: 0x100002BBC, symSize: 0x34 }
  - { offsetInCU: 0x28779, offset: 0x28779, size: 0x8, addend: 0x0, symName: __ZNK3RefIN4MQTT7MessageEE6DecRefEv, symObjAddr: 0x25C, symBinAddr: 0x100002BF0, symSize: 0x98 }
  - { offsetInCU: 0x2879F, offset: 0x2879F, size: 0x8, addend: 0x0, symName: __ZNK8RefCount11DecRefCountEv, symObjAddr: 0x300, symBinAddr: 0x100002C94, symSize: 0x2C }
  - { offsetInCU: 0x287C5, offset: 0x287C5, size: 0x8, addend: 0x0, symName: __ZNK8RefCount11GetRefCountEv, symObjAddr: 0x32C, symBinAddr: 0x100002CC0, symSize: 0x2C }
  - { offsetInCU: 0x287EB, offset: 0x287EB, size: 0x8, addend: 0x0, symName: __ZNSt3__113__atomic_baseIjLb1EEmmB8ue170006Ei, symObjAddr: 0x358, symBinAddr: 0x100002CEC, symSize: 0x30 }
  - { offsetInCU: 0x2881B, offset: 0x2881B, size: 0x8, addend: 0x0, symName: __ZNSt3__113__atomic_baseIjLb1EE9fetch_subB8ue170006EjNS_12memory_orderE, symObjAddr: 0x388, symBinAddr: 0x100002D1C, symSize: 0x34 }
  - { offsetInCU: 0x2885D, offset: 0x2885D, size: 0x8, addend: 0x0, symName: __ZNKSt3__113__atomic_baseIjLb0EE4loadB8ue170006ENS_12memory_orderE, symObjAddr: 0x4A8, symBinAddr: 0x100002E3C, symSize: 0x2C }
  - { offsetInCU: 0x28891, offset: 0x28891, size: 0x8, addend: 0x0, symName: '__ZNSt3__18functionIFvR3RefIN4MQTT7MessageEEEEC2IZN8MQTTPlus6Client11ProcessDataEPciE3$_0vEET_', symObjAddr: 0x554, symBinAddr: 0x100002EE8, symSize: 0x38 }
  - { offsetInCU: 0x288D6, offset: 0x288D6, size: 0x8, addend: 0x0, symName: '__ZNSt3__110__function12__value_funcIFvR3RefIN4MQTT7MessageEEEEC1B8ue170006IZN8MQTTPlus6Client11ProcessDataEPciE3$_0vEEOT_', symObjAddr: 0x58C, symBinAddr: 0x100002F20, symSize: 0x50 }
  - { offsetInCU: 0x28919, offset: 0x28919, size: 0x8, addend: 0x0, symName: '__ZNSt3__19allocatorIZN8MQTTPlus6Client11ProcessDataEPciE3$_0EC1B8ue170006Ev', symObjAddr: 0x5DC, symBinAddr: 0x100002F70, symSize: 0x2C }
  - { offsetInCU: 0x28943, offset: 0x28943, size: 0x8, addend: 0x0, symName: '__ZNSt3__110__function12__value_funcIFvR3RefIN4MQTT7MessageEEEEC1B8ue170006IZN8MQTTPlus6Client11ProcessDataEPciE3$_0NS_9allocatorISD_EEEEOT_RKT0_', symObjAddr: 0x608, symBinAddr: 0x100002F9C, symSize: 0x3C }
  - { offsetInCU: 0x2899D, offset: 0x2899D, size: 0x8, addend: 0x0, symName: '__ZNSt3__19allocatorIZN8MQTTPlus6Client11ProcessDataEPciE3$_0EC2B8ue170006Ev', symObjAddr: 0x644, symBinAddr: 0x100002FD8, symSize: 0x2C }
  - { offsetInCU: 0x289C7, offset: 0x289C7, size: 0x8, addend: 0x0, symName: '__ZNSt3__116__non_trivial_ifILb1ENS_9allocatorIZN8MQTTPlus6Client11ProcessDataEPciE3$_0EEEC2B8ue170006Ev', symObjAddr: 0x670, symBinAddr: 0x100003004, symSize: 0x14 }
  - { offsetInCU: 0x289F1, offset: 0x289F1, size: 0x8, addend: 0x0, symName: '__ZNSt3__110__function12__value_funcIFvR3RefIN4MQTT7MessageEEEEC2B8ue170006IZN8MQTTPlus6Client11ProcessDataEPciE3$_0NS_9allocatorISD_EEEEOT_RKT0_', symObjAddr: 0x684, symBinAddr: 0x100003018, symSize: 0x94 }
  - { offsetInCU: 0x28A80, offset: 0x28A80, size: 0x8, addend: 0x0, symName: '__ZNSt3__19allocatorINS_10__function6__funcIZN8MQTTPlus6Client11ProcessDataEPciE3$_0NS0_IS6_EEFvR3RefIN4MQTT7MessageEEEEEEC1B8ue170006IS6_EERKNS0_IT_EE', symObjAddr: 0x730, symBinAddr: 0x1000030C4, symSize: 0x34 }
  - { offsetInCU: 0x28AC9, offset: 0x28AC9, size: 0x8, addend: 0x0, symName: '__ZNSt3__19allocatorIZN8MQTTPlus6Client11ProcessDataEPciE3$_0EC1B8ue170006INS_10__function6__funcIS4_S5_FvR3RefIN4MQTT7MessageEEEEEEERKNS0_IT_EE', symObjAddr: 0x764, symBinAddr: 0x1000030F8, symSize: 0x34 }
  - { offsetInCU: 0x28B06, offset: 0x28B06, size: 0x8, addend: 0x0, symName: '__ZNSt3__110__function6__funcIZN8MQTTPlus6Client11ProcessDataEPciE3$_0NS_9allocatorIS5_EEFvR3RefIN4MQTT7MessageEEEEC1B8ue170006EOS5_OS7_', symObjAddr: 0x798, symBinAddr: 0x10000312C, symSize: 0x3C }
  - { offsetInCU: 0x28B4E, offset: 0x28B4E, size: 0x8, addend: 0x0, symName: '__ZNSt3__19allocatorINS_10__function6__funcIZN8MQTTPlus6Client11ProcessDataEPciE3$_0NS0_IS6_EEFvR3RefIN4MQTT7MessageEEEEEEC2B8ue170006IS6_EERKNS0_IT_EE', symObjAddr: 0x7D4, symBinAddr: 0x100003168, symSize: 0x30 }
  - { offsetInCU: 0x28B8B, offset: 0x28B8B, size: 0x8, addend: 0x0, symName: '__ZNSt3__116__non_trivial_ifILb1ENS_9allocatorINS_10__function6__funcIZN8MQTTPlus6Client11ProcessDataEPciE3$_0NS1_IS7_EEFvR3RefIN4MQTT7MessageEEEEEEEEC2B8ue170006Ev', symObjAddr: 0x804, symBinAddr: 0x100003198, symSize: 0x14 }
  - { offsetInCU: 0x28BB5, offset: 0x28BB5, size: 0x8, addend: 0x0, symName: '__ZNSt3__19allocatorIZN8MQTTPlus6Client11ProcessDataEPciE3$_0EC2B8ue170006INS_10__function6__funcIS4_S5_FvR3RefIN4MQTT7MessageEEEEEEERKNS0_IT_EE', symObjAddr: 0x818, symBinAddr: 0x1000031AC, symSize: 0x30 }
  - { offsetInCU: 0x28BF2, offset: 0x28BF2, size: 0x8, addend: 0x0, symName: '__ZNSt3__110__function6__funcIZN8MQTTPlus6Client11ProcessDataEPciE3$_0NS_9allocatorIS5_EEFvR3RefIN4MQTT7MessageEEEEC2B8ue170006EOS5_OS7_', symObjAddr: 0x848, symBinAddr: 0x1000031DC, symSize: 0x88 }
  - { offsetInCU: 0x28C3A, offset: 0x28C3A, size: 0x8, addend: 0x0, symName: __ZNSt3__110__function6__baseIFvR3RefIN4MQTT7MessageEEEEC2B8ue170006Ev, symObjAddr: 0x8D0, symBinAddr: 0x100003264, symSize: 0x24 }
  - { offsetInCU: 0x28C64, offset: 0x28C64, size: 0x8, addend: 0x0, symName: '__ZNSt3__110__function12__alloc_funcIZN8MQTTPlus6Client11ProcessDataEPciE3$_0NS_9allocatorIS5_EEFvR3RefIN4MQTT7MessageEEEEC1B8ue170006EOS5_OS7_', symObjAddr: 0x8F4, symBinAddr: 0x100003288, symSize: 0x3C }
  - { offsetInCU: 0x28CAA, offset: 0x28CAA, size: 0x8, addend: 0x0, symName: __ZNSt3__110__function6__baseIFvR3RefIN4MQTT7MessageEEEED2Ev, symObjAddr: 0x930, symBinAddr: 0x1000032C4, symSize: 0x14 }
  - { offsetInCU: 0x28CD4, offset: 0x28CD4, size: 0x8, addend: 0x0, symName: '__ZNSt3__110__function6__funcIZN8MQTTPlus6Client11ProcessDataEPciE3$_0NS_9allocatorIS5_EEFvR3RefIN4MQTT7MessageEEEED1Ev', symObjAddr: 0x944, symBinAddr: 0x1000032D8, symSize: 0x2C }
  - { offsetInCU: 0x28D01, offset: 0x28D01, size: 0x8, addend: 0x0, symName: '__ZNSt3__110__function6__funcIZN8MQTTPlus6Client11ProcessDataEPciE3$_0NS_9allocatorIS5_EEFvR3RefIN4MQTT7MessageEEEED0Ev', symObjAddr: 0x970, symBinAddr: 0x100003304, symSize: 0x30 }
  - { offsetInCU: 0x28D2E, offset: 0x28D2E, size: 0x8, addend: 0x0, symName: '__ZNKSt3__110__function6__funcIZN8MQTTPlus6Client11ProcessDataEPciE3$_0NS_9allocatorIS5_EEFvR3RefIN4MQTT7MessageEEEE7__cloneEv', symObjAddr: 0x9A0, symBinAddr: 0x100003334, symSize: 0xFC }
  - { offsetInCU: 0x28D80, offset: 0x28D80, size: 0x8, addend: 0x0, symName: '__ZNKSt3__110__function6__funcIZN8MQTTPlus6Client11ProcessDataEPciE3$_0NS_9allocatorIS5_EEFvR3RefIN4MQTT7MessageEEEE7__cloneEPNS0_6__baseISD_EE', symObjAddr: 0xA9C, symBinAddr: 0x100003430, symSize: 0x58 }
  - { offsetInCU: 0x28DB7, offset: 0x28DB7, size: 0x8, addend: 0x0, symName: '__ZNSt3__110__function6__funcIZN8MQTTPlus6Client11ProcessDataEPciE3$_0NS_9allocatorIS5_EEFvR3RefIN4MQTT7MessageEEEE7destroyEv', symObjAddr: 0xAF4, symBinAddr: 0x100003488, symSize: 0x28 }
  - { offsetInCU: 0x28DDF, offset: 0x28DDF, size: 0x8, addend: 0x0, symName: '__ZNSt3__110__function6__funcIZN8MQTTPlus6Client11ProcessDataEPciE3$_0NS_9allocatorIS5_EEFvR3RefIN4MQTT7MessageEEEE18destroy_deallocateEv', symObjAddr: 0xB1C, symBinAddr: 0x1000034B0, symSize: 0x58 }
  - { offsetInCU: 0x28E22, offset: 0x28E22, size: 0x8, addend: 0x0, symName: '__ZNSt3__110__function6__funcIZN8MQTTPlus6Client11ProcessDataEPciE3$_0NS_9allocatorIS5_EEFvR3RefIN4MQTT7MessageEEEEclESC_', symObjAddr: 0xB74, symBinAddr: 0x100003508, symSize: 0x30 }
  - { offsetInCU: 0x28E59, offset: 0x28E59, size: 0x8, addend: 0x0, symName: '__ZNKSt3__110__function6__funcIZN8MQTTPlus6Client11ProcessDataEPciE3$_0NS_9allocatorIS5_EEFvR3RefIN4MQTT7MessageEEEE6targetERKSt9type_info', symObjAddr: 0xBA4, symBinAddr: 0x100003538, symSize: 0x60 }
  - { offsetInCU: 0x28E90, offset: 0x28E90, size: 0x8, addend: 0x0, symName: '__ZNKSt3__110__function6__funcIZN8MQTTPlus6Client11ProcessDataEPciE3$_0NS_9allocatorIS5_EEFvR3RefIN4MQTT7MessageEEEE11target_typeEv', symObjAddr: 0xC04, symBinAddr: 0x100003598, symSize: 0x18 }
  - { offsetInCU: 0x28EB8, offset: 0x28EB8, size: 0x8, addend: 0x0, symName: __ZNSt3__110__function6__baseIFvR3RefIN4MQTT7MessageEEEED1Ev, symObjAddr: 0xC1C, symBinAddr: 0x1000035B0, symSize: 0x14 }
  - { offsetInCU: 0x28EE2, offset: 0x28EE2, size: 0x8, addend: 0x0, symName: __ZNSt3__110__function6__baseIFvR3RefIN4MQTT7MessageEEEED0Ev, symObjAddr: 0xC30, symBinAddr: 0x1000035C4, symSize: 0xC }
  - { offsetInCU: 0x28F0C, offset: 0x28F0C, size: 0x8, addend: 0x0, symName: '__ZNSt3__110__function12__alloc_funcIZN8MQTTPlus6Client11ProcessDataEPciE3$_0NS_9allocatorIS5_EEFvR3RefIN4MQTT7MessageEEEEC2B8ue170006EOS5_OS7_', symObjAddr: 0xC3C, symBinAddr: 0x1000035D0, symSize: 0x5C }
  - { offsetInCU: 0x28F52, offset: 0x28F52, size: 0x8, addend: 0x0, symName: '__ZNSt3__117__compressed_pairIZN8MQTTPlus6Client11ProcessDataEPciE3$_0NS_9allocatorIS4_EEEC1B8ue170006IJOS4_EJOS6_EEENS_21piecewise_construct_tENS_5tupleIJDpT_EEENSC_IJDpT0_EEE', symObjAddr: 0xCF0, symBinAddr: 0x100003684, symSize: 0x3C }
  - { offsetInCU: 0x28FBC, offset: 0x28FBC, size: 0x8, addend: 0x0, symName: '__ZNSt3__15tupleIJOZN8MQTTPlus6Client11ProcessDataEPciE3$_0EEC1B8ue170006IJS4_ELi0EEEDpOT_', symObjAddr: 0xD2C, symBinAddr: 0x1000036C0, symSize: 0x34 }
  - { offsetInCU: 0x29006, offset: 0x29006, size: 0x8, addend: 0x0, symName: '__ZNSt3__15tupleIJOZN8MQTTPlus6Client11ProcessDataEPciE3$_0EEC2B8ue170006IJS4_ELi0EEEDpOT_', symObjAddr: 0xD60, symBinAddr: 0x1000036F4, symSize: 0x34 }
  - { offsetInCU: 0x29050, offset: 0x29050, size: 0x8, addend: 0x0, symName: '__ZNSt3__112__tuple_implINS_15__tuple_indicesIJLm0EEEEJOZN8MQTTPlus6Client11ProcessDataEPciE3$_0EEC1B8ue170006IJLm0EEJS7_EJEJEJS6_EEENS1_IJXspT_EEEENS_13__tuple_typesIJDpT0_EEENS1_IJXspT1_EEEENSB_IJDpT2_EEEDpOT3_', symObjAddr: 0xD94, symBinAddr: 0x100003728, symSize: 0x34 }
  - { offsetInCU: 0x290E5, offset: 0x290E5, size: 0x8, addend: 0x0, symName: '__ZNSt3__112__tuple_implINS_15__tuple_indicesIJLm0EEEEJOZN8MQTTPlus6Client11ProcessDataEPciE3$_0EEC2B8ue170006IJLm0EEJS7_EJEJEJS6_EEENS1_IJXspT_EEEENS_13__tuple_typesIJDpT0_EEENS1_IJXspT1_EEEENSB_IJDpT2_EEEDpOT3_', symObjAddr: 0xDC8, symBinAddr: 0x10000375C, symSize: 0x34 }
  - { offsetInCU: 0x2917A, offset: 0x2917A, size: 0x8, addend: 0x0, symName: '__ZNSt3__112__tuple_leafILm0EOZN8MQTTPlus6Client11ProcessDataEPciE3$_0Lb0EEC2B8ue170006IS4_vEEOT_', symObjAddr: 0xDFC, symBinAddr: 0x100003790, symSize: 0x20 }
  - { offsetInCU: 0x291BD, offset: 0x291BD, size: 0x8, addend: 0x0, symName: '__ZNSt3__15tupleIJONS_9allocatorIZN8MQTTPlus6Client11ProcessDataEPciE3$_0EEEEC1B8ue170006IJS6_ELi0EEEDpOT_', symObjAddr: 0xE1C, symBinAddr: 0x1000037B0, symSize: 0x34 }
  - { offsetInCU: 0x29207, offset: 0x29207, size: 0x8, addend: 0x0, symName: '__ZNSt3__15tupleIJONS_9allocatorIZN8MQTTPlus6Client11ProcessDataEPciE3$_0EEEEC2B8ue170006IJS6_ELi0EEEDpOT_', symObjAddr: 0xE50, symBinAddr: 0x1000037E4, symSize: 0x34 }
  - { offsetInCU: 0x29251, offset: 0x29251, size: 0x8, addend: 0x0, symName: '__ZNSt3__112__tuple_implINS_15__tuple_indicesIJLm0EEEEJONS_9allocatorIZN8MQTTPlus6Client11ProcessDataEPciE3$_0EEEEC1B8ue170006IJLm0EEJS9_EJEJEJS8_EEENS1_IJXspT_EEEENS_13__tuple_typesIJDpT0_EEENS1_IJXspT1_EEEENSD_IJDpT2_EEEDpOT3_', symObjAddr: 0xE84, symBinAddr: 0x100003818, symSize: 0x34 }
  - { offsetInCU: 0x292E6, offset: 0x292E6, size: 0x8, addend: 0x0, symName: '__ZNSt3__112__tuple_implINS_15__tuple_indicesIJLm0EEEEJONS_9allocatorIZN8MQTTPlus6Client11ProcessDataEPciE3$_0EEEEC2B8ue170006IJLm0EEJS9_EJEJEJS8_EEENS1_IJXspT_EEEENS_13__tuple_typesIJDpT0_EEENS1_IJXspT1_EEEENSD_IJDpT2_EEEDpOT3_', symObjAddr: 0xEB8, symBinAddr: 0x10000384C, symSize: 0x34 }
  - { offsetInCU: 0x2937B, offset: 0x2937B, size: 0x8, addend: 0x0, symName: '__ZNSt3__112__tuple_leafILm0EONS_9allocatorIZN8MQTTPlus6Client11ProcessDataEPciE3$_0EELb0EEC2B8ue170006IS6_vEEOT_', symObjAddr: 0xEEC, symBinAddr: 0x100003880, symSize: 0x20 }
  - { offsetInCU: 0x293BE, offset: 0x293BE, size: 0x8, addend: 0x0, symName: '__ZNSt3__117__compressed_pairIZN8MQTTPlus6Client11ProcessDataEPciE3$_0NS_9allocatorIS4_EEEC2B8ue170006IJOS4_EJOS6_EEENS_21piecewise_construct_tENS_5tupleIJDpT_EEENSC_IJDpT0_EEE', symObjAddr: 0xF0C, symBinAddr: 0x1000038A0, symSize: 0x54 }
  - { offsetInCU: 0x29428, offset: 0x29428, size: 0x8, addend: 0x0, symName: '__ZNSt3__122__compressed_pair_elemIZN8MQTTPlus6Client11ProcessDataEPciE3$_0Li0ELb0EEC2B8ue170006IJOS4_EJLm0EEEENS_21piecewise_construct_tENS_5tupleIJDpT_EEENS_15__tuple_indicesIJXspT0_EEEE', symObjAddr: 0xF60, symBinAddr: 0x1000038F4, symSize: 0x44 }
  - { offsetInCU: 0x2948B, offset: 0x2948B, size: 0x8, addend: 0x0, symName: '__ZNSt3__122__compressed_pair_elemINS_9allocatorIZN8MQTTPlus6Client11ProcessDataEPciE3$_0EELi1ELb1EEC2B8ue170006IJOS6_EJLm0EEEENS_21piecewise_construct_tENS_5tupleIJDpT_EEENS_15__tuple_indicesIJXspT0_EEEE', symObjAddr: 0xFA4, symBinAddr: 0x100003938, symSize: 0x38 }
  - { offsetInCU: 0x294EE, offset: 0x294EE, size: 0x8, addend: 0x0, symName: '__ZNSt3__112__tuple_leafILm0EOZN8MQTTPlus6Client11ProcessDataEPciE3$_0Lb0EE3getB8ue170006Ev', symObjAddr: 0x1000, symBinAddr: 0x100003994, symSize: 0x18 }
  - { offsetInCU: 0x29514, offset: 0x29514, size: 0x8, addend: 0x0, symName: '__ZNSt3__112__tuple_leafILm0EONS_9allocatorIZN8MQTTPlus6Client11ProcessDataEPciE3$_0EELb0EE3getB8ue170006Ev', symObjAddr: 0x103C, symBinAddr: 0x1000039D0, symSize: 0x18 }
  - { offsetInCU: 0x2953A, offset: 0x2953A, size: 0x8, addend: 0x0, symName: '__ZNSt3__110__function6__funcIZN8MQTTPlus6Client11ProcessDataEPciE3$_0NS_9allocatorIS5_EEFvR3RefIN4MQTT7MessageEEEED2Ev', symObjAddr: 0x1054, symBinAddr: 0x1000039E8, symSize: 0x2C }
  - { offsetInCU: 0x29567, offset: 0x29567, size: 0x8, addend: 0x0, symName: '__ZNKSt3__110__function12__alloc_funcIZN8MQTTPlus6Client11ProcessDataEPciE3$_0NS_9allocatorIS5_EEFvR3RefIN4MQTT7MessageEEEE15__get_allocatorB8ue170006Ev', symObjAddr: 0x1080, symBinAddr: 0x100003A14, symSize: 0x24 }
  - { offsetInCU: 0x2958D, offset: 0x2958D, size: 0x8, addend: 0x0, symName: '__ZNSt3__19allocatorINS_10__function6__funcIZN8MQTTPlus6Client11ProcessDataEPciE3$_0NS0_IS6_EEFvR3RefIN4MQTT7MessageEEEEEE8allocateB8ue170006Em', symObjAddr: 0x10A4, symBinAddr: 0x100003A38, symSize: 0x58 }
  - { offsetInCU: 0x295D3, offset: 0x295D3, size: 0x8, addend: 0x0, symName: '__ZNSt3__122__allocator_destructorINS_9allocatorINS_10__function6__funcIZN8MQTTPlus6Client11ProcessDataEPciE3$_0NS1_IS7_EEFvR3RefIN4MQTT7MessageEEEEEEEEC1B8ue170006ERSG_m', symObjAddr: 0x10FC, symBinAddr: 0x100003A90, symSize: 0x3C }
  - { offsetInCU: 0x296C7, offset: 0x296C7, size: 0x8, addend: 0x0, symName: '__ZNSt3__110unique_ptrINS_10__function6__funcIZN8MQTTPlus6Client11ProcessDataEPciE3$_0NS_9allocatorIS6_EEFvR3RefIN4MQTT7MessageEEEEENS_22__allocator_destructorINS7_ISF_EEEEEC1B8ue170006ILb1EvEEPSF_NS_16__dependent_typeINS_27__unique_ptr_deleter_sfinaeISI_EEXT_EE20__good_rval_ref_typeE', symObjAddr: 0x1138, symBinAddr: 0x100003ACC, symSize: 0x3C }
  - { offsetInCU: 0x29718, offset: 0x29718, size: 0x8, addend: 0x0, symName: '__ZNKSt3__110unique_ptrINS_10__function6__funcIZN8MQTTPlus6Client11ProcessDataEPciE3$_0NS_9allocatorIS6_EEFvR3RefIN4MQTT7MessageEEEEENS_22__allocator_destructorINS7_ISF_EEEEE3getB8ue170006Ev', symObjAddr: 0x1174, symBinAddr: 0x100003B08, symSize: 0x28 }
  - { offsetInCU: 0x2973E, offset: 0x2973E, size: 0x8, addend: 0x0, symName: '__ZNKSt3__110__function12__alloc_funcIZN8MQTTPlus6Client11ProcessDataEPciE3$_0NS_9allocatorIS5_EEFvR3RefIN4MQTT7MessageEEEE8__targetB8ue170006Ev', symObjAddr: 0x119C, symBinAddr: 0x100003B30, symSize: 0x24 }
  - { offsetInCU: 0x29764, offset: 0x29764, size: 0x8, addend: 0x0, symName: '__ZNSt3__110__function6__funcIZN8MQTTPlus6Client11ProcessDataEPciE3$_0NS_9allocatorIS5_EEFvR3RefIN4MQTT7MessageEEEEC1B8ue170006ERKS5_OS7_', symObjAddr: 0x11C0, symBinAddr: 0x100003B54, symSize: 0x3C }
  - { offsetInCU: 0x297AC, offset: 0x297AC, size: 0x8, addend: 0x0, symName: '__ZNSt3__110unique_ptrINS_10__function6__funcIZN8MQTTPlus6Client11ProcessDataEPciE3$_0NS_9allocatorIS6_EEFvR3RefIN4MQTT7MessageEEEEENS_22__allocator_destructorINS7_ISF_EEEEE7releaseB8ue170006Ev', symObjAddr: 0x11FC, symBinAddr: 0x100003B90, symSize: 0x44 }
  - { offsetInCU: 0x297E1, offset: 0x297E1, size: 0x8, addend: 0x0, symName: '__ZNSt3__110unique_ptrINS_10__function6__funcIZN8MQTTPlus6Client11ProcessDataEPciE3$_0NS_9allocatorIS6_EEFvR3RefIN4MQTT7MessageEEEEENS_22__allocator_destructorINS7_ISF_EEEEED1B8ue170006Ev', symObjAddr: 0x1240, symBinAddr: 0x100003BD4, symSize: 0x2C }
  - { offsetInCU: 0x2980B, offset: 0x2980B, size: 0x8, addend: 0x0, symName: '__ZNKSt3__117__compressed_pairIZN8MQTTPlus6Client11ProcessDataEPciE3$_0NS_9allocatorIS4_EEE6secondB8ue170006Ev', symObjAddr: 0x126C, symBinAddr: 0x100003C00, symSize: 0x24 }
  - { offsetInCU: 0x29831, offset: 0x29831, size: 0x8, addend: 0x0, symName: '__ZNKSt3__122__compressed_pair_elemINS_9allocatorIZN8MQTTPlus6Client11ProcessDataEPciE3$_0EELi1ELb1EE5__getB8ue170006Ev', symObjAddr: 0x1290, symBinAddr: 0x100003C24, symSize: 0x14 }
  - { offsetInCU: 0x29863, offset: 0x29863, size: 0x8, addend: 0x0, symName: '__ZNSt3__116allocator_traitsINS_9allocatorINS_10__function6__funcIZN8MQTTPlus6Client11ProcessDataEPciE3$_0NS1_IS7_EEFvR3RefIN4MQTT7MessageEEEEEEEE8max_sizeB8ue170006ISG_vvEEmRKSG_', symObjAddr: 0x12A4, symBinAddr: 0x100003C38, symSize: 0x28 }
  - { offsetInCU: 0x2988F, offset: 0x2988F, size: 0x8, addend: 0x0, symName: __ZNSt3__114numeric_limitsImE3maxB8ue170006Ev, symObjAddr: 0x1360, symBinAddr: 0x100003CF4, symSize: 0x14 }
  - { offsetInCU: 0x298A3, offset: 0x298A3, size: 0x8, addend: 0x0, symName: __ZNSt3__123__libcpp_numeric_limitsImLb1EE3maxB8ue170006Ev, symObjAddr: 0x1374, symBinAddr: 0x100003D08, symSize: 0x8 }
  - { offsetInCU: 0x298B7, offset: 0x298B7, size: 0x8, addend: 0x0, symName: '__ZNSt3__122__allocator_destructorINS_9allocatorINS_10__function6__funcIZN8MQTTPlus6Client11ProcessDataEPciE3$_0NS1_IS7_EEFvR3RefIN4MQTT7MessageEEEEEEEEC2B8ue170006ERSG_m', symObjAddr: 0x13EC, symBinAddr: 0x100003D80, symSize: 0x2C }
  - { offsetInCU: 0x298FD, offset: 0x298FD, size: 0x8, addend: 0x0, symName: '__ZNSt3__110unique_ptrINS_10__function6__funcIZN8MQTTPlus6Client11ProcessDataEPciE3$_0NS_9allocatorIS6_EEFvR3RefIN4MQTT7MessageEEEEENS_22__allocator_destructorINS7_ISF_EEEEEC2B8ue170006ILb1EvEEPSF_NS_16__dependent_typeINS_27__unique_ptr_deleter_sfinaeISI_EEXT_EE20__good_rval_ref_typeE', symObjAddr: 0x1418, symBinAddr: 0x100003DAC, symSize: 0x48 }
  - { offsetInCU: 0x2994E, offset: 0x2994E, size: 0x8, addend: 0x0, symName: '__ZNSt3__117__compressed_pairIPNS_10__function6__funcIZN8MQTTPlus6Client11ProcessDataEPciE3$_0NS_9allocatorIS6_EEFvR3RefIN4MQTT7MessageEEEEENS_22__allocator_destructorINS7_ISF_EEEEEC1B8ue170006IRSG_SJ_EEOT_OT0_', symObjAddr: 0x1460, symBinAddr: 0x100003DF4, symSize: 0x3C }
  - { offsetInCU: 0x299A6, offset: 0x299A6, size: 0x8, addend: 0x0, symName: '__ZNSt3__117__compressed_pairIPNS_10__function6__funcIZN8MQTTPlus6Client11ProcessDataEPciE3$_0NS_9allocatorIS6_EEFvR3RefIN4MQTT7MessageEEEEENS_22__allocator_destructorINS7_ISF_EEEEEC2B8ue170006IRSG_SJ_EEOT_OT0_', symObjAddr: 0x149C, symBinAddr: 0x100003E30, symSize: 0x48 }
  - { offsetInCU: 0x299FE, offset: 0x299FE, size: 0x8, addend: 0x0, symName: '__ZNSt3__122__compressed_pair_elemIPNS_10__function6__funcIZN8MQTTPlus6Client11ProcessDataEPciE3$_0NS_9allocatorIS6_EEFvR3RefIN4MQTT7MessageEEEEELi0ELb0EEC2B8ue170006IRSG_vEEOT_', symObjAddr: 0x14E4, symBinAddr: 0x100003E78, symSize: 0x24 }
  - { offsetInCU: 0x29A40, offset: 0x29A40, size: 0x8, addend: 0x0, symName: '__ZNSt3__122__compressed_pair_elemINS_22__allocator_destructorINS_9allocatorINS_10__function6__funcIZN8MQTTPlus6Client11ProcessDataEPciE3$_0NS2_IS8_EEFvR3RefIN4MQTT7MessageEEEEEEEEELi1ELb0EEC2B8ue170006ISI_vEEOT_', symObjAddr: 0x1508, symBinAddr: 0x100003E9C, symSize: 0x24 }
  - { offsetInCU: 0x29A82, offset: 0x29A82, size: 0x8, addend: 0x0, symName: '__ZNKSt3__117__compressed_pairIPNS_10__function6__funcIZN8MQTTPlus6Client11ProcessDataEPciE3$_0NS_9allocatorIS6_EEFvR3RefIN4MQTT7MessageEEEEENS_22__allocator_destructorINS7_ISF_EEEEE5firstB8ue170006Ev', symObjAddr: 0x152C, symBinAddr: 0x100003EC0, symSize: 0x24 }
  - { offsetInCU: 0x29AA8, offset: 0x29AA8, size: 0x8, addend: 0x0, symName: '__ZNKSt3__122__compressed_pair_elemIPNS_10__function6__funcIZN8MQTTPlus6Client11ProcessDataEPciE3$_0NS_9allocatorIS6_EEFvR3RefIN4MQTT7MessageEEEEELi0ELb0EE5__getB8ue170006Ev', symObjAddr: 0x1550, symBinAddr: 0x100003EE4, symSize: 0x14 }
  - { offsetInCU: 0x29ACE, offset: 0x29ACE, size: 0x8, addend: 0x0, symName: '__ZNKSt3__117__compressed_pairIZN8MQTTPlus6Client11ProcessDataEPciE3$_0NS_9allocatorIS4_EEE5firstB8ue170006Ev', symObjAddr: 0x1564, symBinAddr: 0x100003EF8, symSize: 0x24 }
  - { offsetInCU: 0x29AF4, offset: 0x29AF4, size: 0x8, addend: 0x0, symName: '__ZNKSt3__122__compressed_pair_elemIZN8MQTTPlus6Client11ProcessDataEPciE3$_0Li0ELb0EE5__getB8ue170006Ev', symObjAddr: 0x1588, symBinAddr: 0x100003F1C, symSize: 0x14 }
  - { offsetInCU: 0x29B1A, offset: 0x29B1A, size: 0x8, addend: 0x0, symName: '__ZNSt3__110__function6__funcIZN8MQTTPlus6Client11ProcessDataEPciE3$_0NS_9allocatorIS5_EEFvR3RefIN4MQTT7MessageEEEEC2B8ue170006ERKS5_OS7_', symObjAddr: 0x159C, symBinAddr: 0x100003F30, symSize: 0x88 }
  - { offsetInCU: 0x29B62, offset: 0x29B62, size: 0x8, addend: 0x0, symName: '__ZNSt3__110__function12__alloc_funcIZN8MQTTPlus6Client11ProcessDataEPciE3$_0NS_9allocatorIS5_EEFvR3RefIN4MQTT7MessageEEEEC1B8ue170006ERKS5_OS7_', symObjAddr: 0x1624, symBinAddr: 0x100003FB8, symSize: 0x3C }
  - { offsetInCU: 0x29BA8, offset: 0x29BA8, size: 0x8, addend: 0x0, symName: '__ZNSt3__110__function12__alloc_funcIZN8MQTTPlus6Client11ProcessDataEPciE3$_0NS_9allocatorIS5_EEFvR3RefIN4MQTT7MessageEEEEC2B8ue170006ERKS5_OS7_', symObjAddr: 0x1660, symBinAddr: 0x100003FF4, symSize: 0x5C }
  - { offsetInCU: 0x29BEE, offset: 0x29BEE, size: 0x8, addend: 0x0, symName: '__ZNSt3__117__compressed_pairIZN8MQTTPlus6Client11ProcessDataEPciE3$_0NS_9allocatorIS4_EEEC1B8ue170006IJRKS4_EJOS6_EEENS_21piecewise_construct_tENS_5tupleIJDpT_EEENSD_IJDpT0_EEE', symObjAddr: 0x16E8, symBinAddr: 0x10000407C, symSize: 0x3C }
  - { offsetInCU: 0x29C58, offset: 0x29C58, size: 0x8, addend: 0x0, symName: '__ZNSt3__15tupleIJRKZN8MQTTPlus6Client11ProcessDataEPciE3$_0EEC1B8ue170006INS_4_AndELi0EEES6_', symObjAddr: 0x1724, symBinAddr: 0x1000040B8, symSize: 0x34 }
  - { offsetInCU: 0x29CA0, offset: 0x29CA0, size: 0x8, addend: 0x0, symName: '__ZNSt3__15tupleIJRKZN8MQTTPlus6Client11ProcessDataEPciE3$_0EEC2B8ue170006INS_4_AndELi0EEES6_', symObjAddr: 0x1758, symBinAddr: 0x1000040EC, symSize: 0x34 }
  - { offsetInCU: 0x29CE8, offset: 0x29CE8, size: 0x8, addend: 0x0, symName: '__ZNSt3__112__tuple_implINS_15__tuple_indicesIJLm0EEEEJRKZN8MQTTPlus6Client11ProcessDataEPciE3$_0EEC1B8ue170006IJLm0EEJS8_EJEJEJS8_EEENS1_IJXspT_EEEENS_13__tuple_typesIJDpT0_EEENS1_IJXspT1_EEEENSC_IJDpT2_EEEDpOT3_', symObjAddr: 0x178C, symBinAddr: 0x100004120, symSize: 0x34 }
  - { offsetInCU: 0x29D7D, offset: 0x29D7D, size: 0x8, addend: 0x0, symName: '__ZNSt3__112__tuple_implINS_15__tuple_indicesIJLm0EEEEJRKZN8MQTTPlus6Client11ProcessDataEPciE3$_0EEC2B8ue170006IJLm0EEJS8_EJEJEJS8_EEENS1_IJXspT_EEEENS_13__tuple_typesIJDpT0_EEENS1_IJXspT1_EEEENSC_IJDpT2_EEEDpOT3_', symObjAddr: 0x17C0, symBinAddr: 0x100004154, symSize: 0x34 }
  - { offsetInCU: 0x29E12, offset: 0x29E12, size: 0x8, addend: 0x0, symName: '__ZNSt3__112__tuple_leafILm0ERKZN8MQTTPlus6Client11ProcessDataEPciE3$_0Lb0EEC2B8ue170006IS6_vEEOT_', symObjAddr: 0x17F4, symBinAddr: 0x100004188, symSize: 0x20 }
  - { offsetInCU: 0x29E55, offset: 0x29E55, size: 0x8, addend: 0x0, symName: '__ZNSt3__117__compressed_pairIZN8MQTTPlus6Client11ProcessDataEPciE3$_0NS_9allocatorIS4_EEEC2B8ue170006IJRKS4_EJOS6_EEENS_21piecewise_construct_tENS_5tupleIJDpT_EEENSD_IJDpT0_EEE', symObjAddr: 0x1814, symBinAddr: 0x1000041A8, symSize: 0x54 }
  - { offsetInCU: 0x29EBF, offset: 0x29EBF, size: 0x8, addend: 0x0, symName: '__ZNSt3__122__compressed_pair_elemIZN8MQTTPlus6Client11ProcessDataEPciE3$_0Li0ELb0EEC2B8ue170006IJRKS4_EJLm0EEEENS_21piecewise_construct_tENS_5tupleIJDpT_EEENS_15__tuple_indicesIJXspT0_EEEE', symObjAddr: 0x1868, symBinAddr: 0x1000041FC, symSize: 0x44 }
  - { offsetInCU: 0x29F22, offset: 0x29F22, size: 0x8, addend: 0x0, symName: '__ZNSt3__112__tuple_leafILm0ERKZN8MQTTPlus6Client11ProcessDataEPciE3$_0Lb0EE3getB8ue170006Ev', symObjAddr: 0x18D0, symBinAddr: 0x100004264, symSize: 0x18 }
  - { offsetInCU: 0x29F48, offset: 0x29F48, size: 0x8, addend: 0x0, symName: '__ZNSt3__117__compressed_pairIPNS_10__function6__funcIZN8MQTTPlus6Client11ProcessDataEPciE3$_0NS_9allocatorIS6_EEFvR3RefIN4MQTT7MessageEEEEENS_22__allocator_destructorINS7_ISF_EEEEE5firstB8ue170006Ev', symObjAddr: 0x18E8, symBinAddr: 0x10000427C, symSize: 0x24 }
  - { offsetInCU: 0x29F6E, offset: 0x29F6E, size: 0x8, addend: 0x0, symName: '__ZNSt3__122__compressed_pair_elemIPNS_10__function6__funcIZN8MQTTPlus6Client11ProcessDataEPciE3$_0NS_9allocatorIS6_EEFvR3RefIN4MQTT7MessageEEEEELi0ELb0EE5__getB8ue170006Ev', symObjAddr: 0x190C, symBinAddr: 0x1000042A0, symSize: 0x14 }
  - { offsetInCU: 0x29F94, offset: 0x29F94, size: 0x8, addend: 0x0, symName: '__ZNSt3__110unique_ptrINS_10__function6__funcIZN8MQTTPlus6Client11ProcessDataEPciE3$_0NS_9allocatorIS6_EEFvR3RefIN4MQTT7MessageEEEEENS_22__allocator_destructorINS7_ISF_EEEEED2B8ue170006Ev', symObjAddr: 0x1920, symBinAddr: 0x1000042B4, symSize: 0x30 }
  - { offsetInCU: 0x29FBE, offset: 0x29FBE, size: 0x8, addend: 0x0, symName: '__ZNSt3__110unique_ptrINS_10__function6__funcIZN8MQTTPlus6Client11ProcessDataEPciE3$_0NS_9allocatorIS6_EEFvR3RefIN4MQTT7MessageEEEEENS_22__allocator_destructorINS7_ISF_EEEEE5resetB8ue170006EPSF_', symObjAddr: 0x1950, symBinAddr: 0x1000042E4, symSize: 0x78 }
  - { offsetInCU: 0x2A002, offset: 0x2A002, size: 0x8, addend: 0x0, symName: '__ZNSt3__117__compressed_pairIPNS_10__function6__funcIZN8MQTTPlus6Client11ProcessDataEPciE3$_0NS_9allocatorIS6_EEFvR3RefIN4MQTT7MessageEEEEENS_22__allocator_destructorINS7_ISF_EEEEE6secondB8ue170006Ev', symObjAddr: 0x19C8, symBinAddr: 0x10000435C, symSize: 0x28 }
  - { offsetInCU: 0x2A028, offset: 0x2A028, size: 0x8, addend: 0x0, symName: '__ZNSt3__122__allocator_destructorINS_9allocatorINS_10__function6__funcIZN8MQTTPlus6Client11ProcessDataEPciE3$_0NS1_IS7_EEFvR3RefIN4MQTT7MessageEEEEEEEEclB8ue170006EPSF_', symObjAddr: 0x19F0, symBinAddr: 0x100004384, symSize: 0x34 }
  - { offsetInCU: 0x2A05C, offset: 0x2A05C, size: 0x8, addend: 0x0, symName: '__ZNSt3__122__compressed_pair_elemINS_22__allocator_destructorINS_9allocatorINS_10__function6__funcIZN8MQTTPlus6Client11ProcessDataEPciE3$_0NS2_IS8_EEFvR3RefIN4MQTT7MessageEEEEEEEEELi1ELb0EE5__getB8ue170006Ev', symObjAddr: 0x1A24, symBinAddr: 0x1000043B8, symSize: 0x14 }
  - { offsetInCU: 0x2A082, offset: 0x2A082, size: 0x8, addend: 0x0, symName: '__ZNSt3__116allocator_traitsINS_9allocatorINS_10__function6__funcIZN8MQTTPlus6Client11ProcessDataEPciE3$_0NS1_IS7_EEFvR3RefIN4MQTT7MessageEEEEEEEE10deallocateB8ue170006ERSG_PSF_m', symObjAddr: 0x1A38, symBinAddr: 0x1000043CC, symSize: 0x34 }
  - { offsetInCU: 0x2A0C4, offset: 0x2A0C4, size: 0x8, addend: 0x0, symName: '__ZNSt3__19allocatorINS_10__function6__funcIZN8MQTTPlus6Client11ProcessDataEPciE3$_0NS0_IS6_EEFvR3RefIN4MQTT7MessageEEEEEE10deallocateB8ue170006EPSE_m', symObjAddr: 0x1A6C, symBinAddr: 0x100004400, symSize: 0x40 }
  - { offsetInCU: 0x2A106, offset: 0x2A106, size: 0x8, addend: 0x0, symName: '__ZNSt3__110__function6__funcIZN8MQTTPlus6Client11ProcessDataEPciE3$_0NS_9allocatorIS5_EEFvR3RefIN4MQTT7MessageEEEEC1B8ue170006ERKS5_RKS7_', symObjAddr: 0x1BB4, symBinAddr: 0x100004548, symSize: 0x3C }
  - { offsetInCU: 0x2A14E, offset: 0x2A14E, size: 0x8, addend: 0x0, symName: '__ZNSt3__110__function6__funcIZN8MQTTPlus6Client11ProcessDataEPciE3$_0NS_9allocatorIS5_EEFvR3RefIN4MQTT7MessageEEEEC2B8ue170006ERKS5_RKS7_', symObjAddr: 0x1BF0, symBinAddr: 0x100004584, symSize: 0x88 }
  - { offsetInCU: 0x2A196, offset: 0x2A196, size: 0x8, addend: 0x0, symName: '__ZNSt3__110__function12__alloc_funcIZN8MQTTPlus6Client11ProcessDataEPciE3$_0NS_9allocatorIS5_EEFvR3RefIN4MQTT7MessageEEEEC1B8ue170006ERKS5_RKS7_', symObjAddr: 0x1C78, symBinAddr: 0x10000460C, symSize: 0x3C }
  - { offsetInCU: 0x2A1DC, offset: 0x2A1DC, size: 0x8, addend: 0x0, symName: '__ZNSt3__110__function12__alloc_funcIZN8MQTTPlus6Client11ProcessDataEPciE3$_0NS_9allocatorIS5_EEFvR3RefIN4MQTT7MessageEEEEC2B8ue170006ERKS5_RKS7_', symObjAddr: 0x1CB4, symBinAddr: 0x100004648, symSize: 0x5C }
  - { offsetInCU: 0x2A222, offset: 0x2A222, size: 0x8, addend: 0x0, symName: '__ZNSt3__117__compressed_pairIZN8MQTTPlus6Client11ProcessDataEPciE3$_0NS_9allocatorIS4_EEEC1B8ue170006IJRKS4_EJRKS6_EEENS_21piecewise_construct_tENS_5tupleIJDpT_EEENSE_IJDpT0_EEE', symObjAddr: 0x1D3C, symBinAddr: 0x1000046D0, symSize: 0x3C }
  - { offsetInCU: 0x2A28C, offset: 0x2A28C, size: 0x8, addend: 0x0, symName: '__ZNSt3__15tupleIJRKNS_9allocatorIZN8MQTTPlus6Client11ProcessDataEPciE3$_0EEEEC1B8ue170006INS_4_AndELi0EEES8_', symObjAddr: 0x1D78, symBinAddr: 0x10000470C, symSize: 0x34 }
  - { offsetInCU: 0x2A2D4, offset: 0x2A2D4, size: 0x8, addend: 0x0, symName: '__ZNSt3__15tupleIJRKNS_9allocatorIZN8MQTTPlus6Client11ProcessDataEPciE3$_0EEEEC2B8ue170006INS_4_AndELi0EEES8_', symObjAddr: 0x1DAC, symBinAddr: 0x100004740, symSize: 0x34 }
  - { offsetInCU: 0x2A31C, offset: 0x2A31C, size: 0x8, addend: 0x0, symName: '__ZNSt3__112__tuple_implINS_15__tuple_indicesIJLm0EEEEJRKNS_9allocatorIZN8MQTTPlus6Client11ProcessDataEPciE3$_0EEEEC1B8ue170006IJLm0EEJSA_EJEJEJSA_EEENS1_IJXspT_EEEENS_13__tuple_typesIJDpT0_EEENS1_IJXspT1_EEEENSE_IJDpT2_EEEDpOT3_', symObjAddr: 0x1DE0, symBinAddr: 0x100004774, symSize: 0x34 }
  - { offsetInCU: 0x2A3B1, offset: 0x2A3B1, size: 0x8, addend: 0x0, symName: '__ZNSt3__112__tuple_implINS_15__tuple_indicesIJLm0EEEEJRKNS_9allocatorIZN8MQTTPlus6Client11ProcessDataEPciE3$_0EEEEC2B8ue170006IJLm0EEJSA_EJEJEJSA_EEENS1_IJXspT_EEEENS_13__tuple_typesIJDpT0_EEENS1_IJXspT1_EEEENSE_IJDpT2_EEEDpOT3_', symObjAddr: 0x1E14, symBinAddr: 0x1000047A8, symSize: 0x34 }
  - { offsetInCU: 0x2A446, offset: 0x2A446, size: 0x8, addend: 0x0, symName: '__ZNSt3__112__tuple_leafILm0ERKNS_9allocatorIZN8MQTTPlus6Client11ProcessDataEPciE3$_0EELb0EEC2B8ue170006IS8_vEEOT_', symObjAddr: 0x1E48, symBinAddr: 0x1000047DC, symSize: 0x20 }
  - { offsetInCU: 0x2A489, offset: 0x2A489, size: 0x8, addend: 0x0, symName: '__ZNSt3__117__compressed_pairIZN8MQTTPlus6Client11ProcessDataEPciE3$_0NS_9allocatorIS4_EEEC2B8ue170006IJRKS4_EJRKS6_EEENS_21piecewise_construct_tENS_5tupleIJDpT_EEENSE_IJDpT0_EEE', symObjAddr: 0x1E68, symBinAddr: 0x1000047FC, symSize: 0x54 }
  - { offsetInCU: 0x2A4F3, offset: 0x2A4F3, size: 0x8, addend: 0x0, symName: '__ZNSt3__122__compressed_pair_elemINS_9allocatorIZN8MQTTPlus6Client11ProcessDataEPciE3$_0EELi1ELb1EEC2B8ue170006IJRKS6_EJLm0EEEENS_21piecewise_construct_tENS_5tupleIJDpT_EEENS_15__tuple_indicesIJXspT0_EEEE', symObjAddr: 0x1EBC, symBinAddr: 0x100004850, symSize: 0x38 }
  - { offsetInCU: 0x2A556, offset: 0x2A556, size: 0x8, addend: 0x0, symName: '__ZNSt3__112__tuple_leafILm0ERKNS_9allocatorIZN8MQTTPlus6Client11ProcessDataEPciE3$_0EELb0EE3getB8ue170006Ev', symObjAddr: 0x1F18, symBinAddr: 0x1000048AC, symSize: 0x18 }
  - { offsetInCU: 0x2A57C, offset: 0x2A57C, size: 0x8, addend: 0x0, symName: '__ZNSt3__110__function12__alloc_funcIZN8MQTTPlus6Client11ProcessDataEPciE3$_0NS_9allocatorIS5_EEFvR3RefIN4MQTT7MessageEEEE7destroyB8ue170006Ev', symObjAddr: 0x1F30, symBinAddr: 0x1000048C4, symSize: 0x10 }
  - { offsetInCU: 0x2A5A2, offset: 0x2A5A2, size: 0x8, addend: 0x0, symName: '__ZNSt3__110__function12__alloc_funcIZN8MQTTPlus6Client11ProcessDataEPciE3$_0NS_9allocatorIS5_EEFvR3RefIN4MQTT7MessageEEEEclB8ue170006ESC_', symObjAddr: 0x1F40, symBinAddr: 0x1000048D4, symSize: 0x30 }
  - { offsetInCU: 0x2A5D6, offset: 0x2A5D6, size: 0x8, addend: 0x0, symName: '__ZNSt3__128__invoke_void_return_wrapperIvLb1EE6__callB8ue170006IJRZN8MQTTPlus6Client11ProcessDataEPciE3$_0R3RefIN4MQTT7MessageEEEEEvDpOT_', symObjAddr: 0x1F70, symBinAddr: 0x100004904, symSize: 0x2C }
  - { offsetInCU: 0x2A619, offset: 0x2A619, size: 0x8, addend: 0x0, symName: '__ZNSt3__117__compressed_pairIZN8MQTTPlus6Client11ProcessDataEPciE3$_0NS_9allocatorIS4_EEE5firstB8ue170006Ev', symObjAddr: 0x1F9C, symBinAddr: 0x100004930, symSize: 0x24 }
  - { offsetInCU: 0x2A719, offset: 0x2A719, size: 0x8, addend: 0x0, symName: '__ZZN8MQTTPlus6Client11ProcessDataEPciENK3$_0clE3RefIN4MQTT7MessageEE', symObjAddr: 0x2030, symBinAddr: 0x1000049C4, symSize: 0x3CC }
  - { offsetInCU: 0x2A860, offset: 0x2A860, size: 0x8, addend: 0x0, symName: __ZN3RefIN4MQTT7MessageEEptEv, symObjAddr: 0x2448, symBinAddr: 0x100004DDC, symSize: 0x18 }
  - { offsetInCU: 0x2A886, offset: 0x2A886, size: 0x8, addend: 0x0, symName: __ZNSt3__113basic_ostreamIcNS_11char_traitsIcEEElsB8ue170006EPFRS3_S4_E, symObjAddr: 0x2460, symBinAddr: 0x100004DF4, symSize: 0x2C }
  - { offsetInCU: 0x2A8BA, offset: 0x2A8BA, size: 0x8, addend: 0x0, symName: __ZNK3RefIN4MQTT7MessageEE2AsINS0_14ConnectMessageEEES_IT_Ev, symObjAddr: 0x24E4, symBinAddr: 0x100004E78, symSize: 0x38 }
  - { offsetInCU: 0x2A8E9, offset: 0x2A8E9, size: 0x8, addend: 0x0, symName: __ZN3RefIN8MQTTPlus6ClientEEC1EPS1_, symObjAddr: 0x251C, symBinAddr: 0x100004EB0, symSize: 0x34 }
  - { offsetInCU: 0x2A921, offset: 0x2A921, size: 0x8, addend: 0x0, symName: __ZN3RefIN4MQTT14ConnectMessageEEptEv, symObjAddr: 0x2550, symBinAddr: 0x100004EE4, symSize: 0x18 }
  - { offsetInCU: 0x2A947, offset: 0x2A947, size: 0x8, addend: 0x0, symName: __ZNK4MQTT14ConnectMessage17GetAuthenticationEv, symObjAddr: 0x2568, symBinAddr: 0x100004EFC, symSize: 0x18 }
  - { offsetInCU: 0x2A96D, offset: 0x2A96D, size: 0x8, addend: 0x0, symName: __ZN3RefIN8MQTTPlus6ClientEED1Ev, symObjAddr: 0x2580, symBinAddr: 0x100004F14, symSize: 0x2C }
  - { offsetInCU: 0x2A99D, offset: 0x2A99D, size: 0x8, addend: 0x0, symName: __ZN3RefIN4MQTT14ConnAckMessageEE6CreateIJRNS0_12ConnAckFlagsEEEES2_DpOT_, symObjAddr: 0x25AC, symBinAddr: 0x100004F40, symSize: 0x78 }
  - { offsetInCU: 0x2A9D1, offset: 0x2A9D1, size: 0x8, addend: 0x0, symName: __ZN3RefIN4MQTT7MessageEEC1INS0_14ConnAckMessageEEEOS_IT_E, symObjAddr: 0x2624, symBinAddr: 0x100004FB8, symSize: 0x34 }
  - { offsetInCU: 0x2AA12, offset: 0x2AA12, size: 0x8, addend: 0x0, symName: __ZN3RefIN4MQTT14ConnAckMessageEED1Ev, symObjAddr: 0x2658, symBinAddr: 0x100004FEC, symSize: 0x2C }
  - { offsetInCU: 0x2AA3C, offset: 0x2AA3C, size: 0x8, addend: 0x0, symName: __ZN3RefIN4MQTT14ConnectMessageEED1Ev, symObjAddr: 0x2684, symBinAddr: 0x100005018, symSize: 0x2C }
  - { offsetInCU: 0x2AA66, offset: 0x2AA66, size: 0x8, addend: 0x0, symName: __ZNK3RefIN4MQTT7MessageEE2AsINS0_14PublishMessageEEES_IT_Ev, symObjAddr: 0x26B0, symBinAddr: 0x100005044, symSize: 0x38 }
  - { offsetInCU: 0x2AA95, offset: 0x2AA95, size: 0x8, addend: 0x0, symName: __ZN3RefIN4MQTT14PublishMessageEEC1ERKS2_, symObjAddr: 0x26E8, symBinAddr: 0x10000507C, symSize: 0x34 }
  - { offsetInCU: 0x2AACD, offset: 0x2AACD, size: 0x8, addend: 0x0, symName: __ZN3RefIN4MQTT14PublishMessageEED1Ev, symObjAddr: 0x271C, symBinAddr: 0x1000050B0, symSize: 0x2C }
  - { offsetInCU: 0x2AAF7, offset: 0x2AAF7, size: 0x8, addend: 0x0, symName: __ZNKSt3__112basic_stringIcNS_11char_traitsIcEENS_9allocatorIcEEE4dataB8ue170006Ev, symObjAddr: 0x2934, symBinAddr: 0x1000052C8, symSize: 0x28 }
  - { offsetInCU: 0x2AB1D, offset: 0x2AB1D, size: 0x8, addend: 0x0, symName: __ZNKSt3__112basic_stringIcNS_11char_traitsIcEENS_9allocatorIcEEE4sizeB8ue170006Ev, symObjAddr: 0x295C, symBinAddr: 0x1000052F0, symSize: 0x54 }
  - { offsetInCU: 0x2AB67, offset: 0x2AB67, size: 0x8, addend: 0x0, symName: __ZNKSt3__113basic_ostreamIcNS_11char_traitsIcEEE6sentrycvbB8ue170006Ev, symObjAddr: 0x29B0, symBinAddr: 0x100005344, symSize: 0x1C }
  - { offsetInCU: 0x2AB8D, offset: 0x2AB8D, size: 0x8, addend: 0x0, symName: __ZNSt3__119ostreambuf_iteratorIcNS_11char_traitsIcEEEC1B8ue170006ERNS_13basic_ostreamIcS2_EE, symObjAddr: 0x2C0C, symBinAddr: 0x1000055A0, symSize: 0x34 }
  - { offsetInCU: 0x2ABC5, offset: 0x2ABC5, size: 0x8, addend: 0x0, symName: __ZNKSt3__18ios_base5flagsB8ue170006Ev, symObjAddr: 0x2C40, symBinAddr: 0x1000055D4, symSize: 0x18 }
  - { offsetInCU: 0x2ABED, offset: 0x2ABED, size: 0x8, addend: 0x0, symName: __ZNKSt3__19basic_iosIcNS_11char_traitsIcEEE4fillB8ue170006Ev, symObjAddr: 0x2C58, symBinAddr: 0x1000055EC, symSize: 0x64 }
  - { offsetInCU: 0x2AC15, offset: 0x2AC15, size: 0x8, addend: 0x0, symName: __ZNKSt3__119ostreambuf_iteratorIcNS_11char_traitsIcEEE6failedB8ue170006Ev, symObjAddr: 0x2CBC, symBinAddr: 0x100005650, symSize: 0x24 }
  - { offsetInCU: 0x2AC3B, offset: 0x2AC3B, size: 0x8, addend: 0x0, symName: __ZNSt3__19basic_iosIcNS_11char_traitsIcEEE8setstateB8ue170006Ej, symObjAddr: 0x2CE0, symBinAddr: 0x100005674, symSize: 0x2C }
  - { offsetInCU: 0x2AC70, offset: 0x2AC70, size: 0x8, addend: 0x0, symName: __ZNKSt3__18ios_base5widthB8ue170006Ev, symObjAddr: 0x2D0C, symBinAddr: 0x1000056A0, symSize: 0x18 }
  - { offsetInCU: 0x2AC98, offset: 0x2AC98, size: 0x8, addend: 0x0, symName: __ZNSt3__115basic_streambufIcNS_11char_traitsIcEEE5sputnB8ue170006EPKcl, symObjAddr: 0x2D24, symBinAddr: 0x1000056B8, symSize: 0x3C }
  - { offsetInCU: 0x2ACDA, offset: 0x2ACDA, size: 0x8, addend: 0x0, symName: __ZNSt3__112basic_stringIcNS_11char_traitsIcEENS_9allocatorIcEEEC1B8ue170006Emc, symObjAddr: 0x2D60, symBinAddr: 0x1000056F4, symSize: 0x3C }
  - { offsetInCU: 0x2AD22, offset: 0x2AD22, size: 0x8, addend: 0x0, symName: __ZNSt3__112basic_stringIcNS_11char_traitsIcEENS_9allocatorIcEEE4dataB8ue170006Ev, symObjAddr: 0x2D9C, symBinAddr: 0x100005730, symSize: 0x28 }
  - { offsetInCU: 0x2AD48, offset: 0x2AD48, size: 0x8, addend: 0x0, symName: __ZNSt3__18ios_base5widthB8ue170006El, symObjAddr: 0x2DC4, symBinAddr: 0x100005758, symSize: 0x2C }
  - { offsetInCU: 0x2AD8E, offset: 0x2AD8E, size: 0x8, addend: 0x0, symName: __ZNSt3__112basic_stringIcNS_11char_traitsIcEENS_9allocatorIcEEEC2B8ue170006Emc, symObjAddr: 0x2DF0, symBinAddr: 0x100005784, symSize: 0x4C }
  - { offsetInCU: 0x2ADDC, offset: 0x2ADDC, size: 0x8, addend: 0x0, symName: __ZNSt3__117__compressed_pairINS_12basic_stringIcNS_11char_traitsIcEENS_9allocatorIcEEE5__repES5_EC1B8ue170006INS_18__default_init_tagESA_EEOT_OT0_, symObjAddr: 0x2E3C, symBinAddr: 0x1000057D0, symSize: 0x3C }
  - { offsetInCU: 0x2AE34, offset: 0x2AE34, size: 0x8, addend: 0x0, symName: __ZNSt3__117__compressed_pairINS_12basic_stringIcNS_11char_traitsIcEENS_9allocatorIcEEE5__repES5_EC2B8ue170006INS_18__default_init_tagESA_EEOT_OT0_, symObjAddr: 0x2E78, symBinAddr: 0x10000580C, symSize: 0x3C }
  - { offsetInCU: 0x2AE8C, offset: 0x2AE8C, size: 0x8, addend: 0x0, symName: __ZNSt3__122__compressed_pair_elemINS_12basic_stringIcNS_11char_traitsIcEENS_9allocatorIcEEE5__repELi0ELb0EEC2B8ue170006ENS_18__default_init_tagE, symObjAddr: 0x2EB4, symBinAddr: 0x100005848, symSize: 0x14 }
  - { offsetInCU: 0x2AEC0, offset: 0x2AEC0, size: 0x8, addend: 0x0, symName: __ZNSt3__122__compressed_pair_elemINS_9allocatorIcEELi1ELb1EEC2B8ue170006ENS_18__default_init_tagE, symObjAddr: 0x2EC8, symBinAddr: 0x10000585C, symSize: 0x2C }
  - { offsetInCU: 0x2AEF4, offset: 0x2AEF4, size: 0x8, addend: 0x0, symName: __ZNSt3__19allocatorIcEC2B8ue170006Ev, symObjAddr: 0x2EF4, symBinAddr: 0x100005888, symSize: 0x2C }
  - { offsetInCU: 0x2AF1E, offset: 0x2AF1E, size: 0x8, addend: 0x0, symName: __ZNSt3__116__non_trivial_ifILb1ENS_9allocatorIcEEEC2B8ue170006Ev, symObjAddr: 0x2F20, symBinAddr: 0x1000058B4, symSize: 0x14 }
  - { offsetInCU: 0x2AF48, offset: 0x2AF48, size: 0x8, addend: 0x0, symName: __ZNSt3__112basic_stringIcNS_11char_traitsIcEENS_9allocatorIcEEE13__get_pointerB8ue170006Ev, symObjAddr: 0x2F48, symBinAddr: 0x1000058DC, symSize: 0x54 }
  - { offsetInCU: 0x2AF6E, offset: 0x2AF6E, size: 0x8, addend: 0x0, symName: __ZNKSt3__112basic_stringIcNS_11char_traitsIcEENS_9allocatorIcEEE9__is_longB8ue170006Ev, symObjAddr: 0x2F9C, symBinAddr: 0x100005930, symSize: 0x38 }
  - { offsetInCU: 0x2AF94, offset: 0x2AF94, size: 0x8, addend: 0x0, symName: __ZNSt3__112basic_stringIcNS_11char_traitsIcEENS_9allocatorIcEEE18__get_long_pointerB8ue170006Ev, symObjAddr: 0x2FD4, symBinAddr: 0x100005968, symSize: 0x28 }
  - { offsetInCU: 0x2AFBA, offset: 0x2AFBA, size: 0x8, addend: 0x0, symName: __ZNSt3__112basic_stringIcNS_11char_traitsIcEENS_9allocatorIcEEE19__get_short_pointerB8ue170006Ev, symObjAddr: 0x2FFC, symBinAddr: 0x100005990, symSize: 0x28 }
  - { offsetInCU: 0x2AFE0, offset: 0x2AFE0, size: 0x8, addend: 0x0, symName: __ZNKSt3__117__compressed_pairINS_12basic_stringIcNS_11char_traitsIcEENS_9allocatorIcEEE5__repES5_E5firstB8ue170006Ev, symObjAddr: 0x3024, symBinAddr: 0x1000059B8, symSize: 0x24 }
  - { offsetInCU: 0x2B006, offset: 0x2B006, size: 0x8, addend: 0x0, symName: __ZNKSt3__122__compressed_pair_elemINS_12basic_stringIcNS_11char_traitsIcEENS_9allocatorIcEEE5__repELi0ELb0EE5__getB8ue170006Ev, symObjAddr: 0x3048, symBinAddr: 0x1000059DC, symSize: 0x14 }
  - { offsetInCU: 0x2B02C, offset: 0x2B02C, size: 0x8, addend: 0x0, symName: __ZNSt3__117__compressed_pairINS_12basic_stringIcNS_11char_traitsIcEENS_9allocatorIcEEE5__repES5_E5firstB8ue170006Ev, symObjAddr: 0x305C, symBinAddr: 0x1000059F0, symSize: 0x24 }
  - { offsetInCU: 0x2B052, offset: 0x2B052, size: 0x8, addend: 0x0, symName: __ZNSt3__122__compressed_pair_elemINS_12basic_stringIcNS_11char_traitsIcEENS_9allocatorIcEEE5__repELi0ELb0EE5__getB8ue170006Ev, symObjAddr: 0x3080, symBinAddr: 0x100005A14, symSize: 0x14 }
  - { offsetInCU: 0x2B078, offset: 0x2B078, size: 0x8, addend: 0x0, symName: __ZNSt3__114pointer_traitsIPcE10pointer_toB8ue170006ERc, symObjAddr: 0x3094, symBinAddr: 0x100005A28, symSize: 0x14 }
  - { offsetInCU: 0x2B09B, offset: 0x2B09B, size: 0x8, addend: 0x0, symName: __ZNSt3__119ostreambuf_iteratorIcNS_11char_traitsIcEEEC2B8ue170006ERNS_13basic_ostreamIcS2_EE, symObjAddr: 0x30A8, symBinAddr: 0x100005A3C, symSize: 0x54 }
  - { offsetInCU: 0x2B0D3, offset: 0x2B0D3, size: 0x8, addend: 0x0, symName: __ZNKSt3__19basic_iosIcNS_11char_traitsIcEEE5rdbufB8ue170006Ev, symObjAddr: 0x30FC, symBinAddr: 0x100005A90, symSize: 0x24 }
  - { offsetInCU: 0x2B0FB, offset: 0x2B0FB, size: 0x8, addend: 0x0, symName: __ZNKSt3__18ios_base5rdbufB8ue170006Ev, symObjAddr: 0x3120, symBinAddr: 0x100005AB4, symSize: 0x18 }
  - { offsetInCU: 0x2B121, offset: 0x2B121, size: 0x8, addend: 0x0, symName: __ZNSt3__111char_traitsIcE11eq_int_typeB8ue170006Eii, symObjAddr: 0x3138, symBinAddr: 0x100005ACC, symSize: 0x28 }
  - { offsetInCU: 0x2B154, offset: 0x2B154, size: 0x8, addend: 0x0, symName: __ZNSt3__111char_traitsIcE3eofB8ue170006Ev, symObjAddr: 0x3160, symBinAddr: 0x100005AF4, symSize: 0x8 }
  - { offsetInCU: 0x2B168, offset: 0x2B168, size: 0x8, addend: 0x0, symName: __ZNKSt3__19basic_iosIcNS_11char_traitsIcEEE5widenB8ue170006Ec, symObjAddr: 0x3168, symBinAddr: 0x100005AFC, symSize: 0x84 }
  - { offsetInCU: 0x2B1DB, offset: 0x2B1DB, size: 0x8, addend: 0x0, symName: __ZNKSt3__15ctypeIcE5widenB8ue170006Ec, symObjAddr: 0x3218, symBinAddr: 0x100005BAC, symSize: 0x38 }
  - { offsetInCU: 0x2B210, offset: 0x2B210, size: 0x8, addend: 0x0, symName: __ZNSt3__18ios_base8setstateB8ue170006Ej, symObjAddr: 0x3250, symBinAddr: 0x100005BE4, symSize: 0x34 }
  - { offsetInCU: 0x2B247, offset: 0x2B247, size: 0x8, addend: 0x0, symName: __ZNKSt3__112basic_stringIcNS_11char_traitsIcEENS_9allocatorIcEEE13__get_pointerB8ue170006Ev, symObjAddr: 0x3298, symBinAddr: 0x100005C2C, symSize: 0x54 }
  - { offsetInCU: 0x2B26D, offset: 0x2B26D, size: 0x8, addend: 0x0, symName: __ZNKSt3__112basic_stringIcNS_11char_traitsIcEENS_9allocatorIcEEE18__get_long_pointerB8ue170006Ev, symObjAddr: 0x32EC, symBinAddr: 0x100005C80, symSize: 0x28 }
  - { offsetInCU: 0x2B293, offset: 0x2B293, size: 0x8, addend: 0x0, symName: __ZNKSt3__112basic_stringIcNS_11char_traitsIcEENS_9allocatorIcEEE19__get_short_pointerB8ue170006Ev, symObjAddr: 0x3314, symBinAddr: 0x100005CA8, symSize: 0x28 }
  - { offsetInCU: 0x2B2B9, offset: 0x2B2B9, size: 0x8, addend: 0x0, symName: __ZNSt3__114pointer_traitsIPKcE10pointer_toB8ue170006ERS1_, symObjAddr: 0x333C, symBinAddr: 0x100005CD0, symSize: 0x14 }
  - { offsetInCU: 0x2B2DC, offset: 0x2B2DC, size: 0x8, addend: 0x0, symName: __ZNKSt3__112basic_stringIcNS_11char_traitsIcEENS_9allocatorIcEEE15__get_long_sizeB8ue170006Ev, symObjAddr: 0x3350, symBinAddr: 0x100005CE4, symSize: 0x28 }
  - { offsetInCU: 0x2B302, offset: 0x2B302, size: 0x8, addend: 0x0, symName: __ZNKSt3__112basic_stringIcNS_11char_traitsIcEENS_9allocatorIcEEE16__get_short_sizeB8ue170006Ev, symObjAddr: 0x3378, symBinAddr: 0x100005D0C, symSize: 0x34 }
  - { offsetInCU: 0x2B328, offset: 0x2B328, size: 0x8, addend: 0x0, symName: __ZN3RefIN4MQTT14ConnectMessageEEC1INS0_7MessageEEERKS_IT_E, symObjAddr: 0x33AC, symBinAddr: 0x100005D40, symSize: 0x34 }
  - { offsetInCU: 0x2B369, offset: 0x2B369, size: 0x8, addend: 0x0, symName: __ZN3RefIN4MQTT14ConnectMessageEEC2INS0_7MessageEEERKS_IT_E, symObjAddr: 0x33E0, symBinAddr: 0x100005D74, symSize: 0x40 }
  - { offsetInCU: 0x2B3AA, offset: 0x2B3AA, size: 0x8, addend: 0x0, symName: __ZNK3RefIN4MQTT14ConnectMessageEE6IncRefEv, symObjAddr: 0x3420, symBinAddr: 0x100005DB4, symSize: 0x48 }
  - { offsetInCU: 0x2B3D0, offset: 0x2B3D0, size: 0x8, addend: 0x0, symName: __ZNK8RefCount11IncRefCountEv, symObjAddr: 0x3468, symBinAddr: 0x100005DFC, symSize: 0x2C }
  - { offsetInCU: 0x2B3F6, offset: 0x2B3F6, size: 0x8, addend: 0x0, symName: __ZNSt3__113__atomic_baseIjLb1EEppB8ue170006Ei, symObjAddr: 0x3494, symBinAddr: 0x100005E28, symSize: 0x30 }
  - { offsetInCU: 0x2B426, offset: 0x2B426, size: 0x8, addend: 0x0, symName: __ZNSt3__113__atomic_baseIjLb1EE9fetch_addB8ue170006EjNS_12memory_orderE, symObjAddr: 0x34C4, symBinAddr: 0x100005E58, symSize: 0x34 }
  - { offsetInCU: 0x2B468, offset: 0x2B468, size: 0x8, addend: 0x0, symName: __ZN3RefIN8MQTTPlus6ClientEEC2EPS1_, symObjAddr: 0x35D0, symBinAddr: 0x100005F64, symSize: 0x38 }
  - { offsetInCU: 0x2B4A0, offset: 0x2B4A0, size: 0x8, addend: 0x0, symName: __ZNK3RefIN8MQTTPlus6ClientEE6IncRefEv, symObjAddr: 0x3608, symBinAddr: 0x100005F9C, symSize: 0x48 }
  - { offsetInCU: 0x2B4C6, offset: 0x2B4C6, size: 0x8, addend: 0x0, symName: __ZN3RefIN8MQTTPlus6ClientEED2Ev, symObjAddr: 0x3650, symBinAddr: 0x100005FE4, symSize: 0x34 }
  - { offsetInCU: 0x2B4F0, offset: 0x2B4F0, size: 0x8, addend: 0x0, symName: __ZNK3RefIN8MQTTPlus6ClientEE6DecRefEv, symObjAddr: 0x3684, symBinAddr: 0x100006018, symSize: 0x98 }
  - { offsetInCU: 0x2B516, offset: 0x2B516, size: 0x8, addend: 0x0, symName: __ZN4MQTT14ConnAckMessageC1ENS_12ConnAckFlagsEb, symObjAddr: 0x371C, symBinAddr: 0x1000060B0, symSize: 0x48 }
  - { offsetInCU: 0x2B55C, offset: 0x2B55C, size: 0x8, addend: 0x0, symName: __ZN3RefIN4MQTT14ConnAckMessageEEC1EPS1_, symObjAddr: 0x3764, symBinAddr: 0x1000060F8, symSize: 0x34 }
  - { offsetInCU: 0x2B594, offset: 0x2B594, size: 0x8, addend: 0x0, symName: __ZN4MQTT14ConnAckMessageC2ENS_12ConnAckFlagsEb, symObjAddr: 0x3798, symBinAddr: 0x10000612C, symSize: 0x68 }
  - { offsetInCU: 0x2B5E0, offset: 0x2B5E0, size: 0x8, addend: 0x0, symName: __ZN4MQTT7MessageC2Ev, symObjAddr: 0x3800, symBinAddr: 0x100006194, symSize: 0x44 }
  - { offsetInCU: 0x2B60C, offset: 0x2B60C, size: 0x8, addend: 0x0, symName: __ZN4MQTT14ConnAckMessageD1Ev, symObjAddr: 0x3844, symBinAddr: 0x1000061D8, symSize: 0x2C }
  - { offsetInCU: 0x2B638, offset: 0x2B638, size: 0x8, addend: 0x0, symName: __ZN4MQTT14ConnAckMessageD0Ev, symObjAddr: 0x3870, symBinAddr: 0x100006204, symSize: 0x30 }
  - { offsetInCU: 0x2B664, offset: 0x2B664, size: 0x8, addend: 0x0, symName: __ZNK4MQTT14ConnAckMessage7GetTypeEv, symObjAddr: 0x38A0, symBinAddr: 0x100006234, symSize: 0x14 }
  - { offsetInCU: 0x2B68A, offset: 0x2B68A, size: 0x8, addend: 0x0, symName: __ZNK4MQTT14ConnAckMessage8GetBytesEv, symObjAddr: 0x38B4, symBinAddr: 0x100006248, symSize: 0x80 }
  - { offsetInCU: 0x2B6B0, offset: 0x2B6B0, size: 0x8, addend: 0x0, symName: __ZNK4MQTT14ConnAckMessage8ToStringEv, symObjAddr: 0x3934, symBinAddr: 0x1000062C8, symSize: 0xF4 }
  - { offsetInCU: 0x2B7A5, offset: 0x2B7A5, size: 0x8, addend: 0x0, symName: __ZN8RefCountC2Ev, symObjAddr: 0x3A28, symBinAddr: 0x1000063BC, symSize: 0x50 }
  - { offsetInCU: 0x2B7CF, offset: 0x2B7CF, size: 0x8, addend: 0x0, symName: __ZN4MQTT7MessageD1Ev, symObjAddr: 0x3A78, symBinAddr: 0x10000640C, symSize: 0x14 }
  - { offsetInCU: 0x2B7FB, offset: 0x2B7FB, size: 0x8, addend: 0x0, symName: __ZN4MQTT7MessageD0Ev, symObjAddr: 0x3A8C, symBinAddr: 0x100006420, symSize: 0xC }
  - { offsetInCU: 0x2B827, offset: 0x2B827, size: 0x8, addend: 0x0, symName: __ZNSt3__16atomicIjEC1B8ue170006Ev, symObjAddr: 0x3A98, symBinAddr: 0x10000642C, symSize: 0x2C }
  - { offsetInCU: 0x2B851, offset: 0x2B851, size: 0x8, addend: 0x0, symName: __ZNSt3__16atomicIjEaSB8ue170006Ej, symObjAddr: 0x3AC4, symBinAddr: 0x100006458, symSize: 0x34 }
  - { offsetInCU: 0x2B885, offset: 0x2B885, size: 0x8, addend: 0x0, symName: __ZN8RefCountD1Ev, symObjAddr: 0x3AF8, symBinAddr: 0x10000648C, symSize: 0x2C }
  - { offsetInCU: 0x2B8AF, offset: 0x2B8AF, size: 0x8, addend: 0x0, symName: __ZN8RefCountD0Ev, symObjAddr: 0x3B24, symBinAddr: 0x1000064B8, symSize: 0x30 }
  - { offsetInCU: 0x2B8D9, offset: 0x2B8D9, size: 0x8, addend: 0x0, symName: __ZNSt3__16atomicIjEC2B8ue170006Ev, symObjAddr: 0x3B54, symBinAddr: 0x1000064E8, symSize: 0x2C }
  - { offsetInCU: 0x2B903, offset: 0x2B903, size: 0x8, addend: 0x0, symName: __ZNSt3__113__atomic_baseIjLb1EEC2B8ue170006Ev, symObjAddr: 0x3B80, symBinAddr: 0x100006514, symSize: 0x2C }
  - { offsetInCU: 0x2B92D, offset: 0x2B92D, size: 0x8, addend: 0x0, symName: __ZNSt3__113__atomic_baseIjLb0EEC2B8ue170006Ev, symObjAddr: 0x3BAC, symBinAddr: 0x100006540, symSize: 0x30 }
  - { offsetInCU: 0x2B957, offset: 0x2B957, size: 0x8, addend: 0x0, symName: __ZNSt3__117__cxx_atomic_implIjNS_22__cxx_atomic_base_implIjEEEC1B8ue170006Ej, symObjAddr: 0x3BDC, symBinAddr: 0x100006570, symSize: 0x34 }
  - { offsetInCU: 0x2B990, offset: 0x2B990, size: 0x8, addend: 0x0, symName: __ZNSt3__117__cxx_atomic_implIjNS_22__cxx_atomic_base_implIjEEEC2B8ue170006Ej, symObjAddr: 0x3C10, symBinAddr: 0x1000065A4, symSize: 0x34 }
  - { offsetInCU: 0x2B9C9, offset: 0x2B9C9, size: 0x8, addend: 0x0, symName: __ZNSt3__122__cxx_atomic_base_implIjEC2Ej, symObjAddr: 0x3C44, symBinAddr: 0x1000065D8, symSize: 0x20 }
  - { offsetInCU: 0x2BA02, offset: 0x2BA02, size: 0x8, addend: 0x0, symName: __ZNSt3__113__atomic_baseIjLb0EE5storeB8ue170006EjNS_12memory_orderE, symObjAddr: 0x3C64, symBinAddr: 0x1000065F8, symSize: 0x34 }
  - { offsetInCU: 0x2BA44, offset: 0x2BA44, size: 0x8, addend: 0x0, symName: __ZN8RefCountD2Ev, symObjAddr: 0x3D1C, symBinAddr: 0x1000066B0, symSize: 0x14 }
  - { offsetInCU: 0x2BA6E, offset: 0x2BA6E, size: 0x8, addend: 0x0, symName: __ZN4MQTT14ConnAckMessageD2Ev, symObjAddr: 0x3D30, symBinAddr: 0x1000066C4, symSize: 0x2C }
  - { offsetInCU: 0x2BA9A, offset: 0x2BA9A, size: 0x8, addend: 0x0, symName: __ZN4MQTT7MessageD2Ev, symObjAddr: 0x3D5C, symBinAddr: 0x1000066F0, symSize: 0x2C }
  - { offsetInCU: 0x2BAC6, offset: 0x2BAC6, size: 0x8, addend: 0x0, symName: __ZNSt3__16vectorIhNS_9allocatorIhEEEC1B8ue170006ESt16initializer_listIhE, symObjAddr: 0x3D88, symBinAddr: 0x10000671C, symSize: 0x3C }
  - { offsetInCU: 0x2BB01, offset: 0x2BB01, size: 0x8, addend: 0x0, symName: __ZNSt3__16vectorIhNS_9allocatorIhEEEC2B8ue170006ESt16initializer_listIhE, symObjAddr: 0x3DC4, symBinAddr: 0x100006758, symSize: 0x120 }
  - { offsetInCU: 0x2BB57, offset: 0x2BB57, size: 0x8, addend: 0x0, symName: __ZNSt3__117__compressed_pairIPhNS_9allocatorIhEEEC1B8ue170006IDnNS_18__default_init_tagEEEOT_OT0_, symObjAddr: 0x3EE4, symBinAddr: 0x100006878, symSize: 0x3C }
  - { offsetInCU: 0x2BBAF, offset: 0x2BBAF, size: 0x8, addend: 0x0, symName: __ZNSt3__16vectorIhNS_9allocatorIhEEE16__destroy_vectorC1B8ue170006ERS3_, symObjAddr: 0x3F60, symBinAddr: 0x1000068F4, symSize: 0x34 }
  - { offsetInCU: 0x2BBE8, offset: 0x2BBE8, size: 0x8, addend: 0x0, symName: __ZNKSt16initializer_listIhE4sizeB8ue170006Ev, symObjAddr: 0x3F94, symBinAddr: 0x100006928, symSize: 0x18 }
  - { offsetInCU: 0x2BC0E, offset: 0x2BC0E, size: 0x8, addend: 0x0, symName: __ZNSt3__16vectorIhNS_9allocatorIhEEE11__vallocateB8ue170006Em, symObjAddr: 0x3FAC, symBinAddr: 0x100006940, symSize: 0xAC }
  - { offsetInCU: 0x2BC52, offset: 0x2BC52, size: 0x8, addend: 0x0, symName: __ZNSt3__16vectorIhNS_9allocatorIhEEE18__construct_at_endIPKhS6_EEvT_T0_m, symObjAddr: 0x4058, symBinAddr: 0x1000069EC, symSize: 0x8C }
  - { offsetInCU: 0x2BCC8, offset: 0x2BCC8, size: 0x8, addend: 0x0, symName: __ZNKSt16initializer_listIhE5beginB8ue170006Ev, symObjAddr: 0x40E4, symBinAddr: 0x100006A78, symSize: 0x18 }
  - { offsetInCU: 0x2BCEE, offset: 0x2BCEE, size: 0x8, addend: 0x0, symName: __ZNKSt16initializer_listIhE3endB8ue170006Ev, symObjAddr: 0x40FC, symBinAddr: 0x100006A90, symSize: 0x20 }
  - { offsetInCU: 0x2BD14, offset: 0x2BD14, size: 0x8, addend: 0x0, symName: __ZNSt3__128__exception_guard_exceptionsINS_6vectorIhNS_9allocatorIhEEE16__destroy_vectorEE10__completeB8ue170006Ev, symObjAddr: 0x411C, symBinAddr: 0x100006AB0, symSize: 0x1C }
  - { offsetInCU: 0x2BD3A, offset: 0x2BD3A, size: 0x8, addend: 0x0, symName: __ZNSt3__128__exception_guard_exceptionsINS_6vectorIhNS_9allocatorIhEEE16__destroy_vectorEED1B8ue170006Ev, symObjAddr: 0x4138, symBinAddr: 0x100006ACC, symSize: 0x2C }
  - { offsetInCU: 0x2BD64, offset: 0x2BD64, size: 0x8, addend: 0x0, symName: __ZNSt3__117__compressed_pairIPhNS_9allocatorIhEEEC2B8ue170006IDnNS_18__default_init_tagEEEOT_OT0_, symObjAddr: 0x4164, symBinAddr: 0x100006AF8, symSize: 0x40 }
  - { offsetInCU: 0x2BDBC, offset: 0x2BDBC, size: 0x8, addend: 0x0, symName: __ZNSt3__122__compressed_pair_elemIPhLi0ELb0EEC2B8ue170006IDnvEEOT_, symObjAddr: 0x41A4, symBinAddr: 0x100006B38, symSize: 0x1C }
  - { offsetInCU: 0x2BDFE, offset: 0x2BDFE, size: 0x8, addend: 0x0, symName: __ZNSt3__122__compressed_pair_elemINS_9allocatorIhEELi1ELb1EEC2B8ue170006ENS_18__default_init_tagE, symObjAddr: 0x41C0, symBinAddr: 0x100006B54, symSize: 0x2C }
  - { offsetInCU: 0x2BE32, offset: 0x2BE32, size: 0x8, addend: 0x0, symName: __ZNSt3__19allocatorIhEC2B8ue170006Ev, symObjAddr: 0x41EC, symBinAddr: 0x100006B80, symSize: 0x2C }
  - { offsetInCU: 0x2BE5C, offset: 0x2BE5C, size: 0x8, addend: 0x0, symName: __ZNSt3__116__non_trivial_ifILb1ENS_9allocatorIhEEEC2B8ue170006Ev, symObjAddr: 0x4218, symBinAddr: 0x100006BAC, symSize: 0x14 }
  - { offsetInCU: 0x2BE86, offset: 0x2BE86, size: 0x8, addend: 0x0, symName: __ZNSt3__128__exception_guard_exceptionsINS_6vectorIhNS_9allocatorIhEEE16__destroy_vectorEEC1B8ue170006ES5_, symObjAddr: 0x422C, symBinAddr: 0x100006BC0, symSize: 0x34 }
  - { offsetInCU: 0x2BEBE, offset: 0x2BEBE, size: 0x8, addend: 0x0, symName: __ZNSt3__128__exception_guard_exceptionsINS_6vectorIhNS_9allocatorIhEEE16__destroy_vectorEEC2B8ue170006ES5_, symObjAddr: 0x4260, symBinAddr: 0x100006BF4, symSize: 0x24 }
  - { offsetInCU: 0x2BEF6, offset: 0x2BEF6, size: 0x8, addend: 0x0, symName: __ZNSt3__16vectorIhNS_9allocatorIhEEE16__destroy_vectorC2B8ue170006ERS3_, symObjAddr: 0x4284, symBinAddr: 0x100006C18, symSize: 0x20 }
  - { offsetInCU: 0x2BF2F, offset: 0x2BF2F, size: 0x8, addend: 0x0, symName: __ZNKSt3__16vectorIhNS_9allocatorIhEEE8max_sizeEv, symObjAddr: 0x42A4, symBinAddr: 0x100006C38, symSize: 0x60 }
  - { offsetInCU: 0x2BF57, offset: 0x2BF57, size: 0x8, addend: 0x0, symName: __ZNKSt3__16vectorIhNS_9allocatorIhEEE20__throw_length_errorB8ue170006Ev, symObjAddr: 0x4304, symBinAddr: 0x100006C98, symSize: 0x1C }
  - { offsetInCU: 0x2BF7D, offset: 0x2BF7D, size: 0x8, addend: 0x0, symName: __ZNSt3__16vectorIhNS_9allocatorIhEEE7__allocB8ue170006Ev, symObjAddr: 0x4360, symBinAddr: 0x100006CF4, symSize: 0x28 }
  - { offsetInCU: 0x2BFA3, offset: 0x2BFA3, size: 0x8, addend: 0x0, symName: __ZNSt3__16vectorIhNS_9allocatorIhEEE9__end_capB8ue170006Ev, symObjAddr: 0x4388, symBinAddr: 0x100006D1C, symSize: 0x28 }
  - { offsetInCU: 0x2BFC9, offset: 0x2BFC9, size: 0x8, addend: 0x0, symName: __ZNKSt3__16vectorIhNS_9allocatorIhEEE14__annotate_newB8ue170006Em, symObjAddr: 0x43B0, symBinAddr: 0x100006D44, symSize: 0xAC }
  - { offsetInCU: 0x2C00A, offset: 0x2C00A, size: 0x8, addend: 0x0, symName: __ZNSt3__116allocator_traitsINS_9allocatorIhEEE8max_sizeB8ue170006IS2_vvEEmRKS2_, symObjAddr: 0x4488, symBinAddr: 0x100006E1C, symSize: 0x28 }
  - { offsetInCU: 0x2C036, offset: 0x2C036, size: 0x8, addend: 0x0, symName: __ZNKSt3__16vectorIhNS_9allocatorIhEEE7__allocB8ue170006Ev, symObjAddr: 0x44B0, symBinAddr: 0x100006E44, symSize: 0x28 }
  - { offsetInCU: 0x2C05C, offset: 0x2C05C, size: 0x8, addend: 0x0, symName: __ZNSt3__114numeric_limitsIlE3maxB8ue170006Ev, symObjAddr: 0x44D8, symBinAddr: 0x100006E6C, symSize: 0x14 }
  - { offsetInCU: 0x2C07C, offset: 0x2C07C, size: 0x8, addend: 0x0, symName: __ZNKSt3__16__lessIvvEclB8ue170006ImmEEbRKT_RKT0_, symObjAddr: 0x4540, symBinAddr: 0x100006ED4, symSize: 0x34 }
  - { offsetInCU: 0x2C0D0, offset: 0x2C0D0, size: 0x8, addend: 0x0, symName: __ZNKSt3__117__compressed_pairIPhNS_9allocatorIhEEE6secondB8ue170006Ev, symObjAddr: 0x4574, symBinAddr: 0x100006F08, symSize: 0x24 }
  - { offsetInCU: 0x2C0F6, offset: 0x2C0F6, size: 0x8, addend: 0x0, symName: __ZNKSt3__122__compressed_pair_elemINS_9allocatorIhEELi1ELb1EE5__getB8ue170006Ev, symObjAddr: 0x4598, symBinAddr: 0x100006F2C, symSize: 0x14 }
  - { offsetInCU: 0x2C11C, offset: 0x2C11C, size: 0x8, addend: 0x0, symName: __ZNSt3__123__libcpp_numeric_limitsIlLb1EE3maxB8ue170006Ev, symObjAddr: 0x45AC, symBinAddr: 0x100006F40, symSize: 0x8 }
  - { offsetInCU: 0x2C130, offset: 0x2C130, size: 0x8, addend: 0x0, symName: __ZNSt12length_errorC1B8ue170006EPKc, symObjAddr: 0x4618, symBinAddr: 0x100006FAC, symSize: 0x34 }
  - { offsetInCU: 0x2C168, offset: 0x2C168, size: 0x8, addend: 0x0, symName: __ZNSt12length_errorC2B8ue170006EPKc, symObjAddr: 0x464C, symBinAddr: 0x100006FE0, symSize: 0x4C }
  - { offsetInCU: 0x2C1A0, offset: 0x2C1A0, size: 0x8, addend: 0x0, symName: __ZNSt3__19allocatorIhE8allocateB8ue170006Em, symObjAddr: 0x4698, symBinAddr: 0x10000702C, symSize: 0x58 }
  - { offsetInCU: 0x2C1D4, offset: 0x2C1D4, size: 0x8, addend: 0x0, symName: __ZNSt3__117__compressed_pairIPhNS_9allocatorIhEEE6secondB8ue170006Ev, symObjAddr: 0x46F0, symBinAddr: 0x100007084, symSize: 0x24 }
  - { offsetInCU: 0x2C1FA, offset: 0x2C1FA, size: 0x8, addend: 0x0, symName: __ZNSt3__122__compressed_pair_elemINS_9allocatorIhEELi1ELb1EE5__getB8ue170006Ev, symObjAddr: 0x4714, symBinAddr: 0x1000070A8, symSize: 0x14 }
  - { offsetInCU: 0x2C220, offset: 0x2C220, size: 0x8, addend: 0x0, symName: __ZNSt3__117__compressed_pairIPhNS_9allocatorIhEEE5firstB8ue170006Ev, symObjAddr: 0x4728, symBinAddr: 0x1000070BC, symSize: 0x24 }
  - { offsetInCU: 0x2C246, offset: 0x2C246, size: 0x8, addend: 0x0, symName: __ZNSt3__122__compressed_pair_elemIPhLi0ELb0EE5__getB8ue170006Ev, symObjAddr: 0x474C, symBinAddr: 0x1000070E0, symSize: 0x14 }
  - { offsetInCU: 0x2C26C, offset: 0x2C26C, size: 0x8, addend: 0x0, symName: __ZNKSt3__16vectorIhNS_9allocatorIhEEE31__annotate_contiguous_containerB8ue170006EPKvS5_S5_S5_, symObjAddr: 0x4760, symBinAddr: 0x1000070F4, symSize: 0x20 }
  - { offsetInCU: 0x2C2C2, offset: 0x2C2C2, size: 0x8, addend: 0x0, symName: __ZNKSt3__16vectorIhNS_9allocatorIhEEE4dataB8ue170006Ev, symObjAddr: 0x4780, symBinAddr: 0x100007114, symSize: 0x28 }
  - { offsetInCU: 0x2C2E8, offset: 0x2C2E8, size: 0x8, addend: 0x0, symName: __ZNKSt3__16vectorIhNS_9allocatorIhEEE8capacityB8ue170006Ev, symObjAddr: 0x47A8, symBinAddr: 0x10000713C, symSize: 0x38 }
  - { offsetInCU: 0x2C30E, offset: 0x2C30E, size: 0x8, addend: 0x0, symName: __ZNKSt3__16vectorIhNS_9allocatorIhEEE9__end_capB8ue170006Ev, symObjAddr: 0x47F4, symBinAddr: 0x100007188, symSize: 0x28 }
  - { offsetInCU: 0x2C334, offset: 0x2C334, size: 0x8, addend: 0x0, symName: __ZNKSt3__117__compressed_pairIPhNS_9allocatorIhEEE5firstB8ue170006Ev, symObjAddr: 0x481C, symBinAddr: 0x1000071B0, symSize: 0x24 }
  - { offsetInCU: 0x2C35A, offset: 0x2C35A, size: 0x8, addend: 0x0, symName: __ZNKSt3__122__compressed_pair_elemIPhLi0ELb0EE5__getB8ue170006Ev, symObjAddr: 0x4840, symBinAddr: 0x1000071D4, symSize: 0x14 }
  - { offsetInCU: 0x2C39E, offset: 0x2C39E, size: 0x8, addend: 0x0, symName: __ZNSt3__16vectorIhNS_9allocatorIhEEE21_ConstructTransactionC1B8ue170006ERS3_m, symObjAddr: 0x4854, symBinAddr: 0x1000071E8, symSize: 0x3C }
  - { offsetInCU: 0x2C3E6, offset: 0x2C3E6, size: 0x8, addend: 0x0, symName: __ZNSt3__16vectorIhNS_9allocatorIhEEE21_ConstructTransactionD1B8ue170006Ev, symObjAddr: 0x4910, symBinAddr: 0x1000072A4, symSize: 0x2C }
  - { offsetInCU: 0x2C410, offset: 0x2C410, size: 0x8, addend: 0x0, symName: __ZNSt3__16vectorIhNS_9allocatorIhEEE21_ConstructTransactionC2B8ue170006ERS3_m, symObjAddr: 0x493C, symBinAddr: 0x1000072D0, symSize: 0x44 }
  - { offsetInCU: 0x2C476, offset: 0x2C476, size: 0x8, addend: 0x0, symName: __ZNSt3__119__unwrap_range_implIPKhS2_E8__unwrapB8ue170006ES2_S2_, symObjAddr: 0x4A54, symBinAddr: 0x1000073E8, symSize: 0x58 }
  - { offsetInCU: 0x2C4AD, offset: 0x2C4AD, size: 0x8, addend: 0x0, symName: __ZNSt3__14pairIPKhS2_EC1B8ue170006IS2_S2_LPv0EEEOT_OT0_, symObjAddr: 0x4AD0, symBinAddr: 0x100007464, symSize: 0x3C }
  - { offsetInCU: 0x2C50B, offset: 0x2C50B, size: 0x8, addend: 0x0, symName: __ZNSt3__118__unwrap_iter_implIPKhLb1EE8__unwrapB8ue170006ES2_, symObjAddr: 0x4B0C, symBinAddr: 0x1000074A0, symSize: 0x24 }
  - { offsetInCU: 0x2C52E, offset: 0x2C52E, size: 0x8, addend: 0x0, symName: __ZNSt3__14pairIPKhS2_EC2B8ue170006IS2_S2_LPv0EEEOT_OT0_, symObjAddr: 0x4B44, symBinAddr: 0x1000074D8, symSize: 0x34 }
  - { offsetInCU: 0x2C5B6, offset: 0x2C5B6, size: 0x8, addend: 0x0, symName: __ZNKSt3__114__copy_trivialclB8ue170006IKhhLi0EEENS_4pairIPT_PT0_EES5_S5_S7_, symObjAddr: 0x4CF4, symBinAddr: 0x100007688, symSize: 0x48 }
  - { offsetInCU: 0x2C62A, offset: 0x2C62A, size: 0x8, addend: 0x0, symName: __ZNSt3__14pairIPKhPhEC1B8ue170006IRS2_S3_LPv0EEEOT_OT0_, symObjAddr: 0x4EB4, symBinAddr: 0x100007848, symSize: 0x3C }
  - { offsetInCU: 0x2C688, offset: 0x2C688, size: 0x8, addend: 0x0, symName: __ZNSt3__14pairIPKhPhEC2B8ue170006IRS2_S3_LPv0EEEOT_OT0_, symObjAddr: 0x4EF0, symBinAddr: 0x100007884, symSize: 0x34 }
  - { offsetInCU: 0x2C6E6, offset: 0x2C6E6, size: 0x8, addend: 0x0, symName: __ZNSt3__14pairIPKhPhEC1B8ue170006IS2_S3_LPv0EEEOT_OT0_, symObjAddr: 0x4F24, symBinAddr: 0x1000078B8, symSize: 0x3C }
  - { offsetInCU: 0x2C744, offset: 0x2C744, size: 0x8, addend: 0x0, symName: __ZNSt3__14pairIPKhPhEC2B8ue170006IS2_S3_LPv0EEEOT_OT0_, symObjAddr: 0x4F60, symBinAddr: 0x1000078F4, symSize: 0x34 }
  - { offsetInCU: 0x2C7A2, offset: 0x2C7A2, size: 0x8, addend: 0x0, symName: __ZNSt3__119__unwrap_range_implIPKhS2_E8__rewrapB8ue170006ES2_S2_, symObjAddr: 0x4F94, symBinAddr: 0x100007928, symSize: 0x2C }
  - { offsetInCU: 0x2C7D3, offset: 0x2C7D3, size: 0x8, addend: 0x0, symName: __ZNSt3__118__unwrap_iter_implIPKhLb1EE8__rewrapB8ue170006ES2_S2_, symObjAddr: 0x4FFC, symBinAddr: 0x100007990, symSize: 0x48 }
  - { offsetInCU: 0x2C804, offset: 0x2C804, size: 0x8, addend: 0x0, symName: __ZNSt3__118__unwrap_iter_implIPhLb1EE8__unwrapB8ue170006ES1_, symObjAddr: 0x5044, symBinAddr: 0x1000079D8, symSize: 0x24 }
  - { offsetInCU: 0x2C827, offset: 0x2C827, size: 0x8, addend: 0x0, symName: __ZNSt3__118__unwrap_iter_implIPhLb1EE8__rewrapB8ue170006ES1_S1_, symObjAddr: 0x5068, symBinAddr: 0x1000079FC, symSize: 0x48 }
  - { offsetInCU: 0x2C858, offset: 0x2C858, size: 0x8, addend: 0x0, symName: __ZNSt3__16vectorIhNS_9allocatorIhEEE21_ConstructTransactionD2B8ue170006Ev, symObjAddr: 0x50B0, symBinAddr: 0x100007A44, symSize: 0x20 }
  - { offsetInCU: 0x2C882, offset: 0x2C882, size: 0x8, addend: 0x0, symName: __ZNSt3__128__exception_guard_exceptionsINS_6vectorIhNS_9allocatorIhEEE16__destroy_vectorEED2B8ue170006Ev, symObjAddr: 0x50D0, symBinAddr: 0x100007A64, symSize: 0x50 }
  - { offsetInCU: 0x2C8AC, offset: 0x2C8AC, size: 0x8, addend: 0x0, symName: __ZNSt3__16vectorIhNS_9allocatorIhEEE16__destroy_vectorclB8ue170006Ev, symObjAddr: 0x5120, symBinAddr: 0x100007AB4, symSize: 0x90 }
  - { offsetInCU: 0x2C8D2, offset: 0x2C8D2, size: 0x8, addend: 0x0, symName: __ZNSt3__16vectorIhNS_9allocatorIhEEE7__clearB8ue170006Ev, symObjAddr: 0x51B0, symBinAddr: 0x100007B44, symSize: 0x28 }
  - { offsetInCU: 0x2C8F8, offset: 0x2C8F8, size: 0x8, addend: 0x0, symName: __ZNKSt3__16vectorIhNS_9allocatorIhEEE17__annotate_deleteB8ue170006Ev, symObjAddr: 0x51D8, symBinAddr: 0x100007B6C, symSize: 0xB8 }
  - { offsetInCU: 0x2C91E, offset: 0x2C91E, size: 0x8, addend: 0x0, symName: __ZNSt3__116allocator_traitsINS_9allocatorIhEEE10deallocateB8ue170006ERS2_Phm, symObjAddr: 0x5290, symBinAddr: 0x100007C24, symSize: 0x34 }
  - { offsetInCU: 0x2C960, offset: 0x2C960, size: 0x8, addend: 0x0, symName: __ZNSt3__16vectorIhNS_9allocatorIhEEE22__base_destruct_at_endB8ue170006EPh, symObjAddr: 0x52C4, symBinAddr: 0x100007C58, symSize: 0x8C }
  - { offsetInCU: 0x2C9A4, offset: 0x2C9A4, size: 0x8, addend: 0x0, symName: __ZNSt3__116allocator_traitsINS_9allocatorIhEEE7destroyB8ue170006IhvvEEvRS2_PT_, symObjAddr: 0x5350, symBinAddr: 0x100007CE4, symSize: 0x28 }
  - { offsetInCU: 0x2C9DF, offset: 0x2C9DF, size: 0x8, addend: 0x0, symName: __ZNKSt3__16vectorIhNS_9allocatorIhEEE4sizeB8ue170006Ev, symObjAddr: 0x53AC, symBinAddr: 0x100007D40, symSize: 0x20 }
  - { offsetInCU: 0x2CA05, offset: 0x2CA05, size: 0x8, addend: 0x0, symName: __ZNSt3__19allocatorIhE10deallocateB8ue170006EPhm, symObjAddr: 0x53CC, symBinAddr: 0x100007D60, symSize: 0x40 }
  - { offsetInCU: 0x2CA47, offset: 0x2CA47, size: 0x8, addend: 0x0, symName: __ZN3RefIN4MQTT14ConnAckMessageEEC2EPS1_, symObjAddr: 0x540C, symBinAddr: 0x100007DA0, symSize: 0x38 }
  - { offsetInCU: 0x2CA7F, offset: 0x2CA7F, size: 0x8, addend: 0x0, symName: __ZNK3RefIN4MQTT14ConnAckMessageEE6IncRefEv, symObjAddr: 0x5444, symBinAddr: 0x100007DD8, symSize: 0x48 }
  - { offsetInCU: 0x2CAA5, offset: 0x2CAA5, size: 0x8, addend: 0x0, symName: __ZN3RefIN4MQTT7MessageEEC2INS0_14ConnAckMessageEEEOS_IT_E, symObjAddr: 0x548C, symBinAddr: 0x100007E20, symSize: 0x30 }
  - { offsetInCU: 0x2CAE6, offset: 0x2CAE6, size: 0x8, addend: 0x0, symName: __ZN3RefIN4MQTT14ConnAckMessageEED2Ev, symObjAddr: 0x54BC, symBinAddr: 0x100007E50, symSize: 0x34 }
  - { offsetInCU: 0x2CB10, offset: 0x2CB10, size: 0x8, addend: 0x0, symName: __ZNK3RefIN4MQTT14ConnAckMessageEE6DecRefEv, symObjAddr: 0x54F0, symBinAddr: 0x100007E84, symSize: 0x98 }
  - { offsetInCU: 0x2CB36, offset: 0x2CB36, size: 0x8, addend: 0x0, symName: __ZN3RefIN4MQTT14ConnectMessageEED2Ev, symObjAddr: 0x5588, symBinAddr: 0x100007F1C, symSize: 0x34 }
  - { offsetInCU: 0x2CB60, offset: 0x2CB60, size: 0x8, addend: 0x0, symName: __ZNK3RefIN4MQTT14ConnectMessageEE6DecRefEv, symObjAddr: 0x55BC, symBinAddr: 0x100007F50, symSize: 0x98 }
  - { offsetInCU: 0x2CB86, offset: 0x2CB86, size: 0x8, addend: 0x0, symName: __ZN3RefIN4MQTT14PublishMessageEEC1INS0_7MessageEEERKS_IT_E, symObjAddr: 0x5654, symBinAddr: 0x100007FE8, symSize: 0x34 }
  - { offsetInCU: 0x2CBC7, offset: 0x2CBC7, size: 0x8, addend: 0x0, symName: __ZN3RefIN4MQTT14PublishMessageEEC2INS0_7MessageEEERKS_IT_E, symObjAddr: 0x5688, symBinAddr: 0x10000801C, symSize: 0x40 }
  - { offsetInCU: 0x2CC08, offset: 0x2CC08, size: 0x8, addend: 0x0, symName: __ZNK3RefIN4MQTT14PublishMessageEE6IncRefEv, symObjAddr: 0x56C8, symBinAddr: 0x10000805C, symSize: 0x48 }
  - { offsetInCU: 0x2CC2E, offset: 0x2CC2E, size: 0x8, addend: 0x0, symName: __ZN3RefIN4MQTT14PublishMessageEEC2ERKS2_, symObjAddr: 0x5710, symBinAddr: 0x1000080A4, symSize: 0x3C }
  - { offsetInCU: 0x2CC66, offset: 0x2CC66, size: 0x8, addend: 0x0, symName: __ZN3RefIN4MQTT14PublishMessageEED2Ev, symObjAddr: 0x574C, symBinAddr: 0x1000080E0, symSize: 0x34 }
  - { offsetInCU: 0x2CC90, offset: 0x2CC90, size: 0x8, addend: 0x0, symName: __ZNK3RefIN4MQTT14PublishMessageEE6DecRefEv, symObjAddr: 0x5780, symBinAddr: 0x100008114, symSize: 0x98 }
  - { offsetInCU: 0x2CDB8, offset: 0x2CDB8, size: 0x8, addend: 0x0, symName: __ZNSt3__19allocatorIcEC1B8ue170006Ev, symObjAddr: 0x59C4, symBinAddr: 0x100008358, symSize: 0x2C }
  - { offsetInCU: 0x2CE0F, offset: 0x2CE0F, size: 0x8, addend: 0x0, symName: __ZN3fmt3v1019basic_memory_bufferIcLm500ENSt3__19allocatorIcEEEC1ERKS4_, symObjAddr: 0x59F0, symBinAddr: 0x100008384, symSize: 0x34 }
  - { offsetInCU: 0x2CE66, offset: 0x2CE66, size: 0x8, addend: 0x0, symName: __ZN3fmt3v1019basic_memory_bufferIcLm500ENSt3__19allocatorIcEEED1Ev, symObjAddr: 0x60D4, symBinAddr: 0x100008A68, symSize: 0x2C }
  - { offsetInCU: 0x2CE90, offset: 0x2CE90, size: 0x8, addend: 0x0, symName: __ZN3fmt3v1019basic_memory_bufferIcLm500ENSt3__19allocatorIcEEEC2ERKS4_, symObjAddr: 0x6100, symBinAddr: 0x100008A94, symSize: 0x68 }
  - { offsetInCU: 0x2CEC9, offset: 0x2CEC9, size: 0x8, addend: 0x0, symName: __ZN3fmt3v106detail6bufferIcEC2EPcmm, symObjAddr: 0x6168, symBinAddr: 0x100008AFC, symSize: 0x48 }
  - { offsetInCU: 0x2CF20, offset: 0x2CF20, size: 0x8, addend: 0x0, symName: __ZN3fmt3v106detail6bufferIcE3setEPcm, symObjAddr: 0x61B0, symBinAddr: 0x100008B44, symSize: 0x2C }
  - { offsetInCU: 0x2CF64, offset: 0x2CF64, size: 0x8, addend: 0x0, symName: __ZN3fmt3v1019basic_memory_bufferIcLm500ENSt3__19allocatorIcEEE4growEm, symObjAddr: 0x61DC, symBinAddr: 0x100008B70, symSize: 0x198 }
  - { offsetInCU: 0x2CFF0, offset: 0x2CFF0, size: 0x8, addend: 0x0, symName: __ZNSt3__116allocator_traitsINS_9allocatorIcEEE8max_sizeB8ue170006IS2_vvEEmRKS2_, symObjAddr: 0x639C, symBinAddr: 0x100008D30, symSize: 0x28 }
  - { offsetInCU: 0x2D01C, offset: 0x2D01C, size: 0x8, addend: 0x0, symName: __ZNK3fmt3v106detail6bufferIcE8capacityEv, symObjAddr: 0x63C4, symBinAddr: 0x100008D58, symSize: 0x18 }
  - { offsetInCU: 0x2D042, offset: 0x2D042, size: 0x8, addend: 0x0, symName: __ZN3fmt3v106detail6bufferIcE4dataEv, symObjAddr: 0x63DC, symBinAddr: 0x100008D70, symSize: 0x18 }
  - { offsetInCU: 0x2D068, offset: 0x2D068, size: 0x8, addend: 0x0, symName: __ZNSt3__116allocator_traitsINS_9allocatorIcEEE8allocateB8ue170006ERS2_m, symObjAddr: 0x63F4, symBinAddr: 0x100008D88, symSize: 0x2C }
  - { offsetInCU: 0x2D09B, offset: 0x2D09B, size: 0x8, addend: 0x0, symName: __ZNK3fmt3v106detail6bufferIcE4sizeEv, symObjAddr: 0x6420, symBinAddr: 0x100008DB4, symSize: 0x18 }
  - { offsetInCU: 0x2D0C1, offset: 0x2D0C1, size: 0x8, addend: 0x0, symName: __ZNSt3__19allocatorIcE10deallocateB8ue170006EPcm, symObjAddr: 0x6478, symBinAddr: 0x100008E0C, symSize: 0x40 }
  - { offsetInCU: 0x2D103, offset: 0x2D103, size: 0x8, addend: 0x0, symName: __ZNSt3__19allocatorIcE8allocateB8ue170006Em, symObjAddr: 0x64C8, symBinAddr: 0x100008E5C, symSize: 0x58 }
  - { offsetInCU: 0x2D155, offset: 0x2D155, size: 0x8, addend: 0x0, symName: __ZNSt3__14pairIPcS1_EC1B8ue170006IS1_S1_LPv0EEEOT_OT0_, symObjAddr: 0x6668, symBinAddr: 0x100008FA0, symSize: 0x3C }
  - { offsetInCU: 0x2D1B3, offset: 0x2D1B3, size: 0x8, addend: 0x0, symName: __ZNSt3__14pairIPcS1_EC2B8ue170006IS1_S1_LPv0EEEOT_OT0_, symObjAddr: 0x66B4, symBinAddr: 0x100008FDC, symSize: 0x34 }
  - { offsetInCU: 0x2D211, offset: 0x2D211, size: 0x8, addend: 0x0, symName: __ZN3fmt3v108appenderCI1NSt3__120back_insert_iteratorINS0_6detail6bufferIcEEEEERS6_, symObjAddr: 0x66E8, symBinAddr: 0x100009010, symSize: 0x34 }
  - { offsetInCU: 0x2D247, offset: 0x2D247, size: 0x8, addend: 0x0, symName: __ZNK3fmt3v1017basic_string_viewIcE4sizeEv, symObjAddr: 0x671C, symBinAddr: 0x100009044, symSize: 0x18 }
  - { offsetInCU: 0x2D26D, offset: 0x2D26D, size: 0x8, addend: 0x0, symName: __ZNK3fmt3v1017basic_string_viewIcE4dataEv, symObjAddr: 0x6770, symBinAddr: 0x100009098, symSize: 0x18 }
  - { offsetInCU: 0x2D293, offset: 0x2D293, size: 0x8, addend: 0x0, symName: __ZNK3fmt3v1017basic_format_argsINS0_20basic_format_contextINS0_8appenderEcEEE3getEi, symObjAddr: 0x6788, symBinAddr: 0x1000090B0, symSize: 0xF8 }
  - { offsetInCU: 0x2D2D9, offset: 0x2D2D9, size: 0x8, addend: 0x0, symName: __ZNK3fmt3v1016basic_format_argINS0_20basic_format_contextINS0_8appenderEcEEEcvbEv, symObjAddr: 0x6880, symBinAddr: 0x1000091A8, symSize: 0x24 }
  - { offsetInCU: 0x2D2FF, offset: 0x2D2FF, size: 0x8, addend: 0x0, symName: __ZZN3fmt3v106detail10vformat_toIcEEvRNS1_6bufferIT_EENS0_17basic_string_viewIS4_EENS1_12vformat_argsIS4_E4typeENS1_10locale_refEEN14format_handlerC1ENS0_8appenderENS7_IcEENS0_17basic_format_argsINS0_20basic_format_contextISE_cEEEESC_, symObjAddr: 0x6908, symBinAddr: 0x100009230, symSize: 0x5C }
  - { offsetInCU: 0x2D365, offset: 0x2D365, size: 0x8, addend: 0x0, symName: __ZN3fmt3v108appenderCI2NSt3__120back_insert_iteratorINS0_6detail6bufferIcEEEEERS6_, symObjAddr: 0x6964, symBinAddr: 0x10000928C, symSize: 0x34 }
  - { offsetInCU: 0x2D39B, offset: 0x2D39B, size: 0x8, addend: 0x0, symName: __ZNSt3__120back_insert_iteratorIN3fmt3v106detail6bufferIcEEEC2B8ue170006ERS5_, symObjAddr: 0x6998, symBinAddr: 0x1000092C0, symSize: 0x20 }
  - { offsetInCU: 0x2D3D3, offset: 0x2D3D3, size: 0x8, addend: 0x0, symName: __ZN3fmt3v1016basic_format_argINS0_20basic_format_contextINS0_8appenderEcEEEC1Ev, symObjAddr: 0x69B8, symBinAddr: 0x1000092E0, symSize: 0x2C }
  - { offsetInCU: 0x2D3FD, offset: 0x2D3FD, size: 0x8, addend: 0x0, symName: __ZNK3fmt3v1017basic_format_argsINS0_20basic_format_contextINS0_8appenderEcEEE9is_packedEv, symObjAddr: 0x69E4, symBinAddr: 0x10000930C, symSize: 0x24 }
  - { offsetInCU: 0x2D423, offset: 0x2D423, size: 0x8, addend: 0x0, symName: __ZNK3fmt3v1017basic_format_argsINS0_20basic_format_contextINS0_8appenderEcEEE8max_sizeEv, symObjAddr: 0x6A08, symBinAddr: 0x100009330, symSize: 0x60 }
  - { offsetInCU: 0x2D458, offset: 0x2D458, size: 0x8, addend: 0x0, symName: __ZNK3fmt3v1017basic_format_argsINS0_20basic_format_contextINS0_8appenderEcEEE4typeEi, symObjAddr: 0x6A68, symBinAddr: 0x100009390, symSize: 0x44 }
  - { offsetInCU: 0x2D4AB, offset: 0x2D4AB, size: 0x8, addend: 0x0, symName: __ZN3fmt3v1016basic_format_argINS0_20basic_format_contextINS0_8appenderEcEEEC2Ev, symObjAddr: 0x6AAC, symBinAddr: 0x1000093D4, symSize: 0x40 }
  - { offsetInCU: 0x2D515, offset: 0x2D515, size: 0x8, addend: 0x0, symName: __ZN3fmt3v109monostateC1Ev, symObjAddr: 0x6AEC, symBinAddr: 0x100009414, symSize: 0x2C }
  - { offsetInCU: 0x2D53F, offset: 0x2D53F, size: 0x8, addend: 0x0, symName: __ZN3fmt3v109monostateC2Ev, symObjAddr: 0x6B18, symBinAddr: 0x100009440, symSize: 0x14 }
  - { offsetInCU: 0x2D56F, offset: 0x2D56F, size: 0x8, addend: 0x0, symName: __ZN3fmt3v1012format_errorCI1St13runtime_errorEPKc, symObjAddr: 0x6B2C, symBinAddr: 0x100009454, symSize: 0x34 }
  - { offsetInCU: 0x2D5A5, offset: 0x2D5A5, size: 0x8, addend: 0x0, symName: __ZN3fmt3v1012format_errorD1Ev, symObjAddr: 0x6B60, symBinAddr: 0x100009488, symSize: 0x2C }
  - { offsetInCU: 0x2D5D2, offset: 0x2D5D2, size: 0x8, addend: 0x0, symName: __ZN3fmt3v1012format_errorCI2St13runtime_errorEPKc, symObjAddr: 0x6B8C, symBinAddr: 0x1000094B4, symSize: 0x4C }
  - { offsetInCU: 0x2D608, offset: 0x2D608, size: 0x8, addend: 0x0, symName: __ZN3fmt3v1012format_errorD0Ev, symObjAddr: 0x6BD8, symBinAddr: 0x100009500, symSize: 0x30 }
  - { offsetInCU: 0x2D635, offset: 0x2D635, size: 0x8, addend: 0x0, symName: __ZN3fmt3v1012format_errorD2Ev, symObjAddr: 0x6C08, symBinAddr: 0x100009530, symSize: 0x2C }
  - { offsetInCU: 0x2D662, offset: 0x2D662, size: 0x8, addend: 0x0, symName: __ZN3fmt3v106detail21default_arg_formatterIcEclIiEENS0_8appenderET_, symObjAddr: 0x6C34, symBinAddr: 0x10000955C, symSize: 0x40 }
  - { offsetInCU: 0x2D6A0, offset: 0x2D6A0, size: 0x8, addend: 0x0, symName: __ZN3fmt3v106detail21default_arg_formatterIcEclIjEENS0_8appenderET_, symObjAddr: 0x6C74, symBinAddr: 0x10000959C, symSize: 0x40 }
  - { offsetInCU: 0x2D6DE, offset: 0x2D6DE, size: 0x8, addend: 0x0, symName: __ZN3fmt3v106detail21default_arg_formatterIcEclIxEENS0_8appenderET_, symObjAddr: 0x6CB4, symBinAddr: 0x1000095DC, symSize: 0x40 }
  - { offsetInCU: 0x2D71C, offset: 0x2D71C, size: 0x8, addend: 0x0, symName: __ZN3fmt3v106detail21default_arg_formatterIcEclIyEENS0_8appenderET_, symObjAddr: 0x6CF4, symBinAddr: 0x10000961C, symSize: 0x40 }
  - { offsetInCU: 0x2D75A, offset: 0x2D75A, size: 0x8, addend: 0x0, symName: __ZN3fmt3v106detail21default_arg_formatterIcEclInEENS0_8appenderET_, symObjAddr: 0x6D34, symBinAddr: 0x10000965C, symSize: 0x58 }
  - { offsetInCU: 0x2D798, offset: 0x2D798, size: 0x8, addend: 0x0, symName: __ZN3fmt3v106detail21default_arg_formatterIcEclIoEENS0_8appenderET_, symObjAddr: 0x6DB8, symBinAddr: 0x1000096E0, symSize: 0x58 }
  - { offsetInCU: 0x2D7D6, offset: 0x2D7D6, size: 0x8, addend: 0x0, symName: __ZN3fmt3v106detail21default_arg_formatterIcEclIbEENS0_8appenderET_, symObjAddr: 0x6E3C, symBinAddr: 0x100009764, symSize: 0x80 }
  - { offsetInCU: 0x2D854, offset: 0x2D854, size: 0x8, addend: 0x0, symName: __ZN3fmt3v106detail21default_arg_formatterIcEclIcEENS0_8appenderET_, symObjAddr: 0x6EBC, symBinAddr: 0x1000097E4, symSize: 0x40 }
  - { offsetInCU: 0x2D892, offset: 0x2D892, size: 0x8, addend: 0x0, symName: __ZN3fmt3v106detail21default_arg_formatterIcEclIfEENS0_8appenderET_, symObjAddr: 0x6EFC, symBinAddr: 0x100009824, symSize: 0x40 }
  - { offsetInCU: 0x2D8D0, offset: 0x2D8D0, size: 0x8, addend: 0x0, symName: __ZN3fmt3v106detail21default_arg_formatterIcEclIdEENS0_8appenderET_, symObjAddr: 0x6F3C, symBinAddr: 0x100009864, symSize: 0x40 }
  - { offsetInCU: 0x2D90E, offset: 0x2D90E, size: 0x8, addend: 0x0, symName: __ZN3fmt3v106detail21default_arg_formatterIcEclIeEENS0_8appenderET_, symObjAddr: 0x6F7C, symBinAddr: 0x1000098A4, symSize: 0x40 }
  - { offsetInCU: 0x2D94C, offset: 0x2D94C, size: 0x8, addend: 0x0, symName: __ZN3fmt3v106detail21default_arg_formatterIcEclIPKcEENS0_8appenderET_, symObjAddr: 0x6FBC, symBinAddr: 0x1000098E4, symSize: 0x40 }
  - { offsetInCU: 0x2D98A, offset: 0x2D98A, size: 0x8, addend: 0x0, symName: __ZN3fmt3v106detail21default_arg_formatterIcEclINS0_17basic_string_viewIcEEEENS0_8appenderET_, symObjAddr: 0x6FFC, symBinAddr: 0x100009924, symSize: 0x50 }
  - { offsetInCU: 0x2D9C8, offset: 0x2D9C8, size: 0x8, addend: 0x0, symName: __ZN3fmt3v1017basic_string_viewIcEC1EPKcm, symObjAddr: 0x704C, symBinAddr: 0x100009974, symSize: 0x3C }
  - { offsetInCU: 0x2DA10, offset: 0x2DA10, size: 0x8, addend: 0x0, symName: __ZN3fmt3v106detail21default_arg_formatterIcEclIPKvEENS0_8appenderET_, symObjAddr: 0x7088, symBinAddr: 0x1000099B0, symSize: 0x74 }
  - { offsetInCU: 0x2DA8E, offset: 0x2DA8E, size: 0x8, addend: 0x0, symName: __ZN3fmt3v106detail21default_arg_formatterIcEclENS0_16basic_format_argINS0_20basic_format_contextINS0_8appenderEcEEE6handleE, symObjAddr: 0x70FC, symBinAddr: 0x100009A24, symSize: 0xAC }
  - { offsetInCU: 0x2DAE2, offset: 0x2DAE2, size: 0x8, addend: 0x0, symName: __ZN3fmt3v1016basic_format_argINS0_20basic_format_contextINS0_8appenderEcEEE6handleC1ENS0_6detail12custom_valueIS4_EE, symObjAddr: 0x71A8, symBinAddr: 0x100009AD0, symSize: 0x3C }
  - { offsetInCU: 0x2DB1B, offset: 0x2DB1B, size: 0x8, addend: 0x0, symName: __ZN3fmt3v106detail21default_arg_formatterIcEclINS0_9monostateEEENS0_8appenderET_, symObjAddr: 0x71E4, symBinAddr: 0x100009B0C, symSize: 0x64 }
  - { offsetInCU: 0x2DB99, offset: 0x2DB99, size: 0x8, addend: 0x0, symName: __ZN3fmt3v108appenderppEi, symObjAddr: 0x769C, symBinAddr: 0x100009FC4, symSize: 0x24 }
  - { offsetInCU: 0x2DBCB, offset: 0x2DBCB, size: 0x8, addend: 0x0, symName: __ZNSt3__120back_insert_iteratorIN3fmt3v106detail6bufferIcEEEdeB8ue170006Ev, symObjAddr: 0x76C0, symBinAddr: 0x100009FE8, symSize: 0x14 }
  - { offsetInCU: 0x2DBF1, offset: 0x2DBF1, size: 0x8, addend: 0x0, symName: __ZNSt3__120back_insert_iteratorIN3fmt3v106detail6bufferIcEEEaSB8ue170006EOc, symObjAddr: 0x76D4, symBinAddr: 0x100009FFC, symSize: 0x38 }
  - { offsetInCU: 0x2DC25, offset: 0x2DC25, size: 0x8, addend: 0x0, symName: __ZN3fmt3v106detail6bufferIcE10try_resizeEm, symObjAddr: 0x7824, symBinAddr: 0x10000A14C, symSize: 0x74 }
  - { offsetInCU: 0x2DC5A, offset: 0x2DC5A, size: 0x8, addend: 0x0, symName: __ZZN3fmt3v106detail13get_containerINS1_6bufferIcEEEERT_NSt3__120back_insert_iteratorIS5_EEEN8accessorC1ENS8_IS4_EE, symObjAddr: 0x7898, symBinAddr: 0x10000A1C0, symSize: 0x34 }
  - { offsetInCU: 0x2DC93, offset: 0x2DC93, size: 0x8, addend: 0x0, symName: __ZZN3fmt3v106detail13get_containerINS1_6bufferIcEEEERT_NSt3__120back_insert_iteratorIS5_EEEN8accessorC2ENS8_IS4_EE, symObjAddr: 0x78CC, symBinAddr: 0x10000A1F4, symSize: 0x20 }
  - { offsetInCU: 0x2DCCC, offset: 0x2DCCC, size: 0x8, addend: 0x0, symName: __ZN3fmt3v106detail6bufferIcE11try_reserveEm, symObjAddr: 0x78EC, symBinAddr: 0x10000A214, symSize: 0x58 }
  - { offsetInCU: 0x2DD01, offset: 0x2DD01, size: 0x8, addend: 0x0, symName: __ZN3fmt3v106detail6bufferIcE9push_backERKc, symObjAddr: 0x79B8, symBinAddr: 0x10000A2E0, symSize: 0x58 }
  - { offsetInCU: 0x2DD36, offset: 0x2DD36, size: 0x8, addend: 0x0, symName: __ZN3fmt3v106detail6bufferIcE6appendIcEEvPKT_S7_, symObjAddr: 0x7AA0, symBinAddr: 0x10000A3C8, symSize: 0xF0 }
  - { offsetInCU: 0x2DDD6, offset: 0x2DDD6, size: 0x8, addend: 0x0, symName: __ZNSt3__14pairIPKcPcEC1B8ue170006IS2_S3_LPv0EEEOT_OT0_, symObjAddr: 0x7CE4, symBinAddr: 0x10000A60C, symSize: 0x3C }
  - { offsetInCU: 0x2DE34, offset: 0x2DE34, size: 0x8, addend: 0x0, symName: __ZNSt3__14pairIPKcPcEC2B8ue170006IS2_S3_LPv0EEEOT_OT0_, symObjAddr: 0x7D20, symBinAddr: 0x10000A648, symSize: 0x34 }
  - { offsetInCU: 0x2DEE6, offset: 0x2DEE6, size: 0x8, addend: 0x0, symName: __ZN3fmt3v1012format_specsIcEC1Ev, symObjAddr: 0x8FF4, symBinAddr: 0x10000B91C, symSize: 0x2C }
  - { offsetInCU: 0x2DF16, offset: 0x2DF16, size: 0x8, addend: 0x0, symName: __ZN3fmt3v109loc_valueC1IiLi0EEET_, symObjAddr: 0x9230, symBinAddr: 0x10000BB58, symSize: 0x34 }
  - { offsetInCU: 0x2DF64, offset: 0x2DF64, size: 0x8, addend: 0x0, symName: __ZNK3fmt3v106detail10locale_ref3getINSt3__16localeEEET_v, symObjAddr: 0x9CB0, symBinAddr: 0x10000C5D8, symSize: 0x60 }
  - { offsetInCU: 0x2DF93, offset: 0x2DF93, size: 0x8, addend: 0x0, symName: __ZNK3fmt3v1012format_facetINSt3__16localeEE3putENS0_8appenderENS0_9loc_valueERKNS0_12format_specsIcEE, symObjAddr: 0x9D7C, symBinAddr: 0x10000C6A4, symSize: 0xA4 }
  - { offsetInCU: 0x2DFE7, offset: 0x2DFE7, size: 0x8, addend: 0x0, symName: __ZN3fmt3v1012format_facetINSt3__16localeEEC1ERS3_, symObjAddr: 0x9E20, symBinAddr: 0x10000C748, symSize: 0x34 }
  - { offsetInCU: 0x2E022, offset: 0x2E022, size: 0x8, addend: 0x0, symName: __ZN3fmt3v1012format_facetINSt3__16localeEED1Ev, symObjAddr: 0x9E54, symBinAddr: 0x10000C77C, symSize: 0x2C }
  - { offsetInCU: 0x2E04F, offset: 0x2E04F, size: 0x8, addend: 0x0, symName: __ZN3fmt3v1012format_facetINSt3__16localeEEC2ERS3_, symObjAddr: 0x9E80, symBinAddr: 0x10000C7A8, symSize: 0x160 }
  - { offsetInCU: 0x2E09F, offset: 0x2E09F, size: 0x8, addend: 0x0, symName: __ZNSt3__16locale5facetC2B8ue170006Em, symObjAddr: 0x9FE0, symBinAddr: 0x10000C908, symSize: 0x50 }
  - { offsetInCU: 0x2E0D7, offset: 0x2E0D7, size: 0x8, addend: 0x0, symName: __ZNSt3__112basic_stringIcNS_11char_traitsIcEENS_9allocatorIcEEEC1B8ue170006Ev, symObjAddr: 0xA030, symBinAddr: 0x10000C958, symSize: 0x2C }
  - { offsetInCU: 0x2E113, offset: 0x2E113, size: 0x8, addend: 0x0, symName: __ZNKSt3__18numpunctIcE8groupingB8ue170006Ev, symObjAddr: 0xA088, symBinAddr: 0x10000C9B0, symSize: 0x34 }
  - { offsetInCU: 0x2E139, offset: 0x2E139, size: 0x8, addend: 0x0, symName: __ZNSt3__112basic_stringIcNS_11char_traitsIcEENS_9allocatorIcEEEaSB8ue170006EOS5_, symObjAddr: 0xA0BC, symBinAddr: 0x10000C9E4, symSize: 0x34 }
  - { offsetInCU: 0x2E16E, offset: 0x2E16E, size: 0x8, addend: 0x0, symName: __ZNKSt3__112basic_stringIcNS_11char_traitsIcEENS_9allocatorIcEEE5emptyB8ue170006Ev, symObjAddr: 0xA0F0, symBinAddr: 0x10000CA18, symSize: 0x30 }
  - { offsetInCU: 0x2E194, offset: 0x2E194, size: 0x8, addend: 0x0, symName: __ZNKSt3__18numpunctIcE13thousands_sepB8ue170006Ev, symObjAddr: 0xA120, symBinAddr: 0x10000CA48, symSize: 0x30 }
  - { offsetInCU: 0x2E1BA, offset: 0x2E1BA, size: 0x8, addend: 0x0, symName: __ZN3fmt3v1012format_facetINSt3__16localeEED0Ev, symObjAddr: 0xA150, symBinAddr: 0x10000CA78, symSize: 0x30 }
  - { offsetInCU: 0x2E1E7, offset: 0x2E1E7, size: 0x8, addend: 0x0, symName: __ZNK3fmt3v1012format_facetINSt3__16localeEE6do_putENS0_8appenderENS0_9loc_valueERKNS0_12format_specsIcEE, symObjAddr: 0xA180, symBinAddr: 0x10000CAA8, symSize: 0x10C }
  - { offsetInCU: 0x2E238, offset: 0x2E238, size: 0x8, addend: 0x0, symName: __ZNSt3__114__shared_countC2B8ue170006El, symObjAddr: 0xA28C, symBinAddr: 0x10000CBB4, symSize: 0x30 }
  - { offsetInCU: 0x2E270, offset: 0x2E270, size: 0x8, addend: 0x0, symName: __ZNSt3__112basic_stringIcNS_11char_traitsIcEENS_9allocatorIcEEEC2B8ue170006Ev, symObjAddr: 0xA2BC, symBinAddr: 0x10000CBE4, symSize: 0x48 }
  - { offsetInCU: 0x2E29A, offset: 0x2E29A, size: 0x8, addend: 0x0, symName: __ZNSt3__112basic_stringIcNS_11char_traitsIcEENS_9allocatorIcEEE14__default_initB8ue170006Ev, symObjAddr: 0xA304, symBinAddr: 0x10000CC2C, symSize: 0x40 }
  - { offsetInCU: 0x2E2C0, offset: 0x2E2C0, size: 0x8, addend: 0x0, symName: __ZNSt3__112basic_stringIcNS_11char_traitsIcEENS_9allocatorIcEEE13__move_assignB8ue170006ERS5_NS_17integral_constantIbLb1EEE, symObjAddr: 0xA344, symBinAddr: 0x10000CC6C, symSize: 0xC8 }
  - { offsetInCU: 0x2E303, offset: 0x2E303, size: 0x8, addend: 0x0, symName: __ZNSt3__116allocator_traitsINS_9allocatorIcEEE10deallocateB8ue170006ERS2_Pcm, symObjAddr: 0xA40C, symBinAddr: 0x10000CD34, symSize: 0x34 }
  - { offsetInCU: 0x2E345, offset: 0x2E345, size: 0x8, addend: 0x0, symName: __ZNSt3__112basic_stringIcNS_11char_traitsIcEENS_9allocatorIcEEE7__allocB8ue170006Ev, symObjAddr: 0xA440, symBinAddr: 0x10000CD68, symSize: 0x24 }
  - { offsetInCU: 0x2E36B, offset: 0x2E36B, size: 0x8, addend: 0x0, symName: __ZNKSt3__112basic_stringIcNS_11char_traitsIcEENS_9allocatorIcEEE14__get_long_capB8ue170006Ev, symObjAddr: 0xA464, symBinAddr: 0x10000CD8C, symSize: 0x30 }
  - { offsetInCU: 0x2E391, offset: 0x2E391, size: 0x8, addend: 0x0, symName: __ZNSt3__112basic_stringIcNS_11char_traitsIcEENS_9allocatorIcEEE19__move_assign_allocB8ue170006ERS5_, symObjAddr: 0xA494, symBinAddr: 0x10000CDBC, symSize: 0x2C }
  - { offsetInCU: 0x2E3C6, offset: 0x2E3C6, size: 0x8, addend: 0x0, symName: __ZNSt3__112basic_stringIcNS_11char_traitsIcEENS_9allocatorIcEEE16__set_short_sizeB8ue170006Em, symObjAddr: 0xA4C0, symBinAddr: 0x10000CDE8, symSize: 0x78 }
  - { offsetInCU: 0x2E3FB, offset: 0x2E3FB, size: 0x8, addend: 0x0, symName: __ZNSt3__111char_traitsIcE6assignB8ue170006ERcRKc, symObjAddr: 0xA538, symBinAddr: 0x10000CE60, symSize: 0x24 }
  - { offsetInCU: 0x2E42C, offset: 0x2E42C, size: 0x8, addend: 0x0, symName: __ZNSt3__117__compressed_pairINS_12basic_stringIcNS_11char_traitsIcEENS_9allocatorIcEEE5__repES5_E6secondB8ue170006Ev, symObjAddr: 0xA55C, symBinAddr: 0x10000CE84, symSize: 0x24 }
  - { offsetInCU: 0x2E452, offset: 0x2E452, size: 0x8, addend: 0x0, symName: __ZNSt3__122__compressed_pair_elemINS_9allocatorIcEELi1ELb1EE5__getB8ue170006Ev, symObjAddr: 0xA580, symBinAddr: 0x10000CEA8, symSize: 0x14 }
  - { offsetInCU: 0x2E478, offset: 0x2E478, size: 0x8, addend: 0x0, symName: __ZNSt3__112basic_stringIcNS_11char_traitsIcEENS_9allocatorIcEEE19__move_assign_allocB8ue170006ERS5_NS_17integral_constantIbLb1EEE, symObjAddr: 0xA594, symBinAddr: 0x10000CEBC, symSize: 0x38 }
  - { offsetInCU: 0x2E4C5, offset: 0x2E4C5, size: 0x8, addend: 0x0, symName: __ZN3fmt3v109loc_value5visitINS0_6detail10loc_writerIcEEEEDTclfp_Li0EEEOT_, symObjAddr: 0xA5CC, symBinAddr: 0x10000CEF4, symSize: 0x31C }
  - { offsetInCU: 0x2E534, offset: 0x2E534, size: 0x8, addend: 0x0, symName: __ZN3fmt3v106detail10loc_writerIcED1Ev, symObjAddr: 0xA928, symBinAddr: 0x10000D250, symSize: 0x2C }
  - { offsetInCU: 0x2E561, offset: 0x2E561, size: 0x8, addend: 0x0, symName: __ZN3fmt3v106detail10loc_writerIcEclIiLi0EEEbT_, symObjAddr: 0xA954, symBinAddr: 0x10000D27C, symSize: 0x148 }
  - { offsetInCU: 0x2E5B4, offset: 0x2E5B4, size: 0x8, addend: 0x0, symName: __ZN3fmt3v106detail10loc_writerIcEclIjLi0EEEbT_, symObjAddr: 0xAA9C, symBinAddr: 0x10000D3C4, symSize: 0x148 }
  - { offsetInCU: 0x2E607, offset: 0x2E607, size: 0x8, addend: 0x0, symName: __ZN3fmt3v106detail10loc_writerIcEclIxLi0EEEbT_, symObjAddr: 0xABE4, symBinAddr: 0x10000D50C, symSize: 0x148 }
  - { offsetInCU: 0x2E65A, offset: 0x2E65A, size: 0x8, addend: 0x0, symName: __ZN3fmt3v106detail10loc_writerIcEclIyLi0EEEbT_, symObjAddr: 0xAD2C, symBinAddr: 0x10000D654, symSize: 0x148 }
  - { offsetInCU: 0x2E6AD, offset: 0x2E6AD, size: 0x8, addend: 0x0, symName: __ZN3fmt3v106detail10loc_writerIcEclInLi0EEEbT_, symObjAddr: 0xAE74, symBinAddr: 0x10000D79C, symSize: 0x174 }
  - { offsetInCU: 0x2E701, offset: 0x2E701, size: 0x8, addend: 0x0, symName: __ZN3fmt3v106detail10loc_writerIcEclIoLi0EEEbT_, symObjAddr: 0xAFE8, symBinAddr: 0x10000D910, symSize: 0x174 }
  - { offsetInCU: 0x2E755, offset: 0x2E755, size: 0x8, addend: 0x0, symName: __ZN3fmt3v106detail10loc_writerIcEclIbLi0EEEbT_, symObjAddr: 0xB15C, symBinAddr: 0x10000DA84, symSize: 0x24 }
  - { offsetInCU: 0x2E796, offset: 0x2E796, size: 0x8, addend: 0x0, symName: __ZN3fmt3v106detail10loc_writerIcEclIcLi0EEEbT_, symObjAddr: 0xB180, symBinAddr: 0x10000DAA8, symSize: 0x1C }
  - { offsetInCU: 0x2E7D7, offset: 0x2E7D7, size: 0x8, addend: 0x0, symName: __ZN3fmt3v106detail10loc_writerIcEclIfLi0EEEbT_, symObjAddr: 0xB19C, symBinAddr: 0x10000DAC4, symSize: 0x1C }
  - { offsetInCU: 0x2E818, offset: 0x2E818, size: 0x8, addend: 0x0, symName: __ZN3fmt3v106detail10loc_writerIcEclIdLi0EEEbT_, symObjAddr: 0xB1B8, symBinAddr: 0x10000DAE0, symSize: 0x1C }
  - { offsetInCU: 0x2E859, offset: 0x2E859, size: 0x8, addend: 0x0, symName: __ZN3fmt3v106detail10loc_writerIcEclIeLi0EEEbT_, symObjAddr: 0xB1D4, symBinAddr: 0x10000DAFC, symSize: 0x1C }
  - { offsetInCU: 0x2E89A, offset: 0x2E89A, size: 0x8, addend: 0x0, symName: __ZN3fmt3v106detail10loc_writerIcEclIPKcLi0EEEbT_, symObjAddr: 0xB1F0, symBinAddr: 0x10000DB18, symSize: 0x1C }
  - { offsetInCU: 0x2E8DB, offset: 0x2E8DB, size: 0x8, addend: 0x0, symName: __ZN3fmt3v106detail10loc_writerIcEclINS0_17basic_string_viewIcEELi0EEEbT_, symObjAddr: 0xB20C, symBinAddr: 0x10000DB34, symSize: 0x20 }
  - { offsetInCU: 0x2E91C, offset: 0x2E91C, size: 0x8, addend: 0x0, symName: __ZN3fmt3v106detail10loc_writerIcEclIPKvLi0EEEbT_, symObjAddr: 0xB22C, symBinAddr: 0x10000DB54, symSize: 0x1C }
  - { offsetInCU: 0x2E95D, offset: 0x2E95D, size: 0x8, addend: 0x0, symName: __ZN3fmt3v106detail10loc_writerIcEclINS0_16basic_format_argINS0_20basic_format_contextINS0_8appenderEcEEE6handleELi0EEEbT_, symObjAddr: 0xB248, symBinAddr: 0x10000DB70, symSize: 0x20 }
  - { offsetInCU: 0x2E99E, offset: 0x2E99E, size: 0x8, addend: 0x0, symName: __ZN3fmt3v106detail10loc_writerIcEclINS0_9monostateELi0EEEbT_, symObjAddr: 0xB268, symBinAddr: 0x10000DB90, symSize: 0x18 }
  - { offsetInCU: 0x2E9F7, offset: 0x2E9F7, size: 0x8, addend: 0x0, symName: __ZN3fmt3v106detail14digit_groupingIcEC1ENSt3__112basic_stringIcNS4_11char_traitsIcEENS4_9allocatorIcEEEESA_, symObjAddr: 0xB760, symBinAddr: 0x10000E088, symSize: 0x3C }
  - { offsetInCU: 0x2EA41, offset: 0x2EA41, size: 0x8, addend: 0x0, symName: __ZN3fmt3v106detail14digit_groupingIcED1Ev, symObjAddr: 0xB79C, symBinAddr: 0x10000E0C4, symSize: 0x2C }
  - { offsetInCU: 0x2EA6E, offset: 0x2EA6E, size: 0x8, addend: 0x0, symName: __ZNK3fmt3v106detail14digit_groupingIcE16count_separatorsEi, symObjAddr: 0xBCEC, symBinAddr: 0x10000E614, symSize: 0x78 }
  - { offsetInCU: 0x2EACD, offset: 0x2EACD, size: 0x8, addend: 0x0, symName: __ZZN3fmt3v106detail12count_digitsILi4EyEEiT0_ENKUlyE_clEy, symObjAddr: 0xBF28, symBinAddr: 0x10000E850, symSize: 0x4C }
  - { offsetInCU: 0x2EB21, offset: 0x2EB21, size: 0x8, addend: 0x0, symName: __ZZN3fmt3v106detail12count_digitsILi1EyEEiT0_ENKUlyE_clEy, symObjAddr: 0xC038, symBinAddr: 0x10000E960, symSize: 0x4C }
  - { offsetInCU: 0x2EB75, offset: 0x2EB75, size: 0x8, addend: 0x0, symName: __ZZN3fmt3v106detail12count_digitsILi3EyEEiT0_ENKUlyE_clEy, symObjAddr: 0xC13C, symBinAddr: 0x10000EA64, symSize: 0x4C }
  - { offsetInCU: 0x2EBBD, offset: 0x2EBBD, size: 0x8, addend: 0x0, symName: __ZNK3fmt3v106detail6fill_tIcE4sizeEv, symObjAddr: 0xC454, symBinAddr: 0x10000ED7C, symSize: 0x1C }
  - { offsetInCU: 0x2EBEF, offset: 0x2EBEF, size: 0x8, addend: 0x0, symName: __ZZN3fmt3v106detail10write_charIcNS0_8appenderEEET0_S4_T_RKNS0_12format_specsIS5_EEENKUlS3_E_clES3_, symObjAddr: 0xC564, symBinAddr: 0x10000EE8C, symSize: 0x94 }
  - { offsetInCU: 0x2EC28, offset: 0x2EC28, size: 0x8, addend: 0x0, symName: __ZNK3fmt3v106detail6fill_tIcEixEm, symObjAddr: 0xC688, symBinAddr: 0x10000EFB0, symSize: 0x20 }
  - { offsetInCU: 0x2EC5D, offset: 0x2EC5D, size: 0x8, addend: 0x0, symName: __ZNK3fmt3v106detail6fill_tIcE4dataEv, symObjAddr: 0xC6A8, symBinAddr: 0x10000EFD0, symSize: 0x14 }
  - { offsetInCU: 0x2EC83, offset: 0x2EC83, size: 0x8, addend: 0x0, symName: __ZNSt3__120back_insert_iteratorIN3fmt3v106detail6bufferIcEEEaSB8ue170006ERKc, symObjAddr: 0xC708, symBinAddr: 0x10000F030, symSize: 0x38 }
  - { offsetInCU: 0x2ECB7, offset: 0x2ECB7, size: 0x8, addend: 0x0, symName: __ZNK3fmt3v1017basic_string_viewIcE5beginEv, symObjAddr: 0xD4E0, symBinAddr: 0x10000FE08, symSize: 0x18 }
  - { offsetInCU: 0x2ECDD, offset: 0x2ECDD, size: 0x8, addend: 0x0, symName: __ZNK3fmt3v1017basic_string_viewIcE3endEv, symObjAddr: 0xD4F8, symBinAddr: 0x10000FE20, symSize: 0x20 }
  - { offsetInCU: 0x2ED03, offset: 0x2ED03, size: 0x8, addend: 0x0, symName: __ZNK3fmt3v106detail14digit_groupingIcE13initial_stateEv, symObjAddr: 0xD648, symBinAddr: 0x10000FF70, symSize: 0x34 }
  - { offsetInCU: 0x2ED29, offset: 0x2ED29, size: 0x8, addend: 0x0, symName: __ZNK3fmt3v106detail14digit_groupingIcE4nextERNS3_10next_stateE, symObjAddr: 0xD67C, symBinAddr: 0x10000FFA4, symSize: 0x128 }
  - { offsetInCU: 0x2ED5E, offset: 0x2ED5E, size: 0x8, addend: 0x0, symName: __ZNKSt3__112basic_stringIcNS_11char_traitsIcEENS_9allocatorIcEEE5beginB8ue170006Ev, symObjAddr: 0xD7A4, symBinAddr: 0x1000100CC, symSize: 0x4C }
  - { offsetInCU: 0x2ED84, offset: 0x2ED84, size: 0x8, addend: 0x0, symName: __ZNKSt3__112basic_stringIcNS_11char_traitsIcEENS_9allocatorIcEEE21__make_const_iteratorB8ue170006EPKc, symObjAddr: 0xD7F0, symBinAddr: 0x100010118, symSize: 0x30 }
  - { offsetInCU: 0x2EDB9, offset: 0x2EDB9, size: 0x8, addend: 0x0, symName: __ZNSt3__111__wrap_iterIPKcEC1B8ue170006ES2_, symObjAddr: 0xD820, symBinAddr: 0x100010148, symSize: 0x34 }
  - { offsetInCU: 0x2EDF1, offset: 0x2EDF1, size: 0x8, addend: 0x0, symName: __ZNSt3__111__wrap_iterIPKcEC2B8ue170006ES2_, symObjAddr: 0xD854, symBinAddr: 0x10001017C, symSize: 0x20 }
  - { offsetInCU: 0x2EE29, offset: 0x2EE29, size: 0x8, addend: 0x0, symName: __ZNKSt3__112basic_stringIcNS_11char_traitsIcEENS_9allocatorIcEEE3endB8ue170006Ev, symObjAddr: 0xD8D0, symBinAddr: 0x1000101F8, symSize: 0x54 }
  - { offsetInCU: 0x2EE4F, offset: 0x2EE4F, size: 0x8, addend: 0x0, symName: __ZNKSt3__112basic_stringIcNS_11char_traitsIcEENS_9allocatorIcEEE4backB8ue170006Ev, symObjAddr: 0xD924, symBinAddr: 0x10001024C, symSize: 0x48 }
  - { offsetInCU: 0x2EE75, offset: 0x2EE75, size: 0x8, addend: 0x0, symName: __ZNKSt3__111__wrap_iterIPKcEdeB8ue170006Ev, symObjAddr: 0xD96C, symBinAddr: 0x100010294, symSize: 0x18 }
  - { offsetInCU: 0x2EE9B, offset: 0x2EE9B, size: 0x8, addend: 0x0, symName: __ZNSt3__111__wrap_iterIPKcEppB8ue170006Ei, symObjAddr: 0xD99C, symBinAddr: 0x1000102C4, symSize: 0x34 }
  - { offsetInCU: 0x2EEDA, offset: 0x2EEDA, size: 0x8, addend: 0x0, symName: __ZNSt3__114numeric_limitsIiE3maxB8ue170006Ev, symObjAddr: 0xD9D0, symBinAddr: 0x1000102F8, symSize: 0x14 }
  - { offsetInCU: 0x2EEEE, offset: 0x2EEEE, size: 0x8, addend: 0x0, symName: __ZNSt3__123__libcpp_numeric_limitsIiLb1EE3maxB8ue170006Ev, symObjAddr: 0xD9E4, symBinAddr: 0x10001030C, symSize: 0x8 }
  - { offsetInCU: 0x2EF02, offset: 0x2EF02, size: 0x8, addend: 0x0, symName: __ZNKSt3__111__wrap_iterIPKcE4baseB8ue170006Ev, symObjAddr: 0xD9EC, symBinAddr: 0x100010314, symSize: 0x18 }
  - { offsetInCU: 0x2EF28, offset: 0x2EF28, size: 0x8, addend: 0x0, symName: __ZNSt3__114numeric_limitsIcE3maxB8ue170006Ev, symObjAddr: 0xDA04, symBinAddr: 0x10001032C, symSize: 0x18 }
  - { offsetInCU: 0x2EF3C, offset: 0x2EF3C, size: 0x8, addend: 0x0, symName: __ZNSt3__123__libcpp_numeric_limitsIcLb1EE3maxB8ue170006Ev, symObjAddr: 0xDA1C, symBinAddr: 0x100010344, symSize: 0x8 }
  - { offsetInCU: 0x2EF50, offset: 0x2EF50, size: 0x8, addend: 0x0, symName: __ZNSt3__111__wrap_iterIPKcEppB8ue170006Ev, symObjAddr: 0xDA24, symBinAddr: 0x10001034C, symSize: 0x20 }
  - { offsetInCU: 0x2EF8E, offset: 0x2EF8E, size: 0x8, addend: 0x0, symName: __ZZN3fmt3v106detail9write_intINS0_8appenderEycEET_S4_T0_jRKNS0_12format_specsIT1_EERKNS1_14digit_groupingIS7_EEENKUlS3_E_clES3_, symObjAddr: 0xDA44, symBinAddr: 0x10001036C, symSize: 0xF0 }
  - { offsetInCU: 0x2EFE4, offset: 0x2EFE4, size: 0x8, addend: 0x0, symName: __ZNK3fmt3v106detail14digit_groupingIcE5applyINS0_8appenderEcEET_S6_NS0_17basic_string_viewIT0_EE, symObjAddr: 0xDB34, symBinAddr: 0x10001045C, symSize: 0x278 }
  - { offsetInCU: 0x2F0B3, offset: 0x2F0B3, size: 0x8, addend: 0x0, symName: __ZNSt3__19allocatorIiEC1B8ue170006Ev, symObjAddr: 0xDDAC, symBinAddr: 0x1000106D4, symSize: 0x2C }
  - { offsetInCU: 0x2F140, offset: 0x2F140, size: 0x8, addend: 0x0, symName: __ZN3fmt3v1019basic_memory_bufferIiLm500ENSt3__19allocatorIiEEEC1ERKS4_, symObjAddr: 0xDDD8, symBinAddr: 0x100010700, symSize: 0x34 }
  - { offsetInCU: 0x2F179, offset: 0x2F179, size: 0x8, addend: 0x0, symName: __ZN3fmt3v106detail6bufferIiE9push_backERKi, symObjAddr: 0xDE0C, symBinAddr: 0x100010734, symSize: 0x54 }
  - { offsetInCU: 0x2F1AE, offset: 0x2F1AE, size: 0x8, addend: 0x0, symName: __ZNK3fmt3v106detail6bufferIiE4sizeEv, symObjAddr: 0xDE60, symBinAddr: 0x100010788, symSize: 0x18 }
  - { offsetInCU: 0x2F1DA, offset: 0x2F1DA, size: 0x8, addend: 0x0, symName: __ZN3fmt3v106detail6bufferIiEixIiEERiT_, symObjAddr: 0xDE78, symBinAddr: 0x1000107A0, symSize: 0x24 }
  - { offsetInCU: 0x2F218, offset: 0x2F218, size: 0x8, addend: 0x0, symName: __ZNK3fmt3v1017basic_string_viewIcEixEm, symObjAddr: 0xDE9C, symBinAddr: 0x1000107C4, symSize: 0x24 }
  - { offsetInCU: 0x2F24D, offset: 0x2F24D, size: 0x8, addend: 0x0, symName: __ZN3fmt3v1019basic_memory_bufferIiLm500ENSt3__19allocatorIiEEED1Ev, symObjAddr: 0xDEC0, symBinAddr: 0x1000107E8, symSize: 0x2C }
  - { offsetInCU: 0x2F277, offset: 0x2F277, size: 0x8, addend: 0x0, symName: __ZNSt3__19allocatorIiEC2B8ue170006Ev, symObjAddr: 0xDEEC, symBinAddr: 0x100010814, symSize: 0x2C }
  - { offsetInCU: 0x2F2A1, offset: 0x2F2A1, size: 0x8, addend: 0x0, symName: __ZNSt3__116__non_trivial_ifILb1ENS_9allocatorIiEEEC2B8ue170006Ev, symObjAddr: 0xDF18, symBinAddr: 0x100010840, symSize: 0x14 }
  - { offsetInCU: 0x2F2CB, offset: 0x2F2CB, size: 0x8, addend: 0x0, symName: __ZN3fmt3v1019basic_memory_bufferIiLm500ENSt3__19allocatorIiEEEC2ERKS4_, symObjAddr: 0xDF2C, symBinAddr: 0x100010854, symSize: 0x68 }
  - { offsetInCU: 0x2F304, offset: 0x2F304, size: 0x8, addend: 0x0, symName: __ZN3fmt3v106detail6bufferIiEC2EPimm, symObjAddr: 0xDF94, symBinAddr: 0x1000108BC, symSize: 0x48 }
  - { offsetInCU: 0x2F35B, offset: 0x2F35B, size: 0x8, addend: 0x0, symName: __ZN3fmt3v106detail6bufferIiE3setEPim, symObjAddr: 0xDFDC, symBinAddr: 0x100010904, symSize: 0x2C }
  - { offsetInCU: 0x2F39F, offset: 0x2F39F, size: 0x8, addend: 0x0, symName: __ZN3fmt3v1019basic_memory_bufferIiLm500ENSt3__19allocatorIiEEE4growEm, symObjAddr: 0xE008, symBinAddr: 0x100010930, symSize: 0x198 }
  - { offsetInCU: 0x2F431, offset: 0x2F431, size: 0x8, addend: 0x0, symName: __ZNSt3__116allocator_traitsINS_9allocatorIiEEE8max_sizeB8ue170006IS2_vvEEmRKS2_, symObjAddr: 0xE1A0, symBinAddr: 0x100010AC8, symSize: 0x28 }
  - { offsetInCU: 0x2F45D, offset: 0x2F45D, size: 0x8, addend: 0x0, symName: __ZNK3fmt3v106detail6bufferIiE8capacityEv, symObjAddr: 0xE1C8, symBinAddr: 0x100010AF0, symSize: 0x18 }
  - { offsetInCU: 0x2F483, offset: 0x2F483, size: 0x8, addend: 0x0, symName: __ZN3fmt3v106detail6bufferIiE4dataEv, symObjAddr: 0xE1E0, symBinAddr: 0x100010B08, symSize: 0x18 }
  - { offsetInCU: 0x2F4A9, offset: 0x2F4A9, size: 0x8, addend: 0x0, symName: __ZNSt3__116allocator_traitsINS_9allocatorIiEEE8allocateB8ue170006ERS2_m, symObjAddr: 0xE1F8, symBinAddr: 0x100010B20, symSize: 0x2C }
  - { offsetInCU: 0x2F4DC, offset: 0x2F4DC, size: 0x8, addend: 0x0, symName: __ZNSt3__19allocatorIiE10deallocateB8ue170006EPim, symObjAddr: 0xE264, symBinAddr: 0x100010B8C, symSize: 0x40 }
  - { offsetInCU: 0x2F51E, offset: 0x2F51E, size: 0x8, addend: 0x0, symName: __ZNSt3__19allocatorIiE8allocateB8ue170006Em, symObjAddr: 0xE2A4, symBinAddr: 0x100010BCC, symSize: 0x58 }
  - { offsetInCU: 0x2F576, offset: 0x2F576, size: 0x8, addend: 0x0, symName: __ZNSt3__14pairIPiS1_EC1B8ue170006IS1_S1_LPv0EEEOT_OT0_, symObjAddr: 0xE444, symBinAddr: 0x100010D10, symSize: 0x3C }
  - { offsetInCU: 0x2F5D4, offset: 0x2F5D4, size: 0x8, addend: 0x0, symName: __ZNSt3__14pairIPiS1_EC2B8ue170006IS1_S1_LPv0EEEOT_OT0_, symObjAddr: 0xE490, symBinAddr: 0x100010D4C, symSize: 0x34 }
  - { offsetInCU: 0x2F632, offset: 0x2F632, size: 0x8, addend: 0x0, symName: __ZN3fmt3v106detail6bufferIiE11try_reserveEm, symObjAddr: 0xE4C4, symBinAddr: 0x100010D80, symSize: 0x58 }
  - { offsetInCU: 0x2F667, offset: 0x2F667, size: 0x8, addend: 0x0, symName: __ZN3fmt3v1019basic_memory_bufferIiLm500ENSt3__19allocatorIiEEED2Ev, symObjAddr: 0xE51C, symBinAddr: 0x100010DD8, symSize: 0x34 }
  - { offsetInCU: 0x2F691, offset: 0x2F691, size: 0x8, addend: 0x0, symName: __ZN3fmt3v1019basic_memory_bufferIiLm500ENSt3__19allocatorIiEEE10deallocateEv, symObjAddr: 0xE550, symBinAddr: 0x100010E0C, symSize: 0x6C }
  - { offsetInCU: 0x2F6C6, offset: 0x2F6C6, size: 0x8, addend: 0x0, symName: __ZN3fmt3v106detail14digit_groupingIcEC2ENSt3__112basic_stringIcNS4_11char_traitsIcEENS4_9allocatorIcEEEESA_, symObjAddr: 0xE5BC, symBinAddr: 0x100010E78, symSize: 0x4C }
  - { offsetInCU: 0x2F710, offset: 0x2F710, size: 0x8, addend: 0x0, symName: __ZNSt3__112basic_stringIcNS_11char_traitsIcEENS_9allocatorIcEEEC1B8ue170006EOS5_, symObjAddr: 0xE608, symBinAddr: 0x100010EC4, symSize: 0x34 }
  - { offsetInCU: 0x2F749, offset: 0x2F749, size: 0x8, addend: 0x0, symName: __ZNSt3__112basic_stringIcNS_11char_traitsIcEENS_9allocatorIcEEEC2B8ue170006EOS5_, symObjAddr: 0xE63C, symBinAddr: 0x100010EF8, symSize: 0x48 }
  - { offsetInCU: 0x2F782, offset: 0x2F782, size: 0x8, addend: 0x0, symName: __ZN3fmt3v106detail14digit_groupingIcED2Ev, symObjAddr: 0xE684, symBinAddr: 0x100010F40, symSize: 0x38 }
  - { offsetInCU: 0x2F7BB, offset: 0x2F7BB, size: 0x8, addend: 0x0, symName: __ZZN3fmt3v106detail12count_digitsILi4EoEEiT0_ENKUloE_clEo, symObjAddr: 0xF64C, symBinAddr: 0x100011F08, symSize: 0x88 }
  - { offsetInCU: 0x2F80F, offset: 0x2F80F, size: 0x8, addend: 0x0, symName: __ZZN3fmt3v106detail12count_digitsILi1EoEEiT0_ENKUloE_clEo, symObjAddr: 0xF7E0, symBinAddr: 0x10001209C, symSize: 0x88 }
  - { offsetInCU: 0x2F863, offset: 0x2F863, size: 0x8, addend: 0x0, symName: __ZZN3fmt3v106detail12count_digitsILi3EoEEiT0_ENKUloE_clEo, symObjAddr: 0xF968, symBinAddr: 0x100012224, symSize: 0x88 }
  - { offsetInCU: 0x2F8B7, offset: 0x2F8B7, size: 0x8, addend: 0x0, symName: __ZZN3fmt3v106detail9write_intINS0_8appenderEocEET_S4_T0_jRKNS0_12format_specsIT1_EERKNS1_14digit_groupingIS7_EEENKUlS3_E_clES3_, symObjAddr: 0xFAF0, symBinAddr: 0x1000123AC, symSize: 0xF0 }
  - { offsetInCU: 0x2F90D, offset: 0x2F90D, size: 0x8, addend: 0x0, symName: __ZN3fmt3v106detail10loc_writerIcED2Ev, symObjAddr: 0xFCD4, symBinAddr: 0x100012590, symSize: 0x48 }
  - { offsetInCU: 0x2F93A, offset: 0x2F93A, size: 0x8, addend: 0x0, symName: __ZN3fmt3v1012format_facetINSt3__16localeEED2Ev, symObjAddr: 0xFD1C, symBinAddr: 0x1000125D8, symSize: 0x60 }
  - { offsetInCU: 0x2F967, offset: 0x2F967, size: 0x8, addend: 0x0, symName: __ZN3fmt3v109loc_valueC2IiLi0EEET_, symObjAddr: 0xFD7C, symBinAddr: 0x100012638, symSize: 0x34 }
  - { offsetInCU: 0x2FA4A, offset: 0x2FA4A, size: 0x8, addend: 0x0, symName: __ZZN3fmt3v106detail9write_intIcNS0_8appenderEjEET0_S4_NS1_13write_int_argIT1_EERKNS0_12format_specsIT_EENS1_10locale_refEENKUlS3_E_clES3_, symObjAddr: 0xFED4, symBinAddr: 0x100012790, symSize: 0x50 }
  - { offsetInCU: 0x2FA83, offset: 0x2FA83, size: 0x8, addend: 0x0, symName: __ZN3fmt3v106detail14write_int_dataIcEC1EijRKNS0_12format_specsIcEE, symObjAddr: 0xFF24, symBinAddr: 0x1000127E0, symSize: 0x44 }
  - { offsetInCU: 0x2FADA, offset: 0x2FADA, size: 0x8, addend: 0x0, symName: __ZN3fmt3v106detail14write_int_dataIcEC2EijRKNS0_12format_specsIcEE, symObjAddr: 0xFFB8, symBinAddr: 0x100012874, symSize: 0x138 }
  - { offsetInCU: 0x2FB5A, offset: 0x2FB5A, size: 0x8, addend: 0x0, symName: __ZZN3fmt3v106detail9write_intINS0_8appenderEcZNS1_9write_intIcS3_jEET0_S5_NS1_13write_int_argIT1_EERKNS0_12format_specsIT_EENS1_10locale_refEEUlS3_E_EESA_SA_ijRKNS9_IS5_EES7_ENKUlS3_E_clES3_, symObjAddr: 0x102B4, symBinAddr: 0x100012B70, symSize: 0xE4 }
  - { offsetInCU: 0x2FBBC, offset: 0x2FBBC, size: 0x8, addend: 0x0, symName: __ZZN3fmt3v106detail9write_intIcNS0_8appenderEjEET0_S4_NS1_13write_int_argIT1_EERKNS0_12format_specsIT_EENS1_10locale_refEENKUlS3_E0_clES3_, symObjAddr: 0x10398, symBinAddr: 0x100012C54, symSize: 0x4C }
  - { offsetInCU: 0x2FC01, offset: 0x2FC01, size: 0x8, addend: 0x0, symName: __ZZN3fmt3v106detail9write_intINS0_8appenderEcZNS1_9write_intIcS3_jEET0_S5_NS1_13write_int_argIT1_EERKNS0_12format_specsIT_EENS1_10locale_refEEUlS3_E0_EESA_SA_ijRKNS9_IS5_EES7_ENKUlS3_E_clES3_, symObjAddr: 0x10710, symBinAddr: 0x100012FCC, symSize: 0xE4 }
  - { offsetInCU: 0x2FC63, offset: 0x2FC63, size: 0x8, addend: 0x0, symName: __ZZN3fmt3v106detail9write_intIcNS0_8appenderEjEET0_S4_NS1_13write_int_argIT1_EERKNS0_12format_specsIT_EENS1_10locale_refEENKUlS3_E1_clES3_, symObjAddr: 0x107F4, symBinAddr: 0x1000130B0, symSize: 0x4C }
  - { offsetInCU: 0x2FCA8, offset: 0x2FCA8, size: 0x8, addend: 0x0, symName: __ZZN3fmt3v106detail9write_intINS0_8appenderEcZNS1_9write_intIcS3_jEET0_S5_NS1_13write_int_argIT1_EERKNS0_12format_specsIT_EENS1_10locale_refEEUlS3_E1_EESA_SA_ijRKNS9_IS5_EES7_ENKUlS3_E_clES3_, symObjAddr: 0x10C30, symBinAddr: 0x1000134EC, symSize: 0xE4 }
  - { offsetInCU: 0x2FD0A, offset: 0x2FD0A, size: 0x8, addend: 0x0, symName: __ZZN3fmt3v106detail9write_intIcNS0_8appenderEjEET0_S4_NS1_13write_int_argIT1_EERKNS0_12format_specsIT_EENS1_10locale_refEENKUlS3_E2_clES3_, symObjAddr: 0x10D14, symBinAddr: 0x1000135D0, symSize: 0x4C }
  - { offsetInCU: 0x2FD4F, offset: 0x2FD4F, size: 0x8, addend: 0x0, symName: __ZZN3fmt3v106detail9write_intINS0_8appenderEcZNS1_9write_intIcS3_jEET0_S5_NS1_13write_int_argIT1_EERKNS0_12format_specsIT_EENS1_10locale_refEEUlS3_E2_EESA_SA_ijRKNS9_IS5_EES7_ENKUlS3_E_clES3_, symObjAddr: 0x11144, symBinAddr: 0x100013A00, symSize: 0xE4 }
  - { offsetInCU: 0x2FDB1, offset: 0x2FDB1, size: 0x8, addend: 0x0, symName: __ZZN3fmt3v106detail11write_bytesILNS0_5align4typeE1EcNS0_8appenderEEET1_S6_NS0_17basic_string_viewIcEERKNS0_12format_specsIT0_EEENKUlS5_E_clES5_, symObjAddr: 0x1143C, symBinAddr: 0x100013CF8, symSize: 0x74 }
  - { offsetInCU: 0x2FDF9, offset: 0x2FDF9, size: 0x8, addend: 0x0, symName: __ZN3fmt3v1012format_specsIcEC2Ev, symObjAddr: 0x114B0, symBinAddr: 0x100013D6C, symSize: 0x94 }
  - { offsetInCU: 0x2FE23, offset: 0x2FE23, size: 0x8, addend: 0x0, symName: __ZN3fmt3v106detail6fill_tIcEC1Ev, symObjAddr: 0x11544, symBinAddr: 0x100013E00, symSize: 0x2C }
  - { offsetInCU: 0x2FE50, offset: 0x2FE50, size: 0x8, addend: 0x0, symName: __ZN3fmt3v106detail6fill_tIcEC2Ev, symObjAddr: 0x11570, symBinAddr: 0x100013E2C, symSize: 0x30 }
  - { offsetInCU: 0x2FE7C, offset: 0x2FE7C, size: 0x8, addend: 0x0, symName: __Z5isnanB8ue170006f, symObjAddr: 0x11998, symBinAddr: 0x100014254, symSize: 0x20 }
  - { offsetInCU: 0x2FEB6, offset: 0x2FEB6, size: 0x8, addend: 0x0, symName: __Z7signbitB8ue170006IdLi0EEbT_, symObjAddr: 0x122AC, symBinAddr: 0x100014B68, symSize: 0x24 }
  - { offsetInCU: 0x2FEF4, offset: 0x2FEF4, size: 0x8, addend: 0x0, symName: __ZN3fmt3v106detail6fill_tIcEixEm, symObjAddr: 0x122D8, symBinAddr: 0x100014B94, symSize: 0x20 }
  - { offsetInCU: 0x2FF35, offset: 0x2FF35, size: 0x8, addend: 0x0, symName: __ZZN3fmt3v106detail15write_nonfiniteIcNS0_8appenderEEET0_S4_bNS0_12format_specsIT_EERKNS1_11float_specsEENKUlS3_E_clES3_, symObjAddr: 0x1250C, symBinAddr: 0x100014DC8, symSize: 0xA4 }
  - { offsetInCU: 0x2FF6E, offset: 0x2FF6E, size: 0x8, addend: 0x0, symName: __ZN3fmt3v106detail9dragonbox14cache_accessorIfE13compute_deltaERKyi, symObjAddr: 0x1275C, symBinAddr: 0x100015018, symSize: 0x30 }
  - { offsetInCU: 0x2FFA1, offset: 0x2FFA1, size: 0x8, addend: 0x0, symName: __ZN3fmt3v106detail9dragonbox14cache_accessorIfE11compute_mulEjRKy, symObjAddr: 0x1278C, symBinAddr: 0x100015048, symSize: 0x58 }
  - { offsetInCU: 0x2FFE3, offset: 0x2FFE3, size: 0x8, addend: 0x0, symName: __ZN3fmt3v106detail9dragonbox14cache_accessorIfE18compute_mul_parityEjRKyi, symObjAddr: 0x1280C, symBinAddr: 0x1000150C8, symSize: 0xFC }
  - { offsetInCU: 0x30034, offset: 0x30034, size: 0x8, addend: 0x0, symName: __ZN3fmt3v106detail9dragonbox14cache_accessorIfE47compute_left_endpoint_for_shorter_interval_caseERKyi, symObjAddr: 0x12A54, symBinAddr: 0x100015310, symSize: 0x78 }
  - { offsetInCU: 0x30067, offset: 0x30067, size: 0x8, addend: 0x0, symName: __ZN3fmt3v106detail9dragonbox14cache_accessorIfE48compute_right_endpoint_for_shorter_interval_caseERKyi, symObjAddr: 0x12ACC, symBinAddr: 0x100015388, symSize: 0x78 }
  - { offsetInCU: 0x3009A, offset: 0x3009A, size: 0x8, addend: 0x0, symName: __ZN3fmt3v106detail9dragonbox14cache_accessorIfE42compute_round_up_for_shorter_interval_caseERKyi, symObjAddr: 0x12B9C, symBinAddr: 0x100015458, symSize: 0x58 }
  - { offsetInCU: 0x300CD, offset: 0x300CD, size: 0x8, addend: 0x0, symName: __ZNSt3__114numeric_limitsIjE3maxB8ue170006Ev, symObjAddr: 0x12CEC, symBinAddr: 0x1000155A8, symSize: 0x14 }
  - { offsetInCU: 0x300E1, offset: 0x300E1, size: 0x8, addend: 0x0, symName: __ZNSt3__123__libcpp_numeric_limitsIjLb1EE3maxB8ue170006Ev, symObjAddr: 0x12D00, symBinAddr: 0x1000155BC, symSize: 0x8 }
  - { offsetInCU: 0x30101, offset: 0x30101, size: 0x8, addend: 0x0, symName: __ZZN3fmt3v106detail14do_write_floatINS0_8appenderENS1_9dragonbox10decimal_fpIfEEcNS1_14digit_groupingIcEEEET_S9_RKT0_RKNS0_12format_specsIT1_EENS1_11float_specsENS1_10locale_refEENKUlvE_clEv, symObjAddr: 0x13538, symBinAddr: 0x100015DF4, symSize: 0x110 }
  - { offsetInCU: 0x30155, offset: 0x30155, size: 0x8, addend: 0x0, symName: __ZZN3fmt3v106detail14do_write_floatINS0_8appenderENS1_9dragonbox10decimal_fpIfEEcNS1_14digit_groupingIcEEEET_S9_RKT0_RKNS0_12format_specsIT1_EENS1_11float_specsENS1_10locale_refEENKUlS3_E_clES3_, symObjAddr: 0x13698, symBinAddr: 0x100015F54, symSize: 0x148 }
  - { offsetInCU: 0x3018E, offset: 0x3018E, size: 0x8, addend: 0x0, symName: __ZN3fmt3v106detail14digit_groupingIcEC1ENS1_10locale_refEb, symObjAddr: 0x137E0, symBinAddr: 0x10001609C, symSize: 0x48 }
  - { offsetInCU: 0x301D6, offset: 0x301D6, size: 0x8, addend: 0x0, symName: __ZNKSt3__18numpunctIcE13decimal_pointB8ue170006Ev, symObjAddr: 0x13998, symBinAddr: 0x100016254, symSize: 0x30 }
  - { offsetInCU: 0x301FC, offset: 0x301FC, size: 0x8, addend: 0x0, symName: __ZN3fmt3v106detail14digit_groupingIcEC2ENS1_10locale_refEb, symObjAddr: 0x14110, symBinAddr: 0x1000169CC, symSize: 0x108 }
  - { offsetInCU: 0x3025F, offset: 0x3025F, size: 0x8, addend: 0x0, symName: __ZN3fmt3v106detail20thousands_sep_resultIcED1Ev, symObjAddr: 0x14298, symBinAddr: 0x100016B54, symSize: 0x2C }
  - { offsetInCU: 0x3028C, offset: 0x3028C, size: 0x8, addend: 0x0, symName: __ZN3fmt3v106detail20thousands_sep_resultIcED2Ev, symObjAddr: 0x143CC, symBinAddr: 0x100016C88, symSize: 0x2C }
  - { offsetInCU: 0x302E9, offset: 0x302E9, size: 0x8, addend: 0x0, symName: __ZZN3fmt3v106detail14do_write_floatINS0_8appenderENS1_9dragonbox10decimal_fpIfEEcNS1_14digit_groupingIcEEEET_S9_RKT0_RKNS0_12format_specsIT1_EENS1_11float_specsENS1_10locale_refEENKUlS3_E0_clES3_, symObjAddr: 0x145BC, symBinAddr: 0x100016E78, symSize: 0x168 }
  - { offsetInCU: 0x30322, offset: 0x30322, size: 0x8, addend: 0x0, symName: __ZNK3fmt3v106detail14digit_groupingIcE13has_separatorEv, symObjAddr: 0x14904, symBinAddr: 0x1000171C0, symSize: 0x30 }
  - { offsetInCU: 0x30354, offset: 0x30354, size: 0x8, addend: 0x0, symName: __ZZN3fmt3v106detail14do_write_floatINS0_8appenderENS1_9dragonbox10decimal_fpIfEEcNS1_14digit_groupingIcEEEET_S9_RKT0_RKNS0_12format_specsIT1_EENS1_11float_specsENS1_10locale_refEENKUlS3_E1_clES3_, symObjAddr: 0x14B48, symBinAddr: 0x100017404, symSize: 0x11C }
  - { offsetInCU: 0x303B5, offset: 0x303B5, size: 0x8, addend: 0x0, symName: __ZZN3fmt3v106detail14do_write_floatINS0_8appenderENS1_9dragonbox10decimal_fpIfEEcNS1_14digit_groupingIcEEEET_S9_RKT0_RKNS0_12format_specsIT1_EENS1_11float_specsENS1_10locale_refEENKUlS3_E2_clES3_, symObjAddr: 0x1500C, symBinAddr: 0x1000178C8, symSize: 0x160 }
  - { offsetInCU: 0x303ED, offset: 0x303ED, size: 0x8, addend: 0x0, symName: __Z5isnanB8ue170006Ua9enable_ifIXLb1EEEd, symObjAddr: 0x1532C, symBinAddr: 0x100017BE8, symSize: 0x20 }
  - { offsetInCU: 0x30428, offset: 0x30428, size: 0x8, addend: 0x0, symName: __ZN3fmt3v106detail9dragonbox14cache_accessorIdE13compute_deltaERKNS1_16uint128_fallbackEi, symObjAddr: 0x162D8, symBinAddr: 0x100018B94, symSize: 0x3C }
  - { offsetInCU: 0x3045B, offset: 0x3045B, size: 0x8, addend: 0x0, symName: __ZN3fmt3v106detail9dragonbox14cache_accessorIdE11compute_mulEyRKNS1_16uint128_fallbackE, symObjAddr: 0x16314, symBinAddr: 0x100018BD0, symSize: 0x7C }
  - { offsetInCU: 0x3049D, offset: 0x3049D, size: 0x8, addend: 0x0, symName: __ZN3fmt3v106detail9dragonbox14cache_accessorIdE18compute_mul_parityEyRKNS1_16uint128_fallbackEi, symObjAddr: 0x163C8, symBinAddr: 0x100018C84, symSize: 0x144 }
  - { offsetInCU: 0x304EE, offset: 0x304EE, size: 0x8, addend: 0x0, symName: __ZN3fmt3v106detail9dragonbox14cache_accessorIdE47compute_left_endpoint_for_shorter_interval_caseERKNS1_16uint128_fallbackEi, symObjAddr: 0x165CC, symBinAddr: 0x100018E88, symSize: 0x78 }
  - { offsetInCU: 0x30521, offset: 0x30521, size: 0x8, addend: 0x0, symName: __ZN3fmt3v106detail9dragonbox14cache_accessorIdE48compute_right_endpoint_for_shorter_interval_caseERKNS1_16uint128_fallbackEi, symObjAddr: 0x16644, symBinAddr: 0x100018F00, symSize: 0x78 }
  - { offsetInCU: 0x30554, offset: 0x30554, size: 0x8, addend: 0x0, symName: __ZN3fmt3v106detail9dragonbox14cache_accessorIdE42compute_round_up_for_shorter_interval_caseERKNS1_16uint128_fallbackEi, symObjAddr: 0x16714, symBinAddr: 0x100018FD0, symSize: 0x5C }
  - { offsetInCU: 0x30587, offset: 0x30587, size: 0x8, addend: 0x0, symName: __ZNK3fmt3v106detail16uint128_fallback4highEv, symObjAddr: 0x16770, symBinAddr: 0x10001902C, symSize: 0x18 }
  - { offsetInCU: 0x305AD, offset: 0x305AD, size: 0x8, addend: 0x0, symName: __ZNK3fmt3v106detail16uint128_fallback3lowEv, symObjAddr: 0x16804, symBinAddr: 0x1000190C0, symSize: 0x18 }
  - { offsetInCU: 0x305D3, offset: 0x305D3, size: 0x8, addend: 0x0, symName: __ZN3fmt3v106detail16uint128_fallbackpLEy, symObjAddr: 0x1681C, symBinAddr: 0x1000190D8, symSize: 0x54 }
  - { offsetInCU: 0x30617, offset: 0x30617, size: 0x8, addend: 0x0, symName: __ZN3fmt3v106detail16uint128_fallbackC1Eyy, symObjAddr: 0x16870, symBinAddr: 0x10001912C, symSize: 0x3C }
  - { offsetInCU: 0x3065F, offset: 0x3065F, size: 0x8, addend: 0x0, symName: __ZN3fmt3v106detail16uint128_fallbackC2Eyy, symObjAddr: 0x168AC, symBinAddr: 0x100019168, symSize: 0x2C }
  - { offsetInCU: 0x306A7, offset: 0x306A7, size: 0x8, addend: 0x0, symName: __ZNSt3__114numeric_limitsIyE3maxB8ue170006Ev, symObjAddr: 0x16A7C, symBinAddr: 0x100019338, symSize: 0x14 }
  - { offsetInCU: 0x306BB, offset: 0x306BB, size: 0x8, addend: 0x0, symName: __ZNSt3__123__libcpp_numeric_limitsIyLb1EE3maxB8ue170006Ev, symObjAddr: 0x16A90, symBinAddr: 0x10001934C, symSize: 0x8 }
  - { offsetInCU: 0x306DB, offset: 0x306DB, size: 0x8, addend: 0x0, symName: __ZZN3fmt3v106detail14do_write_floatINS0_8appenderENS1_9dragonbox10decimal_fpIdEEcNS1_14digit_groupingIcEEEET_S9_RKT0_RKNS0_12format_specsIT1_EENS1_11float_specsENS1_10locale_refEENKUlvE_clEv, symObjAddr: 0x17298, symBinAddr: 0x100019B54, symSize: 0x110 }
  - { offsetInCU: 0x3072F, offset: 0x3072F, size: 0x8, addend: 0x0, symName: __ZZN3fmt3v106detail14do_write_floatINS0_8appenderENS1_9dragonbox10decimal_fpIdEEcNS1_14digit_groupingIcEEEET_S9_RKT0_RKNS0_12format_specsIT1_EENS1_11float_specsENS1_10locale_refEENKUlS3_E_clES3_, symObjAddr: 0x173F8, symBinAddr: 0x100019CB4, symSize: 0x148 }
  - { offsetInCU: 0x30786, offset: 0x30786, size: 0x8, addend: 0x0, symName: __ZZN3fmt3v106detail14do_write_floatINS0_8appenderENS1_9dragonbox10decimal_fpIdEEcNS1_14digit_groupingIcEEEET_S9_RKT0_RKNS0_12format_specsIT1_EENS1_11float_specsENS1_10locale_refEENKUlS3_E0_clES3_, symObjAddr: 0x17C30, symBinAddr: 0x10001A4EC, symSize: 0x168 }
  - { offsetInCU: 0x307CB, offset: 0x307CB, size: 0x8, addend: 0x0, symName: __ZZN3fmt3v106detail14do_write_floatINS0_8appenderENS1_9dragonbox10decimal_fpIdEEcNS1_14digit_groupingIcEEEET_S9_RKT0_RKNS0_12format_specsIT1_EENS1_11float_specsENS1_10locale_refEENKUlS3_E1_clES3_, symObjAddr: 0x1818C, symBinAddr: 0x10001AA48, symSize: 0x11C }
  - { offsetInCU: 0x30810, offset: 0x30810, size: 0x8, addend: 0x0, symName: __ZZN3fmt3v106detail14do_write_floatINS0_8appenderENS1_9dragonbox10decimal_fpIdEEcNS1_14digit_groupingIcEEEET_S9_RKT0_RKNS0_12format_specsIT1_EENS1_11float_specsENS1_10locale_refEENKUlS3_E2_clES3_, symObjAddr: 0x18650, symBinAddr: 0x10001AF0C, symSize: 0x160 }
  - { offsetInCU: 0x30849, offset: 0x30849, size: 0x8, addend: 0x0, symName: __ZN3fmt3v1017basic_string_viewIcEC2EPKcm, symObjAddr: 0x18B04, symBinAddr: 0x10001B3C0, symSize: 0x2C }
  - { offsetInCU: 0x3089D, offset: 0x3089D, size: 0x8, addend: 0x0, symName: __ZZN3fmt3v106detail9write_ptrIcNS0_8appenderEmEET0_S4_T1_PKNS0_12format_specsIT_EEENKUlS3_E_clES3_, symObjAddr: 0x18CEC, symBinAddr: 0x10001B5A8, symSize: 0xC8 }
  - { offsetInCU: 0x308E2, offset: 0x308E2, size: 0x8, addend: 0x0, symName: __ZZN3fmt3v106detail12count_digitsILi4EmEEiT0_ENKUlmE_clEm, symObjAddr: 0x18DB4, symBinAddr: 0x10001B670, symSize: 0x4C }
  - { offsetInCU: 0x3092A, offset: 0x3092A, size: 0x8, addend: 0x0, symName: __ZN3fmt3v1017basic_string_viewIcEC1Ev, symObjAddr: 0x191A4, symBinAddr: 0x10001BA60, symSize: 0x2C }
  - { offsetInCU: 0x30954, offset: 0x30954, size: 0x8, addend: 0x0, symName: __ZN3fmt3v1026basic_format_parse_contextIcEC1ENS0_17basic_string_viewIcEEi, symObjAddr: 0x191D0, symBinAddr: 0x10001BA8C, symSize: 0x44 }
  - { offsetInCU: 0x3099C, offset: 0x3099C, size: 0x8, addend: 0x0, symName: __ZN3fmt3v1020basic_format_contextINS0_8appenderEcEC1ES2_NS0_17basic_format_argsIS3_EENS0_6detail10locale_refE, symObjAddr: 0x19214, symBinAddr: 0x10001BAD0, symSize: 0x4C }
  - { offsetInCU: 0x309F3, offset: 0x309F3, size: 0x8, addend: 0x0, symName: __ZNK3fmt3v1016basic_format_argINS0_20basic_format_contextINS0_8appenderEcEEE6handle6formatERNS0_26basic_format_parse_contextIcEERS4_, symObjAddr: 0x19260, symBinAddr: 0x10001BB1C, symSize: 0x3C }
  - { offsetInCU: 0x30A37, offset: 0x30A37, size: 0x8, addend: 0x0, symName: __ZN3fmt3v1020basic_format_contextINS0_8appenderEcE3outEv, symObjAddr: 0x1929C, symBinAddr: 0x10001BB58, symSize: 0x20 }
  - { offsetInCU: 0x30A5D, offset: 0x30A5D, size: 0x8, addend: 0x0, symName: __ZN3fmt3v1017basic_string_viewIcEC2Ev, symObjAddr: 0x192BC, symBinAddr: 0x10001BB78, symSize: 0x1C }
  - { offsetInCU: 0x30A87, offset: 0x30A87, size: 0x8, addend: 0x0, symName: __ZN3fmt3v1026basic_format_parse_contextIcEC2ENS0_17basic_string_viewIcEEi, symObjAddr: 0x192D8, symBinAddr: 0x10001BB94, symSize: 0x30 }
  - { offsetInCU: 0x30ACF, offset: 0x30ACF, size: 0x8, addend: 0x0, symName: __ZN3fmt3v1020basic_format_contextINS0_8appenderEcEC2ES2_NS0_17basic_format_argsIS3_EENS0_6detail10locale_refE, symObjAddr: 0x19308, symBinAddr: 0x10001BBC4, symSize: 0x3C }
  - { offsetInCU: 0x30B26, offset: 0x30B26, size: 0x8, addend: 0x0, symName: __ZN3fmt3v1016basic_format_argINS0_20basic_format_contextINS0_8appenderEcEEE6handleC2ENS0_6detail12custom_valueIS4_EE, symObjAddr: 0x19344, symBinAddr: 0x10001BC00, symSize: 0x24 }
  - { offsetInCU: 0x30B5F, offset: 0x30B5F, size: 0x8, addend: 0x0, symName: __ZZN3fmt3v106detail10vformat_toIcEEvRNS1_6bufferIT_EENS0_17basic_string_viewIS4_EENS1_12vformat_argsIS4_E4typeENS1_10locale_refEEN14format_handler7on_textEPKcSF_, symObjAddr: 0x1939C, symBinAddr: 0x10001BC58, symSize: 0x90 }
  - { offsetInCU: 0x30BFF, offset: 0x30BFF, size: 0x8, addend: 0x0, symName: __ZN3fmt3v106detail13error_handler8on_errorEPKc, symObjAddr: 0x19EB0, symBinAddr: 0x10001C76C, symSize: 0x1C }
  - { offsetInCU: 0x30C34, offset: 0x30C34, size: 0x8, addend: 0x0, symName: __ZZN3fmt3v106detail19parse_format_stringILb0EcZNS1_10vformat_toIcEEvRNS1_6bufferIT_EENS0_17basic_string_viewIS5_EENS1_12vformat_argsIS5_E4typeENS1_10locale_refEE14format_handlerEEvNS8_IT0_EEOT1_EN6writerclEPKcSL_, symObjAddr: 0x19F40, symBinAddr: 0x10001C7FC, symSize: 0xF8 }
  - { offsetInCU: 0x30C99, offset: 0x30C99, size: 0x8, addend: 0x0, symName: __ZN3fmt3v1020basic_format_contextINS0_8appenderEcE10advance_toES2_, symObjAddr: 0x1A038, symBinAddr: 0x10001C8F4, symSize: 0x20 }
  - { offsetInCU: 0x30CCE, offset: 0x30CCE, size: 0x8, addend: 0x0, symName: __ZZN3fmt3v106detail10vformat_toIcEEvRNS1_6bufferIT_EENS0_17basic_string_viewIS4_EENS1_12vformat_argsIS4_E4typeENS1_10locale_refEEN14format_handler9on_arg_idEv, symObjAddr: 0x1A058, symBinAddr: 0x10001C914, symSize: 0x24 }
  - { offsetInCU: 0x30FF2, offset: 0x30FF2, size: 0x8, addend: 0x0, symName: __ZZN3fmt3v106detail10vformat_toIcEEvRNS1_6bufferIT_EENS0_17basic_string_viewIS4_EENS1_12vformat_argsIS4_E4typeENS1_10locale_refEEN14format_handler15on_format_specsEiPKcSF_, symObjAddr: 0x1A07C, symBinAddr: 0x10001C938, symSize: 0x149C }
  - { offsetInCU: 0x31587, offset: 0x31587, size: 0x8, addend: 0x0, symName: __ZNK3fmt3v1020basic_format_contextINS0_8appenderEcE4argsEv, symObjAddr: 0x1B724, symBinAddr: 0x10001DFE0, symSize: 0x18 }
  - { offsetInCU: 0x315AD, offset: 0x315AD, size: 0x8, addend: 0x0, symName: __ZN3fmt3v1020basic_format_contextINS0_8appenderEcE6localeEv, symObjAddr: 0x1B73C, symBinAddr: 0x10001DFF8, symSize: 0x20 }
  - { offsetInCU: 0x315D3, offset: 0x315D3, size: 0x8, addend: 0x0, symName: __ZNK3fmt3v1020basic_format_contextINS0_8appenderEcE3argEi, symObjAddr: 0x1B75C, symBinAddr: 0x10001E018, symSize: 0x30 }
  - { offsetInCU: 0x31608, offset: 0x31608, size: 0x8, addend: 0x0, symName: __ZN3fmt3v1020basic_format_contextINS0_8appenderEcE8on_errorEPKc, symObjAddr: 0x1B78C, symBinAddr: 0x10001E048, symSize: 0x28 }
  - { offsetInCU: 0x3163D, offset: 0x3163D, size: 0x8, addend: 0x0, symName: __ZN3fmt3v1020basic_format_contextINS0_8appenderEcE13error_handlerEv, symObjAddr: 0x1B7B4, symBinAddr: 0x10001E070, symSize: 0x10 }
  - { offsetInCU: 0x31663, offset: 0x31663, size: 0x8, addend: 0x0, symName: __ZN3fmt3v1026basic_format_parse_contextIcE11next_arg_idEv, symObjAddr: 0x1B7C4, symBinAddr: 0x10001E080, symSize: 0x64 }
  - { offsetInCU: 0x31698, offset: 0x31698, size: 0x8, addend: 0x0, symName: __ZN3fmt3v1026basic_format_parse_contextIcE15do_check_arg_idEi, symObjAddr: 0x1B828, symBinAddr: 0x10001E0E4, symSize: 0x14 }
  - { offsetInCU: 0x316CF, offset: 0x316CF, size: 0x8, addend: 0x0, symName: __ZZN3fmt3v106detail23parse_replacement_fieldIcRZNS1_10vformat_toIcEEvRNS1_6bufferIT_EENS0_17basic_string_viewIS5_EENS1_12vformat_argsIS5_E4typeENS1_10locale_refEE14format_handlerEEPKS5_SH_SH_OT0_EN10id_adapter7on_autoEv, symObjAddr: 0x1BA70, symBinAddr: 0x10001E32C, symSize: 0x34 }
  - { offsetInCU: 0x316F9, offset: 0x316F9, size: 0x8, addend: 0x0, symName: __ZZN3fmt3v106detail23parse_replacement_fieldIcRZNS1_10vformat_toIcEEvRNS1_6bufferIT_EENS0_17basic_string_viewIS5_EENS1_12vformat_argsIS5_E4typeENS1_10locale_refEE14format_handlerEEPKS5_SH_SH_OT0_EN10id_adapter8on_indexEi, symObjAddr: 0x1BCB4, symBinAddr: 0x10001E570, symSize: 0x3C }
  - { offsetInCU: 0x31732, offset: 0x31732, size: 0x8, addend: 0x0, symName: __ZZN3fmt3v106detail23parse_replacement_fieldIcRZNS1_10vformat_toIcEEvRNS1_6bufferIT_EENS0_17basic_string_viewIS5_EENS1_12vformat_argsIS5_E4typeENS1_10locale_refEE14format_handlerEEPKS5_SH_SH_OT0_EN10id_adapter7on_nameENS8_IcEE, symObjAddr: 0x1BD84, symBinAddr: 0x10001E640, symSize: 0x4C }
  - { offsetInCU: 0x3176B, offset: 0x3176B, size: 0x8, addend: 0x0, symName: __ZZN3fmt3v106detail10vformat_toIcEEvRNS1_6bufferIT_EENS0_17basic_string_viewIS4_EENS1_12vformat_argsIS4_E4typeENS1_10locale_refEEN14format_handler9on_arg_idEi, symObjAddr: 0x1BDD0, symBinAddr: 0x10001E68C, symSize: 0x30 }
  - { offsetInCU: 0x317A4, offset: 0x317A4, size: 0x8, addend: 0x0, symName: __ZN3fmt3v1026basic_format_parse_contextIcE12check_arg_idEi, symObjAddr: 0x1BE00, symBinAddr: 0x10001E6BC, symSize: 0x5C }
  - { offsetInCU: 0x317D9, offset: 0x317D9, size: 0x8, addend: 0x0, symName: __ZZN3fmt3v106detail10vformat_toIcEEvRNS1_6bufferIT_EENS0_17basic_string_viewIS4_EENS1_12vformat_argsIS4_E4typeENS1_10locale_refEEN14format_handler9on_arg_idENS7_IcEE, symObjAddr: 0x1BE5C, symBinAddr: 0x10001E718, symSize: 0x68 }
  - { offsetInCU: 0x31821, offset: 0x31821, size: 0x8, addend: 0x0, symName: __ZN3fmt3v1020basic_format_contextINS0_8appenderEcE6arg_idENS0_17basic_string_viewIcEE, symObjAddr: 0x1BEC4, symBinAddr: 0x10001E780, symSize: 0x40 }
  - { offsetInCU: 0x31856, offset: 0x31856, size: 0x8, addend: 0x0, symName: __ZNK3fmt3v1017basic_format_argsINS0_20basic_format_contextINS0_8appenderEcEEE6get_idIcEEiNS0_17basic_string_viewIT_EE, symObjAddr: 0x1BF04, symBinAddr: 0x10001E7C0, symSize: 0x15C }
  - { offsetInCU: 0x31914, offset: 0x31914, size: 0x8, addend: 0x0, symName: __ZNK3fmt3v1017basic_format_argsINS0_20basic_format_contextINS0_8appenderEcEEE14has_named_argsEv, symObjAddr: 0x1C060, symBinAddr: 0x10001E91C, symSize: 0x24 }
  - { offsetInCU: 0x3193A, offset: 0x3193A, size: 0x8, addend: 0x0, symName: __ZNK3fmt3v1017basic_string_viewIcE7compareES2_, symObjAddr: 0x1C0D4, symBinAddr: 0x10001E990, symSize: 0xF8 }
  - { offsetInCU: 0x3198D, offset: 0x3198D, size: 0x8, addend: 0x0, symName: __ZNSt3__111char_traitsIcE7compareB8ue170006EPKcS3_m, symObjAddr: 0x1C1CC, symBinAddr: 0x10001EA88, symSize: 0x34 }
  - { offsetInCU: 0x319CC, offset: 0x319CC, size: 0x8, addend: 0x0, symName: __ZNK3fmt3v1026basic_format_parse_contextIcE5beginEv, symObjAddr: 0x1C200, symBinAddr: 0x10001EABC, symSize: 0x24 }
  - { offsetInCU: 0x319F8, offset: 0x319F8, size: 0x8, addend: 0x0, symName: __ZN3fmt3v106detail20dynamic_format_specsIcEC1Ev, symObjAddr: 0x1C224, symBinAddr: 0x10001EAE0, symSize: 0x2C }
  - { offsetInCU: 0x31A25, offset: 0x31A25, size: 0x8, addend: 0x0, symName: __ZNK3fmt3v1016basic_format_argINS0_20basic_format_contextINS0_8appenderEcEEE4typeEv, symObjAddr: 0x1C250, symBinAddr: 0x10001EB0C, symSize: 0x18 }
  - { offsetInCU: 0x31A4B, offset: 0x31A4B, size: 0x8, addend: 0x0, symName: __ZN3fmt3v1026basic_format_parse_contextIcE10advance_toEPKc, symObjAddr: 0x1C478, symBinAddr: 0x10001ED34, symSize: 0x4C }
  - { offsetInCU: 0x31A80, offset: 0x31A80, size: 0x8, addend: 0x0, symName: __ZN3fmt3v1017basic_string_viewIcE13remove_prefixEm, symObjAddr: 0x1C4C4, symBinAddr: 0x10001ED80, symSize: 0x38 }
  - { offsetInCU: 0x31AB5, offset: 0x31AB5, size: 0x8, addend: 0x0, symName: __ZN3fmt3v106detail20dynamic_format_specsIcEC2Ev, symObjAddr: 0x1C4FC, symBinAddr: 0x10001EDB8, symSize: 0x44 }
  - { offsetInCU: 0x31AE2, offset: 0x31AE2, size: 0x8, addend: 0x0, symName: __ZN3fmt3v106detail7arg_refIcEC1Ev, symObjAddr: 0x1C540, symBinAddr: 0x10001EDFC, symSize: 0x2C }
  - { offsetInCU: 0x31B0C, offset: 0x31B0C, size: 0x8, addend: 0x0, symName: __ZN3fmt3v106detail7arg_refIcEC2Ev, symObjAddr: 0x1C56C, symBinAddr: 0x10001EE28, symSize: 0x38 }
  - { offsetInCU: 0x31B36, offset: 0x31B36, size: 0x8, addend: 0x0, symName: __ZN3fmt3v106detail7arg_refIcE5valueC1Ei, symObjAddr: 0x1C5A4, symBinAddr: 0x10001EE60, symSize: 0x34 }
  - { offsetInCU: 0x31B6F, offset: 0x31B6F, size: 0x8, addend: 0x0, symName: __ZN3fmt3v106detail7arg_refIcE5valueC2Ei, symObjAddr: 0x1C5D8, symBinAddr: 0x10001EE94, symSize: 0x20 }
  - { offsetInCU: 0x31BA8, offset: 0x31BA8, size: 0x8, addend: 0x0, symName: __ZZN3fmt3v106detail18parse_format_specsIcEEPKT_S5_S5_RNS1_20dynamic_format_specsIS3_EERNS0_26basic_format_parse_contextIS3_EENS1_4typeEENUt_C1Ev, symObjAddr: 0x1C6BC, symBinAddr: 0x10001EF78, symSize: 0x2C }
  - { offsetInCU: 0x31BD5, offset: 0x31BD5, size: 0x8, addend: 0x0, symName: __ZZN3fmt3v106detail18parse_format_specsIcEEPKT_S5_S5_RNS1_20dynamic_format_specsIS3_EERNS0_26basic_format_parse_contextIS3_EENS1_4typeEENUt_clENS1_5stateEb, symObjAddr: 0x1C6E8, symBinAddr: 0x10001EFA4, symSize: 0x70 }
  - { offsetInCU: 0x31C23, offset: 0x31C23, size: 0x8, addend: 0x0, symName: __ZZN3fmt3v106detail18parse_format_specsIcEEPKT_S5_S5_RNS1_20dynamic_format_specsIS3_EERNS0_26basic_format_parse_contextIS3_EENS1_4typeEENUt0_clENS0_17presentation_typeEi, symObjAddr: 0x1CA9C, symBinAddr: 0x10001F358, symSize: 0xA0 }
  - { offsetInCU: 0x31C6B, offset: 0x31C6B, size: 0x8, addend: 0x0, symName: __ZN3fmt3v106detail6fill_tIcEaSENS0_17basic_string_viewIcEE, symObjAddr: 0x1CB78, symBinAddr: 0x10001F434, symSize: 0xCC }
  - { offsetInCU: 0x31CCC, offset: 0x31CCC, size: 0x8, addend: 0x0, symName: __ZZN3fmt3v106detail18parse_format_specsIcEEPKT_S5_S5_RNS1_20dynamic_format_specsIS3_EERNS0_26basic_format_parse_contextIS3_EENS1_4typeEENUt_C2Ev, symObjAddr: 0x1CC44, symBinAddr: 0x10001F500, symSize: 0x18 }
  - { offsetInCU: 0x31CF9, offset: 0x31CF9, size: 0x8, addend: 0x0, symName: __ZN3fmt3v106detail23dynamic_spec_id_handlerIcE7on_autoEv, symObjAddr: 0x1CE90, symBinAddr: 0x10001F74C, symSize: 0x60 }
  - { offsetInCU: 0x31D2E, offset: 0x31D2E, size: 0x8, addend: 0x0, symName: __ZN3fmt3v106detail23dynamic_spec_id_handlerIcE8on_indexEi, symObjAddr: 0x1CEF0, symBinAddr: 0x10001F7AC, symSize: 0x68 }
  - { offsetInCU: 0x31D63, offset: 0x31D63, size: 0x8, addend: 0x0, symName: __ZN3fmt3v106detail23dynamic_spec_id_handlerIcE7on_nameENS0_17basic_string_viewIcEE, symObjAddr: 0x1CF58, symBinAddr: 0x10001F814, symSize: 0x74 }
  - { offsetInCU: 0x31D98, offset: 0x31D98, size: 0x8, addend: 0x0, symName: __ZN3fmt3v106detail7arg_refIcEC1Ei, symObjAddr: 0x1CFCC, symBinAddr: 0x10001F888, symSize: 0x34 }
  - { offsetInCU: 0x31DD1, offset: 0x31DD1, size: 0x8, addend: 0x0, symName: __ZN3fmt3v1026basic_format_parse_contextIcE18check_dynamic_specEi, symObjAddr: 0x1D000, symBinAddr: 0x10001F8BC, symSize: 0x14 }
  - { offsetInCU: 0x31E08, offset: 0x31E08, size: 0x8, addend: 0x0, symName: __ZN3fmt3v106detail7arg_refIcEC2Ei, symObjAddr: 0x1D014, symBinAddr: 0x10001F8D0, symSize: 0x40 }
  - { offsetInCU: 0x31E41, offset: 0x31E41, size: 0x8, addend: 0x0, symName: __ZN3fmt3v106detail7arg_refIcEC1ENS0_17basic_string_viewIcEE, symObjAddr: 0x1D054, symBinAddr: 0x10001F910, symSize: 0x3C }
  - { offsetInCU: 0x31E7A, offset: 0x31E7A, size: 0x8, addend: 0x0, symName: __ZN3fmt3v1026basic_format_parse_contextIcE12check_arg_idENS0_17basic_string_viewIcEE, symObjAddr: 0x1D090, symBinAddr: 0x10001F94C, symSize: 0x18 }
  - { offsetInCU: 0x31EAC, offset: 0x31EAC, size: 0x8, addend: 0x0, symName: __ZN3fmt3v106detail7arg_refIcEC2ENS0_17basic_string_viewIcEE, symObjAddr: 0x1D0A8, symBinAddr: 0x10001F964, symSize: 0x50 }
  - { offsetInCU: 0x31EE5, offset: 0x31EE5, size: 0x8, addend: 0x0, symName: __ZN3fmt3v106detail7arg_refIcE5valueC1ENS0_17basic_string_viewIcEE, symObjAddr: 0x1D0F8, symBinAddr: 0x10001F9B4, symSize: 0x3C }
  - { offsetInCU: 0x31F1E, offset: 0x31F1E, size: 0x8, addend: 0x0, symName: __ZN3fmt3v106detail7arg_refIcE5valueC2ENS0_17basic_string_viewIcEE, symObjAddr: 0x1D134, symBinAddr: 0x10001F9F0, symSize: 0x24 }
  - { offsetInCU: 0x31F63, offset: 0x31F63, size: 0x8, addend: 0x0, symName: __ZN3fmt3v106detail13width_checkerclIiLi0EEEyT_, symObjAddr: 0x1D4CC, symBinAddr: 0x10001FD88, symSize: 0x40 }
  - { offsetInCU: 0x31FA7, offset: 0x31FA7, size: 0x8, addend: 0x0, symName: __ZN3fmt3v106detail13width_checkerclIjLi0EEEyT_, symObjAddr: 0x1D50C, symBinAddr: 0x10001FDC8, symSize: 0x44 }
  - { offsetInCU: 0x31FEB, offset: 0x31FEB, size: 0x8, addend: 0x0, symName: __ZN3fmt3v106detail13width_checkerclIxLi0EEEyT_, symObjAddr: 0x1D550, symBinAddr: 0x10001FE0C, symSize: 0x40 }
  - { offsetInCU: 0x3202F, offset: 0x3202F, size: 0x8, addend: 0x0, symName: __ZN3fmt3v106detail13width_checkerclIyLi0EEEyT_, symObjAddr: 0x1D590, symBinAddr: 0x10001FE4C, symSize: 0x40 }
  - { offsetInCU: 0x32073, offset: 0x32073, size: 0x8, addend: 0x0, symName: __ZN3fmt3v106detail13width_checkerclInLi0EEEyT_, symObjAddr: 0x1D5D0, symBinAddr: 0x10001FE8C, symSize: 0x5C }
  - { offsetInCU: 0x320B7, offset: 0x320B7, size: 0x8, addend: 0x0, symName: __ZN3fmt3v106detail13width_checkerclIoLi0EEEyT_, symObjAddr: 0x1D62C, symBinAddr: 0x10001FEE8, symSize: 0x5C }
  - { offsetInCU: 0x320FB, offset: 0x320FB, size: 0x8, addend: 0x0, symName: __ZN3fmt3v106detail13width_checkerclIbLi0EEEyT_, symObjAddr: 0x1D688, symBinAddr: 0x10001FF44, symSize: 0x24 }
  - { offsetInCU: 0x3213C, offset: 0x3213C, size: 0x8, addend: 0x0, symName: __ZN3fmt3v106detail13width_checkerclIcLi0EEEyT_, symObjAddr: 0x1D6AC, symBinAddr: 0x10001FF68, symSize: 0x20 }
  - { offsetInCU: 0x3217D, offset: 0x3217D, size: 0x8, addend: 0x0, symName: __ZN3fmt3v106detail13width_checkerclIfLi0EEEyT_, symObjAddr: 0x1D6CC, symBinAddr: 0x10001FF88, symSize: 0x20 }
  - { offsetInCU: 0x321BE, offset: 0x321BE, size: 0x8, addend: 0x0, symName: __ZN3fmt3v106detail13width_checkerclIdLi0EEEyT_, symObjAddr: 0x1D6EC, symBinAddr: 0x10001FFA8, symSize: 0x20 }
  - { offsetInCU: 0x321FF, offset: 0x321FF, size: 0x8, addend: 0x0, symName: __ZN3fmt3v106detail13width_checkerclIeLi0EEEyT_, symObjAddr: 0x1D70C, symBinAddr: 0x10001FFC8, symSize: 0x20 }
  - { offsetInCU: 0x32240, offset: 0x32240, size: 0x8, addend: 0x0, symName: __ZN3fmt3v106detail13width_checkerclIPKcLi0EEEyT_, symObjAddr: 0x1D72C, symBinAddr: 0x10001FFE8, symSize: 0x20 }
  - { offsetInCU: 0x32281, offset: 0x32281, size: 0x8, addend: 0x0, symName: __ZN3fmt3v106detail13width_checkerclINS0_17basic_string_viewIcEELi0EEEyT_, symObjAddr: 0x1D74C, symBinAddr: 0x100020008, symSize: 0x24 }
  - { offsetInCU: 0x322C2, offset: 0x322C2, size: 0x8, addend: 0x0, symName: __ZN3fmt3v106detail13width_checkerclIPKvLi0EEEyT_, symObjAddr: 0x1D770, symBinAddr: 0x10002002C, symSize: 0x20 }
  - { offsetInCU: 0x32303, offset: 0x32303, size: 0x8, addend: 0x0, symName: __ZN3fmt3v106detail13width_checkerclINS0_16basic_format_argINS0_20basic_format_contextINS0_8appenderEcEEE6handleELi0EEEyT_, symObjAddr: 0x1D790, symBinAddr: 0x10002004C, symSize: 0x24 }
  - { offsetInCU: 0x32344, offset: 0x32344, size: 0x8, addend: 0x0, symName: __ZN3fmt3v106detail13width_checkerclINS0_9monostateELi0EEEyT_, symObjAddr: 0x1D7B4, symBinAddr: 0x100020070, symSize: 0x1C }
  - { offsetInCU: 0x32385, offset: 0x32385, size: 0x8, addend: 0x0, symName: __ZN3fmt3v1020basic_format_contextINS0_8appenderEcE3argENS0_17basic_string_viewIcEE, symObjAddr: 0x1D7D0, symBinAddr: 0x10002008C, symSize: 0x40 }
  - { offsetInCU: 0x323BA, offset: 0x323BA, size: 0x8, addend: 0x0, symName: __ZNK3fmt3v1017basic_format_argsINS0_20basic_format_contextINS0_8appenderEcEEE3getIcEENS0_16basic_format_argIS4_EENS0_17basic_string_viewIT_EE, symObjAddr: 0x1D810, symBinAddr: 0x1000200CC, symSize: 0x7C }
  - { offsetInCU: 0x32413, offset: 0x32413, size: 0x8, addend: 0x0, symName: __ZN3fmt3v106detail17precision_checkerclIiLi0EEEyT_, symObjAddr: 0x1DB9C, symBinAddr: 0x100020458, symSize: 0x40 }
  - { offsetInCU: 0x32457, offset: 0x32457, size: 0x8, addend: 0x0, symName: __ZN3fmt3v106detail17precision_checkerclIjLi0EEEyT_, symObjAddr: 0x1DBDC, symBinAddr: 0x100020498, symSize: 0x44 }
  - { offsetInCU: 0x3249B, offset: 0x3249B, size: 0x8, addend: 0x0, symName: __ZN3fmt3v106detail17precision_checkerclIxLi0EEEyT_, symObjAddr: 0x1DC20, symBinAddr: 0x1000204DC, symSize: 0x40 }
  - { offsetInCU: 0x324DF, offset: 0x324DF, size: 0x8, addend: 0x0, symName: __ZN3fmt3v106detail17precision_checkerclIyLi0EEEyT_, symObjAddr: 0x1DC60, symBinAddr: 0x10002051C, symSize: 0x40 }
  - { offsetInCU: 0x32523, offset: 0x32523, size: 0x8, addend: 0x0, symName: __ZN3fmt3v106detail17precision_checkerclInLi0EEEyT_, symObjAddr: 0x1DCA0, symBinAddr: 0x10002055C, symSize: 0x5C }
  - { offsetInCU: 0x32567, offset: 0x32567, size: 0x8, addend: 0x0, symName: __ZN3fmt3v106detail17precision_checkerclIoLi0EEEyT_, symObjAddr: 0x1DCFC, symBinAddr: 0x1000205B8, symSize: 0x5C }
  - { offsetInCU: 0x325AB, offset: 0x325AB, size: 0x8, addend: 0x0, symName: __ZN3fmt3v106detail17precision_checkerclIbLi0EEEyT_, symObjAddr: 0x1DD58, symBinAddr: 0x100020614, symSize: 0x24 }
  - { offsetInCU: 0x325EC, offset: 0x325EC, size: 0x8, addend: 0x0, symName: __ZN3fmt3v106detail17precision_checkerclIcLi0EEEyT_, symObjAddr: 0x1DD7C, symBinAddr: 0x100020638, symSize: 0x20 }
  - { offsetInCU: 0x3262D, offset: 0x3262D, size: 0x8, addend: 0x0, symName: __ZN3fmt3v106detail17precision_checkerclIfLi0EEEyT_, symObjAddr: 0x1DD9C, symBinAddr: 0x100020658, symSize: 0x20 }
  - { offsetInCU: 0x3266E, offset: 0x3266E, size: 0x8, addend: 0x0, symName: __ZN3fmt3v106detail17precision_checkerclIdLi0EEEyT_, symObjAddr: 0x1DDBC, symBinAddr: 0x100020678, symSize: 0x20 }
  - { offsetInCU: 0x326AF, offset: 0x326AF, size: 0x8, addend: 0x0, symName: __ZN3fmt3v106detail17precision_checkerclIeLi0EEEyT_, symObjAddr: 0x1DDDC, symBinAddr: 0x100020698, symSize: 0x20 }
  - { offsetInCU: 0x326F0, offset: 0x326F0, size: 0x8, addend: 0x0, symName: __ZN3fmt3v106detail17precision_checkerclIPKcLi0EEEyT_, symObjAddr: 0x1DDFC, symBinAddr: 0x1000206B8, symSize: 0x20 }
  - { offsetInCU: 0x32731, offset: 0x32731, size: 0x8, addend: 0x0, symName: __ZN3fmt3v106detail17precision_checkerclINS0_17basic_string_viewIcEELi0EEEyT_, symObjAddr: 0x1DE1C, symBinAddr: 0x1000206D8, symSize: 0x24 }
  - { offsetInCU: 0x32772, offset: 0x32772, size: 0x8, addend: 0x0, symName: __ZN3fmt3v106detail17precision_checkerclIPKvLi0EEEyT_, symObjAddr: 0x1DE40, symBinAddr: 0x1000206FC, symSize: 0x20 }
  - { offsetInCU: 0x327B3, offset: 0x327B3, size: 0x8, addend: 0x0, symName: __ZN3fmt3v106detail17precision_checkerclINS0_16basic_format_argINS0_20basic_format_contextINS0_8appenderEcEEE6handleELi0EEEyT_, symObjAddr: 0x1DE60, symBinAddr: 0x10002071C, symSize: 0x24 }
  - { offsetInCU: 0x327F4, offset: 0x327F4, size: 0x8, addend: 0x0, symName: __ZN3fmt3v106detail17precision_checkerclINS0_9monostateELi0EEEyT_, symObjAddr: 0x1DE84, symBinAddr: 0x100020740, symSize: 0x1C }
  - { offsetInCU: 0x32835, offset: 0x32835, size: 0x8, addend: 0x0, symName: __ZN3fmt3v106detail13arg_formatterIcEclENS0_16basic_format_argINS0_20basic_format_contextINS0_8appenderEcEEE6handleE, symObjAddr: 0x1DEA0, symBinAddr: 0x10002075C, symSize: 0x28 }
  - { offsetInCU: 0x32867, offset: 0x32867, size: 0x8, addend: 0x0, symName: __ZN3fmt3v109loc_valueC1IjLi0EEET_, symObjAddr: 0x1DEC8, symBinAddr: 0x100020784, symSize: 0x34 }
  - { offsetInCU: 0x328AF, offset: 0x328AF, size: 0x8, addend: 0x0, symName: __ZN3fmt3v109loc_valueC2IjLi0EEET_, symObjAddr: 0x1DEFC, symBinAddr: 0x1000207B8, symSize: 0x34 }
  - { offsetInCU: 0x32968, offset: 0x32968, size: 0x8, addend: 0x0, symName: __ZN3fmt3v109loc_valueC1IxLi0EEET_, symObjAddr: 0x1DFD0, symBinAddr: 0x10002088C, symSize: 0x34 }
  - { offsetInCU: 0x329B0, offset: 0x329B0, size: 0x8, addend: 0x0, symName: __ZN3fmt3v109loc_valueC2IxLi0EEET_, symObjAddr: 0x1E964, symBinAddr: 0x100021220, symSize: 0x34 }
  - { offsetInCU: 0x32A7B, offset: 0x32A7B, size: 0x8, addend: 0x0, symName: __ZZN3fmt3v106detail9write_intIcNS0_8appenderEyEET0_S4_NS1_13write_int_argIT1_EERKNS0_12format_specsIT_EENS1_10locale_refEENKUlS3_E_clES3_, symObjAddr: 0x1EA38, symBinAddr: 0x1000212F4, symSize: 0x50 }
  - { offsetInCU: 0x32AC0, offset: 0x32AC0, size: 0x8, addend: 0x0, symName: __ZZN3fmt3v106detail9write_intINS0_8appenderEcZNS1_9write_intIcS3_yEET0_S5_NS1_13write_int_argIT1_EERKNS0_12format_specsIT_EENS1_10locale_refEEUlS3_E_EESA_SA_ijRKNS9_IS5_EES7_ENKUlS3_E_clES3_, symObjAddr: 0x1EC9C, symBinAddr: 0x100021558, symSize: 0xE4 }
  - { offsetInCU: 0x32B22, offset: 0x32B22, size: 0x8, addend: 0x0, symName: __ZZN3fmt3v106detail9write_intIcNS0_8appenderEyEET0_S4_NS1_13write_int_argIT1_EERKNS0_12format_specsIT_EENS1_10locale_refEENKUlS3_E0_clES3_, symObjAddr: 0x1ED80, symBinAddr: 0x10002163C, symSize: 0x4C }
  - { offsetInCU: 0x32B67, offset: 0x32B67, size: 0x8, addend: 0x0, symName: __ZZN3fmt3v106detail9write_intINS0_8appenderEcZNS1_9write_intIcS3_yEET0_S5_NS1_13write_int_argIT1_EERKNS0_12format_specsIT_EENS1_10locale_refEEUlS3_E0_EESA_SA_ijRKNS9_IS5_EES7_ENKUlS3_E_clES3_, symObjAddr: 0x1EFE0, symBinAddr: 0x10002189C, symSize: 0xE4 }
  - { offsetInCU: 0x32BC9, offset: 0x32BC9, size: 0x8, addend: 0x0, symName: __ZZN3fmt3v106detail9write_intIcNS0_8appenderEyEET0_S4_NS1_13write_int_argIT1_EERKNS0_12format_specsIT_EENS1_10locale_refEENKUlS3_E1_clES3_, symObjAddr: 0x1F0C4, symBinAddr: 0x100021980, symSize: 0x4C }
  - { offsetInCU: 0x32C0E, offset: 0x32C0E, size: 0x8, addend: 0x0, symName: __ZZN3fmt3v106detail9write_intINS0_8appenderEcZNS1_9write_intIcS3_yEET0_S5_NS1_13write_int_argIT1_EERKNS0_12format_specsIT_EENS1_10locale_refEEUlS3_E1_EESA_SA_ijRKNS9_IS5_EES7_ENKUlS3_E_clES3_, symObjAddr: 0x1F324, symBinAddr: 0x100021BE0, symSize: 0xE4 }
  - { offsetInCU: 0x32C70, offset: 0x32C70, size: 0x8, addend: 0x0, symName: __ZZN3fmt3v106detail9write_intIcNS0_8appenderEyEET0_S4_NS1_13write_int_argIT1_EERKNS0_12format_specsIT_EENS1_10locale_refEENKUlS3_E2_clES3_, symObjAddr: 0x1F408, symBinAddr: 0x100021CC4, symSize: 0x4C }
  - { offsetInCU: 0x32CB5, offset: 0x32CB5, size: 0x8, addend: 0x0, symName: __ZZN3fmt3v106detail9write_intINS0_8appenderEcZNS1_9write_intIcS3_yEET0_S5_NS1_13write_int_argIT1_EERKNS0_12format_specsIT_EENS1_10locale_refEEUlS3_E2_EESA_SA_ijRKNS9_IS5_EES7_ENKUlS3_E_clES3_, symObjAddr: 0x1F668, symBinAddr: 0x100021F24, symSize: 0xE4 }
  - { offsetInCU: 0x32D0B, offset: 0x32D0B, size: 0x8, addend: 0x0, symName: __ZN3fmt3v109loc_valueC1IyLi0EEET_, symObjAddr: 0x1F74C, symBinAddr: 0x100022008, symSize: 0x34 }
  - { offsetInCU: 0x32D53, offset: 0x32D53, size: 0x8, addend: 0x0, symName: __ZN3fmt3v109loc_valueC2IyLi0EEET_, symObjAddr: 0x1F780, symBinAddr: 0x10002203C, symSize: 0x34 }
  - { offsetInCU: 0x32E12, offset: 0x32E12, size: 0x8, addend: 0x0, symName: __ZN3fmt3v109loc_valueC1InLi0EEET_, symObjAddr: 0x1F854, symBinAddr: 0x100022110, symSize: 0x4C }
  - { offsetInCU: 0x32E5A, offset: 0x32E5A, size: 0x8, addend: 0x0, symName: __ZN3fmt3v109loc_valueC2InLi0EEET_, symObjAddr: 0x202B8, symBinAddr: 0x100022B74, symSize: 0x3C }
  - { offsetInCU: 0x32F25, offset: 0x32F25, size: 0x8, addend: 0x0, symName: __ZZN3fmt3v106detail9write_intIcNS0_8appenderEoEET0_S4_NS1_13write_int_argIT1_EERKNS0_12format_specsIT_EENS1_10locale_refEENKUlS3_E_clES3_, symObjAddr: 0x20394, symBinAddr: 0x100022C50, symSize: 0x60 }
  - { offsetInCU: 0x32F6A, offset: 0x32F6A, size: 0x8, addend: 0x0, symName: __ZZN3fmt3v106detail9write_intINS0_8appenderEcZNS1_9write_intIcS3_oEET0_S5_NS1_13write_int_argIT1_EERKNS0_12format_specsIT_EENS1_10locale_refEEUlS3_E_EESA_SA_ijRKNS9_IS5_EES7_ENKUlS3_E_clES3_, symObjAddr: 0x20608, symBinAddr: 0x100022EC4, symSize: 0xE4 }
  - { offsetInCU: 0x32FCC, offset: 0x32FCC, size: 0x8, addend: 0x0, symName: __ZZN3fmt3v106detail9write_intIcNS0_8appenderEoEET0_S4_NS1_13write_int_argIT1_EERKNS0_12format_specsIT_EENS1_10locale_refEENKUlS3_E0_clES3_, symObjAddr: 0x206EC, symBinAddr: 0x100022FA8, symSize: 0x5C }
  - { offsetInCU: 0x33011, offset: 0x33011, size: 0x8, addend: 0x0, symName: __ZZN3fmt3v106detail9write_intINS0_8appenderEcZNS1_9write_intIcS3_oEET0_S5_NS1_13write_int_argIT1_EERKNS0_12format_specsIT_EENS1_10locale_refEEUlS3_E0_EESA_SA_ijRKNS9_IS5_EES7_ENKUlS3_E_clES3_, symObjAddr: 0x2095C, symBinAddr: 0x100023218, symSize: 0xE4 }
  - { offsetInCU: 0x33073, offset: 0x33073, size: 0x8, addend: 0x0, symName: __ZZN3fmt3v106detail9write_intIcNS0_8appenderEoEET0_S4_NS1_13write_int_argIT1_EERKNS0_12format_specsIT_EENS1_10locale_refEENKUlS3_E1_clES3_, symObjAddr: 0x20A40, symBinAddr: 0x1000232FC, symSize: 0x5C }
  - { offsetInCU: 0x330B8, offset: 0x330B8, size: 0x8, addend: 0x0, symName: __ZZN3fmt3v106detail9write_intINS0_8appenderEcZNS1_9write_intIcS3_oEET0_S5_NS1_13write_int_argIT1_EERKNS0_12format_specsIT_EENS1_10locale_refEEUlS3_E1_EESA_SA_ijRKNS9_IS5_EES7_ENKUlS3_E_clES3_, symObjAddr: 0x20CB0, symBinAddr: 0x10002356C, symSize: 0xE4 }
  - { offsetInCU: 0x3311A, offset: 0x3311A, size: 0x8, addend: 0x0, symName: __ZZN3fmt3v106detail9write_intIcNS0_8appenderEoEET0_S4_NS1_13write_int_argIT1_EERKNS0_12format_specsIT_EENS1_10locale_refEENKUlS3_E2_clES3_, symObjAddr: 0x20D94, symBinAddr: 0x100023650, symSize: 0x5C }
  - { offsetInCU: 0x3315F, offset: 0x3315F, size: 0x8, addend: 0x0, symName: __ZZN3fmt3v106detail9write_intINS0_8appenderEcZNS1_9write_intIcS3_oEET0_S5_NS1_13write_int_argIT1_EERKNS0_12format_specsIT_EENS1_10locale_refEEUlS3_E2_EESA_SA_ijRKNS9_IS5_EES7_ENKUlS3_E_clES3_, symObjAddr: 0x21004, symBinAddr: 0x1000238C0, symSize: 0xE4 }
  - { offsetInCU: 0x331B5, offset: 0x331B5, size: 0x8, addend: 0x0, symName: __ZN3fmt3v109loc_valueC1IoLi0EEET_, symObjAddr: 0x210E8, symBinAddr: 0x1000239A4, symSize: 0x4C }
  - { offsetInCU: 0x331FD, offset: 0x331FD, size: 0x8, addend: 0x0, symName: __ZN3fmt3v109loc_valueC2IoLi0EEET_, symObjAddr: 0x21134, symBinAddr: 0x1000239F0, symSize: 0x3C }
  - { offsetInCU: 0x332BC, offset: 0x332BC, size: 0x8, addend: 0x0, symName: __ZN3fmt3v109loc_valueC1IhLi0EEET_, symObjAddr: 0x2148C, symBinAddr: 0x100023D48, symSize: 0x34 }
  - { offsetInCU: 0x33304, offset: 0x33304, size: 0x8, addend: 0x0, symName: __ZN3fmt3v109loc_valueC2IhLi0EEET_, symObjAddr: 0x21590, symBinAddr: 0x100023E4C, symSize: 0x34 }
  - { offsetInCU: 0x3336F, offset: 0x3336F, size: 0x8, addend: 0x0, symName: __ZN3fmt3v109loc_valueC1IfLi0EEET_, symObjAddr: 0x217B0, symBinAddr: 0x10002406C, symSize: 0x34 }
  - { offsetInCU: 0x333B7, offset: 0x333B7, size: 0x8, addend: 0x0, symName: __ZN3fmt3v109loc_valueC2IfLi0EEET_, symObjAddr: 0x21D74, symBinAddr: 0x100024630, symSize: 0x34 }
  - { offsetInCU: 0x3346F, offset: 0x3346F, size: 0x8, addend: 0x0, symName: __Z8isfiniteB8ue170006IfLi0EEbT_, symObjAddr: 0x2321C, symBinAddr: 0x100025AD8, symSize: 0x34 }
  - { offsetInCU: 0x334B3, offset: 0x334B3, size: 0x8, addend: 0x0, symName: __ZN3fmt3v106detail8basic_fpIyEC1IdEET_, symObjAddr: 0x23250, symBinAddr: 0x100025B0C, symSize: 0x34 }
  - { offsetInCU: 0x334F5, offset: 0x334F5, size: 0x8, addend: 0x0, symName: __ZN3fmt3v106detail8basic_fpIyEC2IdEET_, symObjAddr: 0x2329C, symBinAddr: 0x100025B58, symSize: 0x34 }
  - { offsetInCU: 0x33537, offset: 0x33537, size: 0x8, addend: 0x0, symName: __ZN3fmt3v106detail8basic_fpIyE6assignIdLi0EEEbT_, symObjAddr: 0x232D0, symBinAddr: 0x100025B8C, symSize: 0x11C }
  - { offsetInCU: 0x335ED, offset: 0x335ED, size: 0x8, addend: 0x0, symName: __ZZN3fmt3v106detail11write_bytesILNS0_5align4typeE2EcNS0_8appenderEEET1_S6_NS0_17basic_string_viewIcEERKNS0_12format_specsIT0_EEENKUlS5_E_clES5_, symObjAddr: 0x23600, symBinAddr: 0x100025EBC, symSize: 0x74 }
  - { offsetInCU: 0x33635, offset: 0x33635, size: 0x8, addend: 0x0, symName: __ZN3fmt3v106detail6bufferIcEixIiEERcT_, symObjAddr: 0x2380C, symBinAddr: 0x1000260C8, symSize: 0x24 }
  - { offsetInCU: 0x3367F, offset: 0x3367F, size: 0x8, addend: 0x0, symName: __ZZN3fmt3v106detail12format_floatIdEEiT_iNS1_11float_specsERNS1_6bufferIcEEENKUljPcE_clEjS8_, symObjAddr: 0x23830, symBinAddr: 0x1000260EC, symSize: 0x1C4 }
  - { offsetInCU: 0x3372E, offset: 0x3372E, size: 0x8, addend: 0x0, symName: __ZN3fmt3v106detail8basic_fpIoEC1Ev, symObjAddr: 0x23A14, symBinAddr: 0x1000262D0, symSize: 0x2C }
  - { offsetInCU: 0x33758, offset: 0x33758, size: 0x8, addend: 0x0, symName: __ZN3fmt3v106detail8basic_fpIoE6assignIfLi0EEEbT_, symObjAddr: 0x23A40, symBinAddr: 0x1000262FC, symSize: 0x124 }
  - { offsetInCU: 0x33802, offset: 0x33802, size: 0x8, addend: 0x0, symName: __ZN3fmt3v106detail8basic_fpIoE6assignIdLi0EEEbT_, symObjAddr: 0x23B64, symBinAddr: 0x100026420, symSize: 0x128 }
  - { offsetInCU: 0x338AC, offset: 0x338AC, size: 0x8, addend: 0x0, symName: __ZN3fmt3v106detail6bufferIcEixImEERcT_, symObjAddr: 0x247E0, symBinAddr: 0x10002709C, symSize: 0x24 }
  - { offsetInCU: 0x338EA, offset: 0x338EA, size: 0x8, addend: 0x0, symName: __ZN3fmt3v106detail8basic_fpIoEC2Ev, symObjAddr: 0x24804, symBinAddr: 0x1000270C0, symSize: 0x28 }
  - { offsetInCU: 0x33914, offset: 0x33914, size: 0x8, addend: 0x0, symName: __ZN3fmt3v106detail6bigintC1Ev, symObjAddr: 0x2482C, symBinAddr: 0x1000270E8, symSize: 0x2C }
  - { offsetInCU: 0x3393E, offset: 0x3393E, size: 0x8, addend: 0x0, symName: __ZN3fmt3v106detail6bigintaSIoEEvT_, symObjAddr: 0x24858, symBinAddr: 0x100027114, symSize: 0xAC }
  - { offsetInCU: 0x3397C, offset: 0x3397C, size: 0x8, addend: 0x0, symName: __ZN3fmt3v106detail6bigintlSEi, symObjAddr: 0x24904, symBinAddr: 0x1000271C0, symSize: 0x18C }
  - { offsetInCU: 0x33A09, offset: 0x33A09, size: 0x8, addend: 0x0, symName: __ZN3fmt3v106detail6bigintaSIiEEvT_, symObjAddr: 0x24A90, symBinAddr: 0x10002734C, symSize: 0x64 }
  - { offsetInCU: 0x33A47, offset: 0x33A47, size: 0x8, addend: 0x0, symName: __ZN3fmt3v106detail6bigint12assign_pow10Ei, symObjAddr: 0x24AF4, symBinAddr: 0x1000273B0, symSize: 0x13C }
  - { offsetInCU: 0x33A8B, offset: 0x33A8B, size: 0x8, addend: 0x0, symName: __ZN3fmt3v106detail6bigint6assignERKS2_, symObjAddr: 0x24C30, symBinAddr: 0x1000274EC, symSize: 0x9C }
  - { offsetInCU: 0x33ADE, offset: 0x33ADE, size: 0x8, addend: 0x0, symName: __ZN3fmt3v106detail6bigintmLIoEERS2_T_, symObjAddr: 0x24CCC, symBinAddr: 0x100027588, symSize: 0xB0 }
  - { offsetInCU: 0x33B1C, offset: 0x33B1C, size: 0x8, addend: 0x0, symName: __ZN3fmt3v106detail6bigintaSIyEEvT_, symObjAddr: 0x24D7C, symBinAddr: 0x100027638, symSize: 0x64 }
  - { offsetInCU: 0x33B5A, offset: 0x33B5A, size: 0x8, addend: 0x0, symName: __ZN3fmt3v106detail6bigintmLIiEERS2_T_, symObjAddr: 0x25010, symBinAddr: 0x1000278CC, symSize: 0x68 }
  - { offsetInCU: 0x33B98, offset: 0x33B98, size: 0x8, addend: 0x0, symName: __ZN3fmt3v106detail6bigint13divmod_assignERKS2_, symObjAddr: 0x25078, symBinAddr: 0x100027934, symSize: 0x128 }
  - { offsetInCU: 0x33BDC, offset: 0x33BDC, size: 0x8, addend: 0x0, symName: __ZN3fmt3v106detail6bigintD1Ev, symObjAddr: 0x25354, symBinAddr: 0x100027C10, symSize: 0x2C }
  - { offsetInCU: 0x33C09, offset: 0x33C09, size: 0x8, addend: 0x0, symName: __ZN3fmt3v106detail6bigintC2Ev, symObjAddr: 0x25380, symBinAddr: 0x100027C3C, symSize: 0x44 }
  - { offsetInCU: 0x33C33, offset: 0x33C33, size: 0x8, addend: 0x0, symName: __ZNSt3__19allocatorIjEC1B8ue170006Ev, symObjAddr: 0x253C4, symBinAddr: 0x100027C80, symSize: 0x2C }
  - { offsetInCU: 0x33C5D, offset: 0x33C5D, size: 0x8, addend: 0x0, symName: __ZN3fmt3v1019basic_memory_bufferIjLm32ENSt3__19allocatorIjEEEC1ERKS4_, symObjAddr: 0x253F0, symBinAddr: 0x100027CAC, symSize: 0x34 }
  - { offsetInCU: 0x33C96, offset: 0x33C96, size: 0x8, addend: 0x0, symName: __ZNSt3__19allocatorIjEC2B8ue170006Ev, symObjAddr: 0x25424, symBinAddr: 0x100027CE0, symSize: 0x2C }
  - { offsetInCU: 0x33CC0, offset: 0x33CC0, size: 0x8, addend: 0x0, symName: __ZNSt3__116__non_trivial_ifILb1ENS_9allocatorIjEEEC2B8ue170006Ev, symObjAddr: 0x25450, symBinAddr: 0x100027D0C, symSize: 0x14 }
  - { offsetInCU: 0x33CEA, offset: 0x33CEA, size: 0x8, addend: 0x0, symName: __ZN3fmt3v1019basic_memory_bufferIjLm32ENSt3__19allocatorIjEEEC2ERKS4_, symObjAddr: 0x25464, symBinAddr: 0x100027D20, symSize: 0x68 }
  - { offsetInCU: 0x33D23, offset: 0x33D23, size: 0x8, addend: 0x0, symName: __ZN3fmt3v106detail6bufferIjEC2EPjmm, symObjAddr: 0x254CC, symBinAddr: 0x100027D88, symSize: 0x48 }
  - { offsetInCU: 0x33D7A, offset: 0x33D7A, size: 0x8, addend: 0x0, symName: __ZN3fmt3v106detail6bufferIjE3setEPjm, symObjAddr: 0x25514, symBinAddr: 0x100027DD0, symSize: 0x2C }
  - { offsetInCU: 0x33DBE, offset: 0x33DBE, size: 0x8, addend: 0x0, symName: __ZN3fmt3v1019basic_memory_bufferIjLm32ENSt3__19allocatorIjEEE4growEm, symObjAddr: 0x25540, symBinAddr: 0x100027DFC, symSize: 0x198 }
  - { offsetInCU: 0x33E50, offset: 0x33E50, size: 0x8, addend: 0x0, symName: __ZNSt3__116allocator_traitsINS_9allocatorIjEEE8max_sizeB8ue170006IS2_vvEEmRKS2_, symObjAddr: 0x256D8, symBinAddr: 0x100027F94, symSize: 0x28 }
  - { offsetInCU: 0x33E7C, offset: 0x33E7C, size: 0x8, addend: 0x0, symName: __ZNK3fmt3v106detail6bufferIjE8capacityEv, symObjAddr: 0x25700, symBinAddr: 0x100027FBC, symSize: 0x18 }
  - { offsetInCU: 0x33EA2, offset: 0x33EA2, size: 0x8, addend: 0x0, symName: __ZN3fmt3v106detail6bufferIjE4dataEv, symObjAddr: 0x25718, symBinAddr: 0x100027FD4, symSize: 0x18 }
  - { offsetInCU: 0x33EC8, offset: 0x33EC8, size: 0x8, addend: 0x0, symName: __ZNSt3__116allocator_traitsINS_9allocatorIjEEE8allocateB8ue170006ERS2_m, symObjAddr: 0x25730, symBinAddr: 0x100027FEC, symSize: 0x2C }
  - { offsetInCU: 0x33EFB, offset: 0x33EFB, size: 0x8, addend: 0x0, symName: __ZNK3fmt3v106detail6bufferIjE4sizeEv, symObjAddr: 0x2575C, symBinAddr: 0x100028018, symSize: 0x18 }
  - { offsetInCU: 0x33F21, offset: 0x33F21, size: 0x8, addend: 0x0, symName: __ZNSt3__19allocatorIjE10deallocateB8ue170006EPjm, symObjAddr: 0x257B4, symBinAddr: 0x100028070, symSize: 0x40 }
  - { offsetInCU: 0x33F63, offset: 0x33F63, size: 0x8, addend: 0x0, symName: __ZNSt3__19allocatorIjE8allocateB8ue170006Em, symObjAddr: 0x257F4, symBinAddr: 0x1000280B0, symSize: 0x58 }
  - { offsetInCU: 0x33FBB, offset: 0x33FBB, size: 0x8, addend: 0x0, symName: __ZNSt3__14pairIPjS1_EC1B8ue170006IS1_S1_LPv0EEEOT_OT0_, symObjAddr: 0x25994, symBinAddr: 0x1000281F4, symSize: 0x3C }
  - { offsetInCU: 0x34019, offset: 0x34019, size: 0x8, addend: 0x0, symName: __ZNSt3__14pairIPjS1_EC2B8ue170006IS1_S1_LPv0EEEOT_OT0_, symObjAddr: 0x259E0, symBinAddr: 0x100028230, symSize: 0x34 }
  - { offsetInCU: 0x34077, offset: 0x34077, size: 0x8, addend: 0x0, symName: __ZN3fmt3v106detail6bigint6assignIoLi0EEEvT_, symObjAddr: 0x25A14, symBinAddr: 0x100028264, symSize: 0xD8 }
  - { offsetInCU: 0x340CA, offset: 0x340CA, size: 0x8, addend: 0x0, symName: __ZN3fmt3v106detail6bufferIjEixImEERjT_, symObjAddr: 0x25AEC, symBinAddr: 0x10002833C, symSize: 0x24 }
  - { offsetInCU: 0x34108, offset: 0x34108, size: 0x8, addend: 0x0, symName: __ZN3fmt3v1019basic_memory_bufferIjLm32ENSt3__19allocatorIjEEE6resizeEm, symObjAddr: 0x25B10, symBinAddr: 0x100028360, symSize: 0x2C }
  - { offsetInCU: 0x3413D, offset: 0x3413D, size: 0x8, addend: 0x0, symName: __ZN3fmt3v106detail6bufferIjE10try_resizeEm, symObjAddr: 0x25B3C, symBinAddr: 0x10002838C, symSize: 0x74 }
  - { offsetInCU: 0x34172, offset: 0x34172, size: 0x8, addend: 0x0, symName: __ZN3fmt3v106detail6bufferIjE11try_reserveEm, symObjAddr: 0x25BB0, symBinAddr: 0x100028400, symSize: 0x58 }
  - { offsetInCU: 0x341A7, offset: 0x341A7, size: 0x8, addend: 0x0, symName: __ZN3fmt3v106detail6bufferIjE9push_backERKj, symObjAddr: 0x25C08, symBinAddr: 0x100028458, symSize: 0x54 }
  - { offsetInCU: 0x341DC, offset: 0x341DC, size: 0x8, addend: 0x0, symName: __ZN3fmt3v106detail6bigint6assignIyLi0EEEvT_, symObjAddr: 0x25C5C, symBinAddr: 0x1000284AC, symSize: 0x8C }
  - { offsetInCU: 0x3422F, offset: 0x3422F, size: 0x8, addend: 0x0, symName: __ZN3fmt3v106detail6bigint6squareEv, symObjAddr: 0x25CE8, symBinAddr: 0x100028538, symSize: 0x370 }
  - { offsetInCU: 0x34323, offset: 0x34323, size: 0x8, addend: 0x0, symName: __ZN3fmt3v1019basic_memory_bufferIjLm32ENSt3__19allocatorIjEEEC1EOS5_, symObjAddr: 0x26058, symBinAddr: 0x1000288A8, symSize: 0x34 }
  - { offsetInCU: 0x3435C, offset: 0x3435C, size: 0x8, addend: 0x0, symName: __ZN3fmt3v106detail6bufferIjEixIiEERjT_, symObjAddr: 0x2608C, symBinAddr: 0x1000288DC, symSize: 0x24 }
  - { offsetInCU: 0x3439A, offset: 0x3439A, size: 0x8, addend: 0x0, symName: __ZN3fmt3v106detail6bigintixEi, symObjAddr: 0x260B0, symBinAddr: 0x100028900, symSize: 0x3C }
  - { offsetInCU: 0x343CF, offset: 0x343CF, size: 0x8, addend: 0x0, symName: __ZN3fmt3v106detail6bigint20remove_leading_zerosEv, symObjAddr: 0x260F4, symBinAddr: 0x100028944, symSize: 0xB0 }
  - { offsetInCU: 0x34404, offset: 0x34404, size: 0x8, addend: 0x0, symName: __ZN3fmt3v1019basic_memory_bufferIjLm32ENSt3__19allocatorIjEEED1Ev, symObjAddr: 0x261A4, symBinAddr: 0x1000289F4, symSize: 0x2C }
  - { offsetInCU: 0x3442E, offset: 0x3442E, size: 0x8, addend: 0x0, symName: __ZN3fmt3v1019basic_memory_bufferIjLm32ENSt3__19allocatorIjEEEC2EOS5_, symObjAddr: 0x261D0, symBinAddr: 0x100028A20, symSize: 0x70 }
  - { offsetInCU: 0x34467, offset: 0x34467, size: 0x8, addend: 0x0, symName: __ZN3fmt3v1019basic_memory_bufferIjLm32ENSt3__19allocatorIjEEE4moveERS5_, symObjAddr: 0x26240, symBinAddr: 0x100028A90, symSize: 0xE0 }
  - { offsetInCU: 0x344C9, offset: 0x344C9, size: 0x8, addend: 0x0, symName: __ZN3fmt3v106detail6bufferIjE5clearEv, symObjAddr: 0x2637C, symBinAddr: 0x100028BCC, symSize: 0x18 }
  - { offsetInCU: 0x344EF, offset: 0x344EF, size: 0x8, addend: 0x0, symName: __ZN3fmt3v106detail6bufferIjEixIjEERjT_, symObjAddr: 0x26394, symBinAddr: 0x100028BE4, symSize: 0x24 }
  - { offsetInCU: 0x3452D, offset: 0x3452D, size: 0x8, addend: 0x0, symName: __ZN3fmt3v1019basic_memory_bufferIjLm32ENSt3__19allocatorIjEEED2Ev, symObjAddr: 0x263B8, symBinAddr: 0x100028C08, symSize: 0x34 }
  - { offsetInCU: 0x34557, offset: 0x34557, size: 0x8, addend: 0x0, symName: __ZN3fmt3v1019basic_memory_bufferIjLm32ENSt3__19allocatorIjEEE10deallocateEv, symObjAddr: 0x263EC, symBinAddr: 0x100028C3C, symSize: 0x6C }
  - { offsetInCU: 0x3458C, offset: 0x3458C, size: 0x8, addend: 0x0, symName: __ZNK3fmt3v106detail6bufferIjE4dataEv, symObjAddr: 0x26458, symBinAddr: 0x100028CA8, symSize: 0x18 }
  - { offsetInCU: 0x345BE, offset: 0x345BE, size: 0x8, addend: 0x0, symName: __ZZN3fmt3v106detail11add_compareERKNS1_6bigintES4_S4_ENKUliiE0_clEii, symObjAddr: 0x266E8, symBinAddr: 0x100028F38, symSize: 0x4C }
  - { offsetInCU: 0x34606, offset: 0x34606, size: 0x8, addend: 0x0, symName: __ZNK3fmt3v106detail6bigint10num_bigitsEv, symObjAddr: 0x26734, symBinAddr: 0x100028F84, symSize: 0x38 }
  - { offsetInCU: 0x34638, offset: 0x34638, size: 0x8, addend: 0x0, symName: __ZZN3fmt3v106detail11add_compareERKNS1_6bigintES4_S4_ENKUliiE_clEii, symObjAddr: 0x2676C, symBinAddr: 0x100028FBC, symSize: 0x4C }
  - { offsetInCU: 0x3468C, offset: 0x3468C, size: 0x8, addend: 0x0, symName: __ZZN3fmt3v106detail11add_compareERKNS1_6bigintES4_S4_ENKUlS4_iE_clES4_i, symObjAddr: 0x267B8, symBinAddr: 0x100029008, symSize: 0x94 }
  - { offsetInCU: 0x346D4, offset: 0x346D4, size: 0x8, addend: 0x0, symName: __ZNK3fmt3v106detail6bigintixEi, symObjAddr: 0x2684C, symBinAddr: 0x10002909C, symSize: 0x40 }
  - { offsetInCU: 0x34709, offset: 0x34709, size: 0x8, addend: 0x0, symName: __ZNK3fmt3v106detail6bufferIjEixIjEERKjT_, symObjAddr: 0x2688C, symBinAddr: 0x1000290DC, symSize: 0x24 }
  - { offsetInCU: 0x34747, offset: 0x34747, size: 0x8, addend: 0x0, symName: __ZN3fmt3v106detail6bigint8multiplyEj, symObjAddr: 0x268B0, symBinAddr: 0x100029100, symSize: 0xE4 }
  - { offsetInCU: 0x347E3, offset: 0x347E3, size: 0x8, addend: 0x0, symName: __ZNK3fmt3v106detail6bufferIjEixImEERKjT_, symObjAddr: 0x26994, symBinAddr: 0x1000291E4, symSize: 0x24 }
  - { offsetInCU: 0x34821, offset: 0x34821, size: 0x8, addend: 0x0, symName: __ZN3fmt3v106detail6bigint5alignERKS2_, symObjAddr: 0x269B8, symBinAddr: 0x100029208, symSize: 0x138 }
  - { offsetInCU: 0x348A0, offset: 0x348A0, size: 0x8, addend: 0x0, symName: __ZN3fmt3v106detail6bigint16subtract_alignedERKS2_, symObjAddr: 0x26AF0, symBinAddr: 0x100029340, symSize: 0x164 }
  - { offsetInCU: 0x3491F, offset: 0x3491F, size: 0x8, addend: 0x0, symName: __ZN3fmt3v106detail6bigint15subtract_bigitsEijRj, symObjAddr: 0x26CFC, symBinAddr: 0x10002954C, symSize: 0x84 }
  - { offsetInCU: 0x34981, offset: 0x34981, size: 0x8, addend: 0x0, symName: __ZN3fmt3v106detail6bigintD2Ev, symObjAddr: 0x26D80, symBinAddr: 0x1000295D0, symSize: 0x2C }
  - { offsetInCU: 0x349BA, offset: 0x349BA, size: 0x8, addend: 0x0, symName: __ZZN3fmt3v106detail14do_write_floatINS0_8appenderENS1_14big_decimal_fpEcNS1_14digit_groupingIcEEEET_S7_RKT0_RKNS0_12format_specsIT1_EENS1_11float_specsENS1_10locale_refEENKUlvE_clEv, symObjAddr: 0x2759C, symBinAddr: 0x100029DEC, symSize: 0x110 }
  - { offsetInCU: 0x34A0E, offset: 0x34A0E, size: 0x8, addend: 0x0, symName: __ZZN3fmt3v106detail14do_write_floatINS0_8appenderENS1_14big_decimal_fpEcNS1_14digit_groupingIcEEEET_S7_RKT0_RKNS0_12format_specsIT1_EENS1_11float_specsENS1_10locale_refEENKUlS3_E_clES3_, symObjAddr: 0x276FC, symBinAddr: 0x100029F4C, symSize: 0x148 }
  - { offsetInCU: 0x34A5F, offset: 0x34A5F, size: 0x8, addend: 0x0, symName: __ZZN3fmt3v106detail14do_write_floatINS0_8appenderENS1_14big_decimal_fpEcNS1_14digit_groupingIcEEEET_S7_RKT0_RKNS0_12format_specsIT1_EENS1_11float_specsENS1_10locale_refEENKUlS3_E0_clES3_, symObjAddr: 0x27D8C, symBinAddr: 0x10002A5DC, symSize: 0x168 }
  - { offsetInCU: 0x34AA4, offset: 0x34AA4, size: 0x8, addend: 0x0, symName: __ZZN3fmt3v106detail14do_write_floatINS0_8appenderENS1_14big_decimal_fpEcNS1_14digit_groupingIcEEEET_S7_RKT0_RKNS0_12format_specsIT1_EENS1_11float_specsENS1_10locale_refEENKUlS3_E1_clES3_, symObjAddr: 0x282E4, symBinAddr: 0x10002AB34, symSize: 0x11C }
  - { offsetInCU: 0x34AE9, offset: 0x34AE9, size: 0x8, addend: 0x0, symName: __ZZN3fmt3v106detail14do_write_floatINS0_8appenderENS1_14big_decimal_fpEcNS1_14digit_groupingIcEEEET_S7_RKT0_RKNS0_12format_specsIT1_EENS1_11float_specsENS1_10locale_refEENKUlS3_E2_clES3_, symObjAddr: 0x287A8, symBinAddr: 0x10002AFF8, symSize: 0x160 }
  - { offsetInCU: 0x34B22, offset: 0x34B22, size: 0x8, addend: 0x0, symName: __ZN3fmt3v109loc_valueC1IdLi0EEET_, symObjAddr: 0x28A3C, symBinAddr: 0x10002B28C, symSize: 0x34 }
  - { offsetInCU: 0x34B6A, offset: 0x34B6A, size: 0x8, addend: 0x0, symName: __ZN3fmt3v109loc_valueC2IdLi0EEET_, symObjAddr: 0x28FB8, symBinAddr: 0x10002B808, symSize: 0x34 }
  - { offsetInCU: 0x34C28, offset: 0x34C28, size: 0x8, addend: 0x0, symName: __Z8isfiniteB8ue170006IdLi0EEbT_, symObjAddr: 0x290E4, symBinAddr: 0x10002B934, symSize: 0x34 }
  - { offsetInCU: 0x34C66, offset: 0x34C66, size: 0x8, addend: 0x0, symName: __ZN3fmt3v109loc_valueC1IeLi0EEET_, symObjAddr: 0x2924C, symBinAddr: 0x10002BA9C, symSize: 0x34 }
  - { offsetInCU: 0x34CAE, offset: 0x34CAE, size: 0x8, addend: 0x0, symName: __ZN3fmt3v109loc_valueC2IeLi0EEET_, symObjAddr: 0x297E0, symBinAddr: 0x10002C030, symSize: 0x34 }
  - { offsetInCU: 0x34D6C, offset: 0x34D6C, size: 0x8, addend: 0x0, symName: __Z8isfiniteB8ue170006IeLi0EEbT_, symObjAddr: 0x29920, symBinAddr: 0x10002C170, symSize: 0x34 }
  - { offsetInCU: 0x34DC2, offset: 0x34DC2, size: 0x8, addend: 0x0, symName: __ZN3fmt3v106detail17counting_iteratorC1Ev, symObjAddr: 0x29E84, symBinAddr: 0x10002C6D4, symSize: 0x2C }
  - { offsetInCU: 0x34DEC, offset: 0x34DEC, size: 0x8, addend: 0x0, symName: __ZNK3fmt3v106detail17counting_iterator5countEv, symObjAddr: 0x29EB0, symBinAddr: 0x10002C700, symSize: 0x18 }
  - { offsetInCU: 0x34E24, offset: 0x34E24, size: 0x8, addend: 0x0, symName: __ZZN3fmt3v106detail18for_each_codepointIZNS1_16code_point_indexENS0_17basic_string_viewIcEEmEUljS4_E_EEvS4_T_ENKUlPKcS8_E_clES8_S8_, symObjAddr: 0x2A2A0, symBinAddr: 0x10002CAF0, symSize: 0x144 }
  - { offsetInCU: 0x34EB4, offset: 0x34EB4, size: 0x8, addend: 0x0, symName: __ZZN3fmt3v106detail16code_point_indexENS0_17basic_string_viewIcEEmENKUljS3_E_clEjS3_, symObjAddr: 0x2A6E8, symBinAddr: 0x10002CF38, symSize: 0xB0 }
  - { offsetInCU: 0x34EF9, offset: 0x34EF9, size: 0x8, addend: 0x0, symName: __ZN3fmt3v106detail17counting_iteratorppEi, symObjAddr: 0x2A798, symBinAddr: 0x10002CFE8, symSize: 0x34 }
  - { offsetInCU: 0x34F3A, offset: 0x34F3A, size: 0x8, addend: 0x0, symName: __ZNK3fmt3v106detail17counting_iteratordeEv, symObjAddr: 0x2A7CC, symBinAddr: 0x10002D01C, symSize: 0x10 }
  - { offsetInCU: 0x34F66, offset: 0x34F66, size: 0x8, addend: 0x0, symName: __ZN3fmt3v106detail17counting_iterator10value_typeaSIcEEvRKT_, symObjAddr: 0x2A7DC, symBinAddr: 0x10002D02C, symSize: 0x14 }
  - { offsetInCU: 0x34FA1, offset: 0x34FA1, size: 0x8, addend: 0x0, symName: __ZN3fmt3v106detail17counting_iteratorppEv, symObjAddr: 0x2ACBC, symBinAddr: 0x10002D50C, symSize: 0x20 }
  - { offsetInCU: 0x34FD9, offset: 0x34FD9, size: 0x8, addend: 0x0, symName: __ZZN3fmt3v106detail18for_each_codepointIZNS1_11find_escapeEPKcS4_EUljNS0_17basic_string_viewIcEEE_EEvS6_T_ENKUlS4_S4_E_clES4_S4_, symObjAddr: 0x2AE9C, symBinAddr: 0x10002D6EC, symSize: 0x144 }
  - { offsetInCU: 0x35069, offset: 0x35069, size: 0x8, addend: 0x0, symName: __ZZN3fmt3v106detail11find_escapeEPKcS3_ENKUljNS0_17basic_string_viewIcEEE_clEjS5_, symObjAddr: 0x2AFE0, symBinAddr: 0x10002D830, symSize: 0xB0 }
  - { offsetInCU: 0x350B1, offset: 0x350B1, size: 0x8, addend: 0x0, symName: __ZN3fmt3v106detail17counting_iteratorC2Ev, symObjAddr: 0x2B430, symBinAddr: 0x10002DC80, symSize: 0x18 }
  - { offsetInCU: 0x350E7, offset: 0x350E7, size: 0x8, addend: 0x0, symName: __ZZN3fmt3v106detail18for_each_codepointIZNS1_13compute_widthENS0_17basic_string_viewIcEEE17count_code_pointsEEvS4_T_ENKUlPKcS8_E_clES8_S8_, symObjAddr: 0x2B608, symBinAddr: 0x10002DE58, symSize: 0x144 }
  - { offsetInCU: 0x3516B, offset: 0x3516B, size: 0x8, addend: 0x0, symName: __ZZN3fmt3v106detail13compute_widthENS0_17basic_string_viewIcEEENK17count_code_pointsclEjS3_, symObjAddr: 0x2B74C, symBinAddr: 0x10002DF9C, symSize: 0x38C }
  - { offsetInCU: 0x351BC, offset: 0x351BC, size: 0x8, addend: 0x0, symName: __ZZN3fmt3v106detail5writeIcNS0_8appenderEEET0_S4_NS0_17basic_string_viewIT_EERKNS0_12format_specsIS6_EEENKUlS3_E_clES3_, symObjAddr: 0x2BAD8, symBinAddr: 0x10002E328, symSize: 0x90 }
  - { offsetInCU: 0x351F5, offset: 0x351F5, size: 0x8, addend: 0x0, symName: __Z6memchrB8ue170006Ua9enable_ifIXLb1EEEPKvim, symObjAddr: 0x2BCBC, symBinAddr: 0x10002E50C, symSize: 0x34 }
  - { offsetInCU: 0x3523E, offset: 0x3523E, size: 0x8, addend: 0x0, symName: __ZZN3fmt3v106detail10vformat_toIcEEvRNS1_6bufferIT_EENS0_17basic_string_viewIS4_EENS1_12vformat_argsIS4_E4typeENS1_10locale_refEEN14format_handlerC2ENS0_8appenderENS7_IcEENS0_17basic_format_argsINS0_20basic_format_contextISE_cEEEESC_, symObjAddr: 0x2BCF0, symBinAddr: 0x10002E540, symSize: 0x8C }
  - { offsetInCU: 0x352A4, offset: 0x352A4, size: 0x8, addend: 0x0, symName: __ZNKSt3__112basic_stringIcNS_11char_traitsIcEENS_9allocatorIcEEE8max_sizeB8ue170006Ev, symObjAddr: 0x2BD7C, symBinAddr: 0x10002E5CC, symSize: 0xAC }
  - { offsetInCU: 0x352F6, offset: 0x352F6, size: 0x8, addend: 0x0, symName: __ZNK3fmt3v106detail6bufferIcE4dataEv, symObjAddr: 0x2BE28, symBinAddr: 0x10002E678, symSize: 0x18 }
  - { offsetInCU: 0x3531C, offset: 0x3531C, size: 0x8, addend: 0x0, symName: __ZNSt3__112basic_stringIcNS_11char_traitsIcEENS_9allocatorIcEEEC1B8ue170006EPKcm, symObjAddr: 0x2BE40, symBinAddr: 0x10002E690, symSize: 0x3C }
  - { offsetInCU: 0x35364, offset: 0x35364, size: 0x8, addend: 0x0, symName: __ZNKSt3__112basic_stringIcNS_11char_traitsIcEENS_9allocatorIcEEE7__allocB8ue170006Ev, symObjAddr: 0x2BE7C, symBinAddr: 0x10002E6CC, symSize: 0x24 }
  - { offsetInCU: 0x3538A, offset: 0x3538A, size: 0x8, addend: 0x0, symName: __ZNKSt3__117__compressed_pairINS_12basic_stringIcNS_11char_traitsIcEENS_9allocatorIcEEE5__repES5_E6secondB8ue170006Ev, symObjAddr: 0x2BEA0, symBinAddr: 0x10002E6F0, symSize: 0x24 }
  - { offsetInCU: 0x353B0, offset: 0x353B0, size: 0x8, addend: 0x0, symName: __ZNKSt3__122__compressed_pair_elemINS_9allocatorIcEELi1ELb1EE5__getB8ue170006Ev, symObjAddr: 0x2BEC4, symBinAddr: 0x10002E714, symSize: 0x14 }
  - { offsetInCU: 0x353D6, offset: 0x353D6, size: 0x8, addend: 0x0, symName: __ZNSt3__112basic_stringIcNS_11char_traitsIcEENS_9allocatorIcEEEC2B8ue170006EPKcm, symObjAddr: 0x2BED8, symBinAddr: 0x10002E728, symSize: 0x4C }
  - { offsetInCU: 0x3541E, offset: 0x3541E, size: 0x8, addend: 0x0, symName: __ZN3fmt3v1019basic_memory_bufferIcLm500ENSt3__19allocatorIcEEED2Ev, symObjAddr: 0x2BF24, symBinAddr: 0x10002E774, symSize: 0x34 }
  - { offsetInCU: 0x35448, offset: 0x35448, size: 0x8, addend: 0x0, symName: __ZN3fmt3v1019basic_memory_bufferIcLm500ENSt3__19allocatorIcEEE10deallocateEv, symObjAddr: 0x2BF58, symBinAddr: 0x10002E7A8, symSize: 0x6C }
  - { offsetInCU: 0x3547D, offset: 0x3547D, size: 0x8, addend: 0x0, symName: '__ZNSt3__122__compressed_pair_elemIZN8MQTTPlus6Client11ProcessDataEPciE3$_0Li0ELb0EE5__getB8ue170006Ev', symObjAddr: 0x2BFC4, symBinAddr: 0x10002E814, symSize: 0x14 }
  - { offsetInCU: 0x354D9, offset: 0x354D9, size: 0x8, addend: 0x0, symName: __ZNKSt9type_infoeqB8ue170006ERKS_, symObjAddr: 0x2BFD8, symBinAddr: 0x10002E828, symSize: 0xDC }
  - { offsetInCU: 0x35577, offset: 0x35577, size: 0x8, addend: 0x0, symName: __ZNSt27__type_info_implementations30__non_unique_arm_rtti_bit_impl21__is_type_name_uniqueB8ue170006Em, symObjAddr: 0x2C0B4, symBinAddr: 0x10002E904, symSize: 0x20 }
  - { offsetInCU: 0x3559B, offset: 0x3559B, size: 0x8, addend: 0x0, symName: __ZNSt3__18functionIFvR3RefIN4MQTT7MessageEEEED2Ev, symObjAddr: 0x2C0D4, symBinAddr: 0x10002E924, symSize: 0x2C }
  - { offsetInCU: 0x355C7, offset: 0x355C7, size: 0x8, addend: 0x0, symName: __ZNSt3__110__function12__value_funcIFvR3RefIN4MQTT7MessageEEEED1B8ue170006Ev, symObjAddr: 0x2C100, symBinAddr: 0x10002E950, symSize: 0x2C }
  - { offsetInCU: 0x355F1, offset: 0x355F1, size: 0x8, addend: 0x0, symName: __ZNSt3__110__function12__value_funcIFvR3RefIN4MQTT7MessageEEEED2B8ue170006Ev, symObjAddr: 0x2C12C, symBinAddr: 0x10002E97C, symSize: 0x90 }
  - { offsetInCU: 0x3561B, offset: 0x3561B, size: 0x8, addend: 0x0, symName: __ZNKSt3__110__function12__value_funcIFv3RefIN4MQTT7MessageEEEEclB8ue170006EOS5_, symObjAddr: 0x2C1BC, symBinAddr: 0x10002EA0C, symSize: 0x58 }
  - { offsetInCU: 0x35656, offset: 0x35656, size: 0x8, addend: 0x0, symName: __ZNSt3__117bad_function_callC1Ev, symObjAddr: 0x2C24C, symBinAddr: 0x10002EA9C, symSize: 0x2C }
  - { offsetInCU: 0x35682, offset: 0x35682, size: 0x8, addend: 0x0, symName: __ZNSt3__117bad_function_callD1Ev, symObjAddr: 0x2C278, symBinAddr: 0x10002EAC8, symSize: 0x2C }
  - { offsetInCU: 0x356AC, offset: 0x356AC, size: 0x8, addend: 0x0, symName: __ZNSt3__117bad_function_callC2Ev, symObjAddr: 0x2C2A4, symBinAddr: 0x10002EAF4, symSize: 0x44 }
  - { offsetInCU: 0x356D8, offset: 0x356D8, size: 0x8, addend: 0x0, symName: __ZNSt9exceptionC2B8ue170006Ev, symObjAddr: 0x2C2E8, symBinAddr: 0x10002EB38, symSize: 0x24 }
  - { offsetInCU: 0x35702, offset: 0x35702, size: 0x8, addend: 0x0, symName: __ZNSt3__117bad_function_callD0Ev, symObjAddr: 0x2C30C, symBinAddr: 0x10002EB5C, symSize: 0x30 }
  - { offsetInCU: 0x3572C, offset: 0x3572C, size: 0x8, addend: 0x0, symName: __ZNSt3__117bad_function_callD2Ev, symObjAddr: 0x2C33C, symBinAddr: 0x10002EB8C, symSize: 0x2C }
  - { offsetInCU: 0x35756, offset: 0x35756, size: 0x8, addend: 0x0, symName: __ZN3RefIN4MQTT7MessageEEC2ERKS2_, symObjAddr: 0x2C368, symBinAddr: 0x10002EBB8, symSize: 0x3C }
  - { offsetInCU: 0x3578E, offset: 0x3578E, size: 0x8, addend: 0x0, symName: __ZNK3RefIN4MQTT7MessageEE6IncRefEv, symObjAddr: 0x2C3A4, symBinAddr: 0x10002EBF4, symSize: 0x48 }
  - { offsetInCU: 0x30F3, offset: 0x39150, size: 0x8, addend: 0x0, symName: '__ZNSt3__110__function10__not_nullB8ue170006IZN8MQTTPlus6Broker6ListenEvE3$_0EEbRKT_', symObjAddr: 0x3670, symBinAddr: 0x100031D5C, symSize: 0x18 }
  - { offsetInCU: 0x3124, offset: 0x39181, size: 0x8, addend: 0x0, symName: '__ZNSt3__110__function10__not_nullB8ue170006IZZN8MQTTPlus6Broker6ListenEvENK3$_0clEPvEUl3RefIN4MQTT7MessageEEE_EEbRKT_', symObjAddr: 0x6954, symBinAddr: 0x1000343C4, symSize: 0x18 }
  - { offsetInCU: 0x3155, offset: 0x391B2, size: 0x8, addend: 0x0, symName: '__ZNSt3__110__function10__not_nullB8ue170006IZN8MQTTPlus6Broker6ListenEvE3$_1EEbRKT_', symObjAddr: 0xB83C, symBinAddr: 0x10003906C, symSize: 0x18 }
  - { offsetInCU: 0x3186, offset: 0x391E3, size: 0x8, addend: 0x0, symName: '__ZNSt3__110__function10__not_nullB8ue170006IZN8MQTTPlus6Broker6ListenEvE3$_2EEbRKT_', symObjAddr: 0xD7E4, symBinAddr: 0x10003B014, symSize: 0x18 }
  - { offsetInCU: 0xB79C, offset: 0x417F9, size: 0x8, addend: 0x0, symName: __ZNSt3__14swapB8ue170006IPNS_10__function6__baseIFvPvEEEEENS_9enable_ifIXaasr21is_move_constructibleIT_EE5valuesr18is_move_assignableIS8_EE5valueEvE4typeERS8_SB_, symObjAddr: 0x1554, symBinAddr: 0x100030088, symSize: 0x3C }
  - { offsetInCU: 0xB7EF, offset: 0x4184C, size: 0x8, addend: 0x0, symName: __ZNSt3__14swapB8ue170006IPNS_10__function6__baseIFvPviEEEEENS_9enable_ifIXaasr21is_move_constructibleIT_EE5valuesr18is_move_assignableIS8_EE5valueEvE4typeERS8_SB_, symObjAddr: 0x1A44, symBinAddr: 0x100030578, symSize: 0x3C }
  - { offsetInCU: 0xB842, offset: 0x4189F, size: 0x8, addend: 0x0, symName: __ZNSt3__14swapB8ue170006IPNS_10__function6__baseIFvPvPciEEEEENS_9enable_ifIXaasr21is_move_constructibleIT_EE5valuesr18is_move_assignableIS9_EE5valueEvE4typeERS9_SC_, symObjAddr: 0x1F34, symBinAddr: 0x100030A68, symSize: 0x3C }
  - { offsetInCU: 0xB8C9, offset: 0x41926, size: 0x8, addend: 0x0, symName: __ZNSt3__110destroy_atB8ue170006INS_4pairIKPv3RefIN8MQTTPlus6ClientEEEELi0EEEvPT_, symObjAddr: 0x2B94, symBinAddr: 0x1000316C8, symSize: 0x24 }
  - { offsetInCU: 0xB901, offset: 0x4195E, size: 0x8, addend: 0x0, symName: __ZNSt3__112__destroy_atB8ue170006INS_4pairIKPv3RefIN8MQTTPlus6ClientEEEELi0EEEvPT_, symObjAddr: 0x2BB8, symBinAddr: 0x1000316EC, symSize: 0x24 }
  - { offsetInCU: 0xB938, offset: 0x41995, size: 0x8, addend: 0x0, symName: __ZNSt3__17launderB8ue170006INS_4pairIKPv3RefIN8MQTTPlus6ClientEEEEEEPT_SA_, symObjAddr: 0x2C5C, symBinAddr: 0x100031790, symSize: 0x24 }
  - { offsetInCU: 0xB96F, offset: 0x419CC, size: 0x8, addend: 0x0, symName: __ZNSt3__19__launderB8ue170006INS_4pairIKPv3RefIN8MQTTPlus6ClientEEEEEEPT_SA_, symObjAddr: 0x2C80, symBinAddr: 0x1000317B4, symSize: 0x14 }
  - { offsetInCU: 0xBA57, offset: 0x41AB4, size: 0x8, addend: 0x0, symName: '__ZNSt3__116forward_as_tupleB8ue170006IJZN8MQTTPlus6Broker6ListenEvE3$_0EEENS_5tupleIJDpOT_EEES7_', symObjAddr: 0x3BF0, symBinAddr: 0x1000322DC, symSize: 0x2C }
  - { offsetInCU: 0xBA90, offset: 0x41AED, size: 0x8, addend: 0x0, symName: '__ZNSt3__116forward_as_tupleB8ue170006IJNS_9allocatorIZN8MQTTPlus6Broker6ListenEvE3$_0EEEEENS_5tupleIJDpOT_EEES9_', symObjAddr: 0x3C1C, symBinAddr: 0x100032308, symSize: 0x2C }
  - { offsetInCU: 0xBAF3, offset: 0x41B50, size: 0x8, addend: 0x0, symName: '__ZNSt3__13getB8ue170006ILm0EJOZN8MQTTPlus6Broker6ListenEvE3$_0EEERNS_13tuple_elementIXT_ENS_5tupleIJDpT0_EEEE4typeERS9_', symObjAddr: 0x3F34, symBinAddr: 0x100032620, symSize: 0x24 }
  - { offsetInCU: 0xBB35, offset: 0x41B92, size: 0x8, addend: 0x0, symName: '__ZNSt3__13getB8ue170006ILm0EJONS_9allocatorIZN8MQTTPlus6Broker6ListenEvE3$_0EEEEERNS_13tuple_elementIXT_ENS_5tupleIJDpT0_EEEE4typeERSB_', symObjAddr: 0x3F70, symBinAddr: 0x10003265C, symSize: 0x24 }
  - { offsetInCU: 0xC05C, offset: 0x420B9, size: 0x8, addend: 0x0, symName: '__ZNSt3__116forward_as_tupleB8ue170006IJRKZN8MQTTPlus6Broker6ListenEvE3$_0EEENS_5tupleIJDpOT_EEES9_', symObjAddr: 0x45F4, symBinAddr: 0x100032BE0, symSize: 0x2C }
  - { offsetInCU: 0xC0AA, offset: 0x42107, size: 0x8, addend: 0x0, symName: '__ZNSt3__13getB8ue170006ILm0EJRKZN8MQTTPlus6Broker6ListenEvE3$_0EEERNS_13tuple_elementIXT_ENS_5tupleIJDpT0_EEEE4typeERSA_', symObjAddr: 0x47E4, symBinAddr: 0x100032DD0, symSize: 0x24 }
  - { offsetInCU: 0xC0EC, offset: 0x42149, size: 0x8, addend: 0x0, symName: '__ZNSt3__116forward_as_tupleB8ue170006IJRKNS_9allocatorIZN8MQTTPlus6Broker6ListenEvE3$_0EEEEENS_5tupleIJDpOT_EEESB_', symObjAddr: 0x4B40, symBinAddr: 0x10003312C, symSize: 0x2C }
  - { offsetInCU: 0xC13A, offset: 0x42197, size: 0x8, addend: 0x0, symName: '__ZNSt3__13getB8ue170006ILm0EJRKNS_9allocatorIZN8MQTTPlus6Broker6ListenEvE3$_0EEEEERNS_13tuple_elementIXT_ENS_5tupleIJDpT0_EEEE4typeERSC_', symObjAddr: 0x4D24, symBinAddr: 0x100033310, symSize: 0x24 }
  - { offsetInCU: 0xC24C, offset: 0x422A9, size: 0x8, addend: 0x0, symName: '__ZNSt3__18__invokeB8ue170006IRZN8MQTTPlus6Broker6ListenEvE3$_0JPvEEEDTclclsr3stdE7declvalIT_EEspclsr3stdE7declvalIT0_EEEEOS6_DpOS7_', symObjAddr: 0x4DF0, symBinAddr: 0x1000333DC, symSize: 0x30 }
  - { offsetInCU: 0xC299, offset: 0x422F6, size: 0x8, addend: 0x0, symName: __ZNSt3__14swapB8ue170006IPNS_10__function6__baseIFv3RefIN4MQTT7MessageEEEEEEENS_9enable_ifIXaasr21is_move_constructibleIT_EE5valuesr18is_move_assignableISB_EE5valueEvE4typeERSB_SE_, symObjAddr: 0x6630, symBinAddr: 0x1000340A0, symSize: 0x3C }
  - { offsetInCU: 0xC882, offset: 0x428DF, size: 0x8, addend: 0x0, symName: '__ZNSt3__116forward_as_tupleB8ue170006IJZZN8MQTTPlus6Broker6ListenEvENK3$_0clEPvEUl3RefIN4MQTT7MessageEEE_EEENS_5tupleIJDpOT_EEESD_', symObjAddr: 0x717C, symBinAddr: 0x100034BEC, symSize: 0x2C }
  - { offsetInCU: 0xC8BB, offset: 0x42918, size: 0x8, addend: 0x0, symName: '__ZNSt3__116forward_as_tupleB8ue170006IJNS_9allocatorIZZN8MQTTPlus6Broker6ListenEvENK3$_0clEPvEUl3RefIN4MQTT7MessageEEE_EEEEENS_5tupleIJDpOT_EEESF_', symObjAddr: 0x71A8, symBinAddr: 0x100034C18, symSize: 0x2C }
  - { offsetInCU: 0xC91E, offset: 0x4297B, size: 0x8, addend: 0x0, symName: '__ZNSt3__13getB8ue170006ILm0EJOZZN8MQTTPlus6Broker6ListenEvENK3$_0clEPvEUl3RefIN4MQTT7MessageEEE_EEERNS_13tuple_elementIXT_ENS_5tupleIJDpT0_EEEE4typeERSF_', symObjAddr: 0x7514, symBinAddr: 0x100034F84, symSize: 0x24 }
  - { offsetInCU: 0xC960, offset: 0x429BD, size: 0x8, addend: 0x0, symName: '__ZNSt3__13getB8ue170006ILm0EJONS_9allocatorIZZN8MQTTPlus6Broker6ListenEvENK3$_0clEPvEUl3RefIN4MQTT7MessageEEE_EEEEERNS_13tuple_elementIXT_ENS_5tupleIJDpT0_EEEE4typeERSH_', symObjAddr: 0x7A90, symBinAddr: 0x100035500, symSize: 0x24 }
  - { offsetInCU: 0xCB2E, offset: 0x42B8B, size: 0x8, addend: 0x0, symName: '__ZNSt3__116forward_as_tupleB8ue170006IJRKZZN8MQTTPlus6Broker6ListenEvENK3$_0clEPvEUl3RefIN4MQTT7MessageEEE_EEENS_5tupleIJDpOT_EEESF_', symObjAddr: 0x7F58, symBinAddr: 0x1000359C8, symSize: 0x2C }
  - { offsetInCU: 0xCB7C, offset: 0x42BD9, size: 0x8, addend: 0x0, symName: '__ZNSt3__13getB8ue170006ILm0EJRKZZN8MQTTPlus6Broker6ListenEvENK3$_0clEPvEUl3RefIN4MQTT7MessageEEE_EEERNS_13tuple_elementIXT_ENS_5tupleIJDpT0_EEEE4typeERSG_', symObjAddr: 0x8148, symBinAddr: 0x100035BB8, symSize: 0x24 }
  - { offsetInCU: 0xCBBE, offset: 0x42C1B, size: 0x8, addend: 0x0, symName: '__ZNSt3__116forward_as_tupleB8ue170006IJRKNS_9allocatorIZZN8MQTTPlus6Broker6ListenEvENK3$_0clEPvEUl3RefIN4MQTT7MessageEEE_EEEEENS_5tupleIJDpOT_EEESH_', symObjAddr: 0x851C, symBinAddr: 0x100035F8C, symSize: 0x2C }
  - { offsetInCU: 0xCC0C, offset: 0x42C69, size: 0x8, addend: 0x0, symName: '__ZNSt3__13getB8ue170006ILm0EJRKNS_9allocatorIZZN8MQTTPlus6Broker6ListenEvENK3$_0clEPvEUl3RefIN4MQTT7MessageEEE_EEEEERNS_13tuple_elementIXT_ENS_5tupleIJDpT0_EEEE4typeERSI_', symObjAddr: 0x8728, symBinAddr: 0x100036198, symSize: 0x24 }
  - { offsetInCU: 0xCC4E, offset: 0x42CAB, size: 0x8, addend: 0x0, symName: '__ZNSt3__18__invokeB8ue170006IRZZN8MQTTPlus6Broker6ListenEvENK3$_0clEPvEUl3RefIN4MQTT7MessageEEE_JS8_EEEDTclclsr3stdE7declvalIT_EEspclsr3stdE7declvalIT0_EEEEOSB_DpOSC_', symObjAddr: 0x8808, symBinAddr: 0x100036278, symSize: 0x70 }
  - { offsetInCU: 0xCCD2, offset: 0x42D2F, size: 0x8, addend: 0x0, symName: __ZNSt3__116forward_as_tupleB8ue170006IJRKPvEEENS_5tupleIJDpOT_EEES7_, symObjAddr: 0x9230, symBinAddr: 0x100036A94, symSize: 0x2C }
  - { offsetInCU: 0xCD0B, offset: 0x42D68, size: 0x8, addend: 0x0, symName: __ZNSt3__116forward_as_tupleB8ue170006IJEEENS_5tupleIJDpOT_EEES4_, symObjAddr: 0x925C, symBinAddr: 0x100036AC0, symSize: 0x4 }
  - { offsetInCU: 0xCD2F, offset: 0x42D8C, size: 0x8, addend: 0x0, symName: __ZNSt3__116__constrain_hashB8ue170006Emm, symObjAddr: 0x9310, symBinAddr: 0x100036B74, symSize: 0x98 }
  - { offsetInCU: 0xCD6B, offset: 0x42DC8, size: 0x8, addend: 0x0, symName: __ZNSt3__13maxB8ue170006ImEERKT_S3_S3_, symObjAddr: 0x9630, symBinAddr: 0x100036E94, symSize: 0x2C }
  - { offsetInCU: 0xCDAE, offset: 0x42E0B, size: 0x8, addend: 0x0, symName: __ZNSt3__116__is_hash_power2B8ue170006Em, symObjAddr: 0x965C, symBinAddr: 0x100036EC0, symSize: 0x50 }
  - { offsetInCU: 0xCDDB, offset: 0x42E38, size: 0x8, addend: 0x0, symName: __ZNSt3__110__loadwordB8ue170006ImEET_PKv, symObjAddr: 0xA250, symBinAddr: 0x100037AB4, symSize: 0x20 }
  - { offsetInCU: 0xCE20, offset: 0x42E7D, size: 0x8, addend: 0x0, symName: __ZNSt3__14swapB8ue170006ImEENS_9enable_ifIXaasr21is_move_constructibleIT_EE5valuesr18is_move_assignableIS2_EE5valueEvE4typeERS2_S5_, symObjAddr: 0xA40C, symBinAddr: 0x100037C70, symSize: 0x3C }
  - { offsetInCU: 0xCE73, offset: 0x42ED0, size: 0x8, addend: 0x0, symName: __ZNSt3__110__loadwordB8ue170006IjEET_PKv, symObjAddr: 0xA49C, symBinAddr: 0x100037D00, symSize: 0x20 }
  - { offsetInCU: 0xCEB8, offset: 0x42F15, size: 0x8, addend: 0x0, symName: __ZNSt3__17launderB8ue170006IKNS_4pairIKPv3RefIN8MQTTPlus6ClientEEEEEEPT_SB_, symObjAddr: 0xA78C, symBinAddr: 0x100037FF0, symSize: 0x24 }
  - { offsetInCU: 0xCEEF, offset: 0x42F4C, size: 0x8, addend: 0x0, symName: __ZNSt3__19__launderB8ue170006IKNS_4pairIKPv3RefIN8MQTTPlus6ClientEEEEEEPT_SB_, symObjAddr: 0xA7B0, symBinAddr: 0x100038014, symSize: 0x14 }
  - { offsetInCU: 0xCF6C, offset: 0x42FC9, size: 0x8, addend: 0x0, symName: __ZNSt3__112construct_atB8ue170006INS_4pairIKPv3RefIN8MQTTPlus6ClientEEEEJRKNS_21piecewise_construct_tENS_5tupleIJRS3_EEENSC_IJEEEEPS8_EEPT_SI_DpOT0_, symObjAddr: 0xAAA4, symBinAddr: 0x100038308, symSize: 0x50 }
  - { offsetInCU: 0xD004, offset: 0x43061, size: 0x8, addend: 0x0, symName: __ZNSt3__13getB8ue170006ILm0EJRKPvEEERNS_13tuple_elementIXT_ENS_5tupleIJDpT0_EEEE4typeERS8_, symObjAddr: 0xABB8, symBinAddr: 0x10003841C, symSize: 0x24 }
  - { offsetInCU: 0xD048, offset: 0x430A5, size: 0x8, addend: 0x0, symName: __ZNSt3__116__next_hash_pow2B8ue170006Em, symObjAddr: 0xB100, symBinAddr: 0x100038964, symSize: 0x6C }
  - { offsetInCU: 0xD092, offset: 0x430EF, size: 0x8, addend: 0x0, symName: __ZNSt3__112__libcpp_clzB8ue170006Em, symObjAddr: 0xB2B4, symBinAddr: 0x100038B18, symSize: 0x1C }
  - { offsetInCU: 0xD0C0, offset: 0x4311D, size: 0x8, addend: 0x0, symName: __ZNSt3__13maxB8ue170006ImNS_6__lessIvvEEEERKT_S5_S5_T0_, symObjAddr: 0xB2D0, symBinAddr: 0x100038B34, symSize: 0x54 }
  - { offsetInCU: 0xD213, offset: 0x43270, size: 0x8, addend: 0x0, symName: '__ZNSt3__116forward_as_tupleB8ue170006IJZN8MQTTPlus6Broker6ListenEvE3$_1EEENS_5tupleIJDpOT_EEES7_', symObjAddr: 0xBDC4, symBinAddr: 0x1000395F4, symSize: 0x2C }
  - { offsetInCU: 0xD24C, offset: 0x432A9, size: 0x8, addend: 0x0, symName: '__ZNSt3__116forward_as_tupleB8ue170006IJNS_9allocatorIZN8MQTTPlus6Broker6ListenEvE3$_1EEEEENS_5tupleIJDpOT_EEES9_', symObjAddr: 0xBDF0, symBinAddr: 0x100039620, symSize: 0x2C }
  - { offsetInCU: 0xD2AF, offset: 0x4330C, size: 0x8, addend: 0x0, symName: '__ZNSt3__13getB8ue170006ILm0EJOZN8MQTTPlus6Broker6ListenEvE3$_1EEERNS_13tuple_elementIXT_ENS_5tupleIJDpT0_EEEE4typeERS9_', symObjAddr: 0xC108, symBinAddr: 0x100039938, symSize: 0x24 }
  - { offsetInCU: 0xD2F1, offset: 0x4334E, size: 0x8, addend: 0x0, symName: '__ZNSt3__13getB8ue170006ILm0EJONS_9allocatorIZN8MQTTPlus6Broker6ListenEvE3$_1EEEEERNS_13tuple_elementIXT_ENS_5tupleIJDpT0_EEEE4typeERSB_', symObjAddr: 0xC144, symBinAddr: 0x100039974, symSize: 0x24 }
  - { offsetInCU: 0xD818, offset: 0x43875, size: 0x8, addend: 0x0, symName: '__ZNSt3__116forward_as_tupleB8ue170006IJRKZN8MQTTPlus6Broker6ListenEvE3$_1EEENS_5tupleIJDpOT_EEES9_', symObjAddr: 0xC6C8, symBinAddr: 0x100039EF8, symSize: 0x2C }
  - { offsetInCU: 0xD866, offset: 0x438C3, size: 0x8, addend: 0x0, symName: '__ZNSt3__13getB8ue170006ILm0EJRKZN8MQTTPlus6Broker6ListenEvE3$_1EEERNS_13tuple_elementIXT_ENS_5tupleIJDpT0_EEEE4typeERSA_', symObjAddr: 0xC8B8, symBinAddr: 0x10003A0E8, symSize: 0x24 }
  - { offsetInCU: 0xD8A8, offset: 0x43905, size: 0x8, addend: 0x0, symName: '__ZNSt3__116forward_as_tupleB8ue170006IJRKNS_9allocatorIZN8MQTTPlus6Broker6ListenEvE3$_1EEEEENS_5tupleIJDpOT_EEESB_', symObjAddr: 0xCC14, symBinAddr: 0x10003A444, symSize: 0x2C }
  - { offsetInCU: 0xD8F6, offset: 0x43953, size: 0x8, addend: 0x0, symName: '__ZNSt3__13getB8ue170006ILm0EJRKNS_9allocatorIZN8MQTTPlus6Broker6ListenEvE3$_1EEEEERNS_13tuple_elementIXT_ENS_5tupleIJDpT0_EEEE4typeERSC_', symObjAddr: 0xCDF8, symBinAddr: 0x10003A628, symSize: 0x24 }
  - { offsetInCU: 0xD938, offset: 0x43995, size: 0x8, addend: 0x0, symName: '__ZNSt3__18__invokeB8ue170006IRZN8MQTTPlus6Broker6ListenEvE3$_1JPviEEEDTclclsr3stdE7declvalIT_EEspclsr3stdE7declvalIT0_EEEEOS6_DpOS7_', symObjAddr: 0xCED4, symBinAddr: 0x10003A704, symSize: 0x3C }
  - { offsetInCU: 0xD999, offset: 0x439F6, size: 0x8, addend: 0x0, symName: __ZNSt3__1eqB8ue170006ERKNS_19__hash_map_iteratorINS_15__hash_iteratorIPNS_11__hash_nodeINS_17__hash_value_typeIPv3RefIN8MQTTPlus6ClientEEEES4_EEEEEESF_, symObjAddr: 0xCFE4, symBinAddr: 0x10003A814, symSize: 0x30 }
  - { offsetInCU: 0xD9D6, offset: 0x43A33, size: 0x8, addend: 0x0, symName: __ZNSt3__1eqB8ue170006ERKNS_15__hash_iteratorIPNS_11__hash_nodeINS_17__hash_value_typeIPv3RefIN8MQTTPlus6ClientEEEES3_EEEESD_, symObjAddr: 0xD2D4, symBinAddr: 0x10003AB04, symSize: 0x30 }
  - { offsetInCU: 0xDAC4, offset: 0x43B21, size: 0x8, addend: 0x0, symName: '__ZNSt3__116forward_as_tupleB8ue170006IJZN8MQTTPlus6Broker6ListenEvE3$_2EEENS_5tupleIJDpOT_EEES7_', symObjAddr: 0xDD74, symBinAddr: 0x10003B5A4, symSize: 0x2C }
  - { offsetInCU: 0xDAFD, offset: 0x43B5A, size: 0x8, addend: 0x0, symName: '__ZNSt3__116forward_as_tupleB8ue170006IJNS_9allocatorIZN8MQTTPlus6Broker6ListenEvE3$_2EEEEENS_5tupleIJDpOT_EEES9_', symObjAddr: 0xDDA0, symBinAddr: 0x10003B5D0, symSize: 0x2C }
  - { offsetInCU: 0xDB60, offset: 0x43BBD, size: 0x8, addend: 0x0, symName: '__ZNSt3__13getB8ue170006ILm0EJOZN8MQTTPlus6Broker6ListenEvE3$_2EEERNS_13tuple_elementIXT_ENS_5tupleIJDpT0_EEEE4typeERS9_', symObjAddr: 0xE0B8, symBinAddr: 0x10003B8E8, symSize: 0x24 }
  - { offsetInCU: 0xDBA2, offset: 0x43BFF, size: 0x8, addend: 0x0, symName: '__ZNSt3__13getB8ue170006ILm0EJONS_9allocatorIZN8MQTTPlus6Broker6ListenEvE3$_2EEEEERNS_13tuple_elementIXT_ENS_5tupleIJDpT0_EEEE4typeERSB_', symObjAddr: 0xE0F4, symBinAddr: 0x10003B924, symSize: 0x24 }
  - { offsetInCU: 0xE0C9, offset: 0x44126, size: 0x8, addend: 0x0, symName: '__ZNSt3__116forward_as_tupleB8ue170006IJRKZN8MQTTPlus6Broker6ListenEvE3$_2EEENS_5tupleIJDpOT_EEES9_', symObjAddr: 0xE678, symBinAddr: 0x10003BEA8, symSize: 0x2C }
  - { offsetInCU: 0xE117, offset: 0x44174, size: 0x8, addend: 0x0, symName: '__ZNSt3__13getB8ue170006ILm0EJRKZN8MQTTPlus6Broker6ListenEvE3$_2EEERNS_13tuple_elementIXT_ENS_5tupleIJDpT0_EEEE4typeERSA_', symObjAddr: 0xE868, symBinAddr: 0x10003C098, symSize: 0x24 }
  - { offsetInCU: 0xE159, offset: 0x441B6, size: 0x8, addend: 0x0, symName: '__ZNSt3__116forward_as_tupleB8ue170006IJRKNS_9allocatorIZN8MQTTPlus6Broker6ListenEvE3$_2EEEEENS_5tupleIJDpOT_EEESB_', symObjAddr: 0xEBC4, symBinAddr: 0x10003C3F4, symSize: 0x2C }
  - { offsetInCU: 0xE1A7, offset: 0x44204, size: 0x8, addend: 0x0, symName: '__ZNSt3__13getB8ue170006ILm0EJRKNS_9allocatorIZN8MQTTPlus6Broker6ListenEvE3$_2EEEEERNS_13tuple_elementIXT_ENS_5tupleIJDpT0_EEEE4typeERSC_', symObjAddr: 0xEDA8, symBinAddr: 0x10003C5D8, symSize: 0x24 }
  - { offsetInCU: 0xE1E9, offset: 0x44246, size: 0x8, addend: 0x0, symName: '__ZNSt3__18__invokeB8ue170006IRZN8MQTTPlus6Broker6ListenEvE3$_2JPvPciEEEDTclclsr3stdE7declvalIT_EEspclsr3stdE7declvalIT0_EEEEOS7_DpOS8_', symObjAddr: 0xEE94, symBinAddr: 0x10003C6C4, symSize: 0x48 }
  - { offsetInCU: 0xFA14, offset: 0x45A71, size: 0x8, addend: 0x0, symName: __ZN8MQTTPlus6Broker6ListenEv, symObjAddr: 0x2BC, symBinAddr: 0x10002EEF8, symSize: 0x15C }
  - { offsetInCU: 0xFD22, offset: 0x45D7F, size: 0x8, addend: 0x0, symName: '__ZZN8MQTTPlus6Broker6ListenEvENK3$_0clEPv', symObjAddr: 0x4E20, symBinAddr: 0x10003340C, symSize: 0x170 }
  - { offsetInCU: 0x1245D, offset: 0x484BA, size: 0x8, addend: 0x0, symName: __ZN8MQTTPlus6BrokerC2ERKNS_20BrokerCreateSettingsE, symObjAddr: 0x0, symBinAddr: 0x10002EC3C, symSize: 0x108 }
  - { offsetInCU: 0x12498, offset: 0x484F5, size: 0x8, addend: 0x0, symName: __ZN8MQTTPlus9WebSocketC1Ev, symObjAddr: 0x108, symBinAddr: 0x10002ED44, symSize: 0x2C }
  - { offsetInCU: 0x124C2, offset: 0x4851F, size: 0x8, addend: 0x0, symName: __ZNSt3__113unordered_mapIPv3RefIN8MQTTPlus6ClientEENS_4hashIS1_EENS_8equal_toIS1_EENS_9allocatorINS_4pairIKS1_S5_EEEEEC1B8ue170006Ev, symObjAddr: 0x134, symBinAddr: 0x10002ED70, symSize: 0x2C }
  - { offsetInCU: 0x124EC, offset: 0x48549, size: 0x8, addend: 0x0, symName: __ZNSt3__18functionIFv3RefIN8MQTTPlus6ClientEEEEC1B8ue170006Ev, symObjAddr: 0x160, symBinAddr: 0x10002ED9C, symSize: 0x2C }
  - { offsetInCU: 0x12522, offset: 0x4857F, size: 0x8, addend: 0x0, symName: __ZN8MQTTPlus9WebSocketaSEOS0_, symObjAddr: 0x18C, symBinAddr: 0x10002EDC8, symSize: 0x78 }
  - { offsetInCU: 0x12553, offset: 0x485B0, size: 0x8, addend: 0x0, symName: __ZN8MQTTPlus9WebSocketD1Ev, symObjAddr: 0x204, symBinAddr: 0x10002EE40, symSize: 0x2C }
  - { offsetInCU: 0x1257F, offset: 0x485DC, size: 0x8, addend: 0x0, symName: __ZNSt3__18functionIFv3RefIN8MQTTPlus6ClientEEEED1Ev, symObjAddr: 0x230, symBinAddr: 0x10002EE6C, symSize: 0x2C }
  - { offsetInCU: 0x125AB, offset: 0x48608, size: 0x8, addend: 0x0, symName: __ZNSt3__113unordered_mapIPv3RefIN8MQTTPlus6ClientEENS_4hashIS1_EENS_8equal_toIS1_EENS_9allocatorINS_4pairIKS1_S5_EEEEED1B8ue170006Ev, symObjAddr: 0x25C, symBinAddr: 0x10002EE98, symSize: 0x2C }
  - { offsetInCU: 0x125D5, offset: 0x48632, size: 0x8, addend: 0x0, symName: __ZN8MQTTPlus6BrokerC1ERKNS_20BrokerCreateSettingsE, symObjAddr: 0x288, symBinAddr: 0x10002EEC4, symSize: 0x34 }
  - { offsetInCU: 0x1260F, offset: 0x4866C, size: 0x8, addend: 0x0, symName: __ZN8MQTTPlus9WebSocket20SetOnSocketConnectedEONSt3__18functionIFvPvEEE, symObjAddr: 0x418, symBinAddr: 0x10002F054, symSize: 0x30 }
  - { offsetInCU: 0x12643, offset: 0x486A0, size: 0x8, addend: 0x0, symName: '__ZNSt3__18functionIFvPvEEC1IZN8MQTTPlus6Broker6ListenEvE3$_0vEET_', symObjAddr: 0x448, symBinAddr: 0x10002F084, symSize: 0x34 }
  - { offsetInCU: 0x12688, offset: 0x486E5, size: 0x8, addend: 0x0, symName: __ZNSt3__18functionIFvPvEED1Ev, symObjAddr: 0x47C, symBinAddr: 0x10002F0B8, symSize: 0x2C }
  - { offsetInCU: 0x126B4, offset: 0x48711, size: 0x8, addend: 0x0, symName: __ZN8MQTTPlus9WebSocket23SetOnSocketDisconnectedEONSt3__18functionIFvPviEEE, symObjAddr: 0x4A8, symBinAddr: 0x10002F0E4, symSize: 0x30 }
  - { offsetInCU: 0x126E8, offset: 0x48745, size: 0x8, addend: 0x0, symName: '__ZNSt3__18functionIFvPviEEC1IZN8MQTTPlus6Broker6ListenEvE3$_1vEET_', symObjAddr: 0x4D8, symBinAddr: 0x10002F114, symSize: 0x34 }
  - { offsetInCU: 0x1272D, offset: 0x4878A, size: 0x8, addend: 0x0, symName: __ZNSt3__18functionIFvPviEED1Ev, symObjAddr: 0x50C, symBinAddr: 0x10002F148, symSize: 0x2C }
  - { offsetInCU: 0x12759, offset: 0x487B6, size: 0x8, addend: 0x0, symName: __ZN8MQTTPlus9WebSocket23SetOnSocketDataReceivedEONSt3__18functionIFvPvPciEEE, symObjAddr: 0x538, symBinAddr: 0x10002F174, symSize: 0x30 }
  - { offsetInCU: 0x1278D, offset: 0x487EA, size: 0x8, addend: 0x0, symName: '__ZNSt3__18functionIFvPvPciEEC1IZN8MQTTPlus6Broker6ListenEvE3$_2vEET_', symObjAddr: 0x568, symBinAddr: 0x10002F1A4, symSize: 0x34 }
  - { offsetInCU: 0x127D2, offset: 0x4882F, size: 0x8, addend: 0x0, symName: __ZNSt3__18functionIFvPvPciEED1Ev, symObjAddr: 0x59C, symBinAddr: 0x10002F1D8, symSize: 0x2C }
  - { offsetInCU: 0x127FE, offset: 0x4885B, size: 0x8, addend: 0x0, symName: __ZN8MQTTPlus6Broker21OnMQTTClientConnectedE3RefINS_6ClientEERKN4MQTT14AuthenticationE, symObjAddr: 0x5C8, symBinAddr: 0x10002F204, symSize: 0xD4 }
  - { offsetInCU: 0x12843, offset: 0x488A0, size: 0x8, addend: 0x0, symName: __ZN3RefIN8MQTTPlus6ClientEEptEv, symObjAddr: 0x69C, symBinAddr: 0x10002F2D8, symSize: 0x18 }
  - { offsetInCU: 0x12875, offset: 0x488D2, size: 0x8, addend: 0x0, symName: __ZN4MQTT14AuthenticationaSERKS0_, symObjAddr: 0x6B4, symBinAddr: 0x10002F2F0, symSize: 0x84 }
  - { offsetInCU: 0x128A6, offset: 0x48903, size: 0x8, addend: 0x0, symName: __ZNKSt3__18functionIFv3RefIN8MQTTPlus6ClientEEEEclES4_, symObjAddr: 0x738, symBinAddr: 0x10002F374, symSize: 0x2C }
  - { offsetInCU: 0x128DE, offset: 0x4893B, size: 0x8, addend: 0x0, symName: __ZN3RefIN8MQTTPlus6ClientEEC1ERKS2_, symObjAddr: 0x764, symBinAddr: 0x10002F3A0, symSize: 0x34 }
  - { offsetInCU: 0x12916, offset: 0x48973, size: 0x8, addend: 0x0, symName: __ZN8MQTTPlus6Broker21OnMQTTPublishReceivedE3RefINS_6ClientEES1_IN4MQTT14PublishMessageEE, symObjAddr: 0x7C4, symBinAddr: 0x10002F3D4, symSize: 0x9C }
  - { offsetInCU: 0x1295C, offset: 0x489B9, size: 0x8, addend: 0x0, symName: __ZN3RefIN4MQTT14PublishMessageEEptEv, symObjAddr: 0x8AC, symBinAddr: 0x10002F470, symSize: 0x18 }
  - { offsetInCU: 0x12982, offset: 0x489DF, size: 0x8, addend: 0x0, symName: __ZN8MQTTPlus9WebSocketC2Ev, symObjAddr: 0x948, symBinAddr: 0x10002F488, symSize: 0x5C }
  - { offsetInCU: 0x129AC, offset: 0x48A09, size: 0x8, addend: 0x0, symName: __ZNSt3__18functionIFvPvEEC1B8ue170006Ev, symObjAddr: 0x9A4, symBinAddr: 0x10002F4E4, symSize: 0x2C }
  - { offsetInCU: 0x129D6, offset: 0x48A33, size: 0x8, addend: 0x0, symName: __ZNSt3__18functionIFvPviEEC1B8ue170006Ev, symObjAddr: 0x9D0, symBinAddr: 0x10002F510, symSize: 0x2C }
  - { offsetInCU: 0x12A00, offset: 0x48A5D, size: 0x8, addend: 0x0, symName: __ZNSt3__18functionIFvPvPciEEC1B8ue170006Ev, symObjAddr: 0x9FC, symBinAddr: 0x10002F53C, symSize: 0x2C }
  - { offsetInCU: 0x12A2A, offset: 0x48A87, size: 0x8, addend: 0x0, symName: __ZNSt3__18functionIFvPvEEC2B8ue170006Ev, symObjAddr: 0xA28, symBinAddr: 0x10002F568, symSize: 0x2C }
  - { offsetInCU: 0x12A54, offset: 0x48AB1, size: 0x8, addend: 0x0, symName: __ZNSt3__110__function12__value_funcIFvPvEEC1B8ue170006Ev, symObjAddr: 0xA54, symBinAddr: 0x10002F594, symSize: 0x2C }
  - { offsetInCU: 0x12A7E, offset: 0x48ADB, size: 0x8, addend: 0x0, symName: __ZNSt3__110__function12__value_funcIFvPvEEC2B8ue170006Ev, symObjAddr: 0xA80, symBinAddr: 0x10002F5C0, symSize: 0x18 }
  - { offsetInCU: 0x12AA8, offset: 0x48B05, size: 0x8, addend: 0x0, symName: __ZNSt3__18functionIFvPviEEC2B8ue170006Ev, symObjAddr: 0xA98, symBinAddr: 0x10002F5D8, symSize: 0x2C }
  - { offsetInCU: 0x12AD2, offset: 0x48B2F, size: 0x8, addend: 0x0, symName: __ZNSt3__110__function12__value_funcIFvPviEEC1B8ue170006Ev, symObjAddr: 0xAC4, symBinAddr: 0x10002F604, symSize: 0x2C }
  - { offsetInCU: 0x12AFC, offset: 0x48B59, size: 0x8, addend: 0x0, symName: __ZNSt3__110__function12__value_funcIFvPviEEC2B8ue170006Ev, symObjAddr: 0xAF0, symBinAddr: 0x10002F630, symSize: 0x18 }
  - { offsetInCU: 0x12B26, offset: 0x48B83, size: 0x8, addend: 0x0, symName: __ZNSt3__18functionIFvPvPciEEC2B8ue170006Ev, symObjAddr: 0xB08, symBinAddr: 0x10002F648, symSize: 0x2C }
  - { offsetInCU: 0x12B50, offset: 0x48BAD, size: 0x8, addend: 0x0, symName: __ZNSt3__110__function12__value_funcIFvPvPciEEC1B8ue170006Ev, symObjAddr: 0xB34, symBinAddr: 0x10002F674, symSize: 0x2C }
  - { offsetInCU: 0x12B7A, offset: 0x48BD7, size: 0x8, addend: 0x0, symName: __ZNSt3__110__function12__value_funcIFvPvPciEEC2B8ue170006Ev, symObjAddr: 0xB60, symBinAddr: 0x10002F6A0, symSize: 0x18 }
  - { offsetInCU: 0x12BA4, offset: 0x48C01, size: 0x8, addend: 0x0, symName: __ZNSt3__18functionIFvPvEEaSEOS3_, symObjAddr: 0xB78, symBinAddr: 0x10002F6B8, symSize: 0x3C }
  - { offsetInCU: 0x12BDB, offset: 0x48C38, size: 0x8, addend: 0x0, symName: __ZNSt3__18functionIFvPviEEaSEOS3_, symObjAddr: 0xBB4, symBinAddr: 0x10002F6F4, symSize: 0x3C }
  - { offsetInCU: 0x12C12, offset: 0x48C6F, size: 0x8, addend: 0x0, symName: __ZNSt3__18functionIFvPvPciEEaSEOS4_, symObjAddr: 0xBF0, symBinAddr: 0x10002F730, symSize: 0x3C }
  - { offsetInCU: 0x12C49, offset: 0x48CA6, size: 0x8, addend: 0x0, symName: __ZNSt3__110__function12__value_funcIFvPvEEaSB8ue170006EOS4_, symObjAddr: 0xC2C, symBinAddr: 0x10002F76C, symSize: 0xC0 }
  - { offsetInCU: 0x12C7E, offset: 0x48CDB, size: 0x8, addend: 0x0, symName: __ZNSt3__110__function12__value_funcIFvPvEEaSB8ue170006EDn, symObjAddr: 0xCF8, symBinAddr: 0x10002F82C, symSize: 0x8C }
  - { offsetInCU: 0x12CBF, offset: 0x48D1C, size: 0x8, addend: 0x0, symName: __ZNSt3__110__function12__value_funcIFvPvEE9__as_baseB8ue170006ES2_, symObjAddr: 0xD84, symBinAddr: 0x10002F8B8, symSize: 0x14 }
  - { offsetInCU: 0x12CE3, offset: 0x48D40, size: 0x8, addend: 0x0, symName: __ZNSt3__110__function12__value_funcIFvPviEEaSB8ue170006EOS4_, symObjAddr: 0xD98, symBinAddr: 0x10002F8CC, symSize: 0xC0 }
  - { offsetInCU: 0x12D18, offset: 0x48D75, size: 0x8, addend: 0x0, symName: __ZNSt3__110__function12__value_funcIFvPviEEaSB8ue170006EDn, symObjAddr: 0xE58, symBinAddr: 0x10002F98C, symSize: 0x8C }
  - { offsetInCU: 0x12D59, offset: 0x48DB6, size: 0x8, addend: 0x0, symName: __ZNSt3__110__function12__value_funcIFvPviEE9__as_baseB8ue170006ES2_, symObjAddr: 0xEE4, symBinAddr: 0x10002FA18, symSize: 0x14 }
  - { offsetInCU: 0x12D7D, offset: 0x48DDA, size: 0x8, addend: 0x0, symName: __ZNSt3__110__function12__value_funcIFvPvPciEEaSB8ue170006EOS5_, symObjAddr: 0xEF8, symBinAddr: 0x10002FA2C, symSize: 0xC0 }
  - { offsetInCU: 0x12DB2, offset: 0x48E0F, size: 0x8, addend: 0x0, symName: __ZNSt3__110__function12__value_funcIFvPvPciEEaSB8ue170006EDn, symObjAddr: 0xFB8, symBinAddr: 0x10002FAEC, symSize: 0x8C }
  - { offsetInCU: 0x12DF3, offset: 0x48E50, size: 0x8, addend: 0x0, symName: __ZNSt3__110__function12__value_funcIFvPvPciEE9__as_baseB8ue170006ES2_, symObjAddr: 0x1044, symBinAddr: 0x10002FB78, symSize: 0x14 }
  - { offsetInCU: 0x12E17, offset: 0x48E74, size: 0x8, addend: 0x0, symName: __ZN8MQTTPlus9WebSocketD2Ev, symObjAddr: 0x1058, symBinAddr: 0x10002FB8C, symSize: 0x48 }
  - { offsetInCU: 0x12E43, offset: 0x48EA0, size: 0x8, addend: 0x0, symName: __ZNSt3__18functionIFvPvEEaSERKS3_, symObjAddr: 0x10A0, symBinAddr: 0x10002FBD4, symSize: 0x84 }
  - { offsetInCU: 0x12E7A, offset: 0x48ED7, size: 0x8, addend: 0x0, symName: __ZNSt3__18functionIFvPvEEC1ERKS3_, symObjAddr: 0x1124, symBinAddr: 0x10002FC58, symSize: 0x34 }
  - { offsetInCU: 0x12EB5, offset: 0x48F12, size: 0x8, addend: 0x0, symName: __ZNSt3__18functionIFvPvEE4swapERS3_, symObjAddr: 0x1158, symBinAddr: 0x10002FC8C, symSize: 0x2C }
  - { offsetInCU: 0x12EEC, offset: 0x48F49, size: 0x8, addend: 0x0, symName: __ZNSt3__18functionIFvPvEEC2ERKS3_, symObjAddr: 0x1184, symBinAddr: 0x10002FCB8, symSize: 0x34 }
  - { offsetInCU: 0x12F27, offset: 0x48F84, size: 0x8, addend: 0x0, symName: __ZNSt3__110__function12__value_funcIFvPvEEC1B8ue170006ERKS4_, symObjAddr: 0x11B8, symBinAddr: 0x10002FCEC, symSize: 0x34 }
  - { offsetInCU: 0x12F60, offset: 0x48FBD, size: 0x8, addend: 0x0, symName: __ZNSt3__110__function12__value_funcIFvPvEEC2B8ue170006ERKS4_, symObjAddr: 0x11EC, symBinAddr: 0x10002FD20, symSize: 0xC0 }
  - { offsetInCU: 0x12F99, offset: 0x48FF6, size: 0x8, addend: 0x0, symName: __ZNSt3__110__function12__value_funcIFvPvEE4swapB8ue170006ERS4_, symObjAddr: 0x12AC, symBinAddr: 0x10002FDE0, symSize: 0x2A8 }
  - { offsetInCU: 0x12FF2, offset: 0x4904F, size: 0x8, addend: 0x0, symName: __ZNSt3__18functionIFvPviEEaSERKS3_, symObjAddr: 0x1590, symBinAddr: 0x1000300C4, symSize: 0x84 }
  - { offsetInCU: 0x13029, offset: 0x49086, size: 0x8, addend: 0x0, symName: __ZNSt3__18functionIFvPviEEC1ERKS3_, symObjAddr: 0x1614, symBinAddr: 0x100030148, symSize: 0x34 }
  - { offsetInCU: 0x13064, offset: 0x490C1, size: 0x8, addend: 0x0, symName: __ZNSt3__18functionIFvPviEE4swapERS3_, symObjAddr: 0x1648, symBinAddr: 0x10003017C, symSize: 0x2C }
  - { offsetInCU: 0x1309B, offset: 0x490F8, size: 0x8, addend: 0x0, symName: __ZNSt3__18functionIFvPviEEC2ERKS3_, symObjAddr: 0x1674, symBinAddr: 0x1000301A8, symSize: 0x34 }
  - { offsetInCU: 0x130D6, offset: 0x49133, size: 0x8, addend: 0x0, symName: __ZNSt3__110__function12__value_funcIFvPviEEC1B8ue170006ERKS4_, symObjAddr: 0x16A8, symBinAddr: 0x1000301DC, symSize: 0x34 }
  - { offsetInCU: 0x1310F, offset: 0x4916C, size: 0x8, addend: 0x0, symName: __ZNSt3__110__function12__value_funcIFvPviEEC2B8ue170006ERKS4_, symObjAddr: 0x16DC, symBinAddr: 0x100030210, symSize: 0xC0 }
  - { offsetInCU: 0x13148, offset: 0x491A5, size: 0x8, addend: 0x0, symName: __ZNSt3__110__function12__value_funcIFvPviEE4swapB8ue170006ERS4_, symObjAddr: 0x179C, symBinAddr: 0x1000302D0, symSize: 0x2A8 }
  - { offsetInCU: 0x131A1, offset: 0x491FE, size: 0x8, addend: 0x0, symName: __ZNSt3__18functionIFvPvPciEEaSERKS4_, symObjAddr: 0x1A80, symBinAddr: 0x1000305B4, symSize: 0x84 }
  - { offsetInCU: 0x131D8, offset: 0x49235, size: 0x8, addend: 0x0, symName: __ZNSt3__18functionIFvPvPciEEC1ERKS4_, symObjAddr: 0x1B04, symBinAddr: 0x100030638, symSize: 0x34 }
  - { offsetInCU: 0x13213, offset: 0x49270, size: 0x8, addend: 0x0, symName: __ZNSt3__18functionIFvPvPciEE4swapERS4_, symObjAddr: 0x1B38, symBinAddr: 0x10003066C, symSize: 0x2C }
  - { offsetInCU: 0x1324A, offset: 0x492A7, size: 0x8, addend: 0x0, symName: __ZNSt3__18functionIFvPvPciEEC2ERKS4_, symObjAddr: 0x1B64, symBinAddr: 0x100030698, symSize: 0x34 }
  - { offsetInCU: 0x13285, offset: 0x492E2, size: 0x8, addend: 0x0, symName: __ZNSt3__110__function12__value_funcIFvPvPciEEC1B8ue170006ERKS5_, symObjAddr: 0x1B98, symBinAddr: 0x1000306CC, symSize: 0x34 }
  - { offsetInCU: 0x132BE, offset: 0x4931B, size: 0x8, addend: 0x0, symName: __ZNSt3__110__function12__value_funcIFvPvPciEEC2B8ue170006ERKS5_, symObjAddr: 0x1BCC, symBinAddr: 0x100030700, symSize: 0xC0 }
  - { offsetInCU: 0x132F7, offset: 0x49354, size: 0x8, addend: 0x0, symName: __ZNSt3__110__function12__value_funcIFvPvPciEE4swapB8ue170006ERS5_, symObjAddr: 0x1C8C, symBinAddr: 0x1000307C0, symSize: 0x2A8 }
  - { offsetInCU: 0x13350, offset: 0x493AD, size: 0x8, addend: 0x0, symName: __ZNSt3__18functionIFvPvEED2Ev, symObjAddr: 0x1F70, symBinAddr: 0x100030AA4, symSize: 0x2C }
  - { offsetInCU: 0x1337C, offset: 0x493D9, size: 0x8, addend: 0x0, symName: __ZNSt3__110__function12__value_funcIFvPvEED1B8ue170006Ev, symObjAddr: 0x1F9C, symBinAddr: 0x100030AD0, symSize: 0x2C }
  - { offsetInCU: 0x133A6, offset: 0x49403, size: 0x8, addend: 0x0, symName: __ZNSt3__110__function12__value_funcIFvPvEED2B8ue170006Ev, symObjAddr: 0x1FC8, symBinAddr: 0x100030AFC, symSize: 0x90 }
  - { offsetInCU: 0x133D0, offset: 0x4942D, size: 0x8, addend: 0x0, symName: __ZNSt3__18functionIFvPviEED2Ev, symObjAddr: 0x2058, symBinAddr: 0x100030B8C, symSize: 0x2C }
  - { offsetInCU: 0x133FC, offset: 0x49459, size: 0x8, addend: 0x0, symName: __ZNSt3__110__function12__value_funcIFvPviEED1B8ue170006Ev, symObjAddr: 0x2084, symBinAddr: 0x100030BB8, symSize: 0x2C }
  - { offsetInCU: 0x13426, offset: 0x49483, size: 0x8, addend: 0x0, symName: __ZNSt3__110__function12__value_funcIFvPviEED2B8ue170006Ev, symObjAddr: 0x20B0, symBinAddr: 0x100030BE4, symSize: 0x90 }
  - { offsetInCU: 0x13450, offset: 0x494AD, size: 0x8, addend: 0x0, symName: __ZNSt3__18functionIFvPvPciEED2Ev, symObjAddr: 0x2140, symBinAddr: 0x100030C74, symSize: 0x2C }
  - { offsetInCU: 0x1347C, offset: 0x494D9, size: 0x8, addend: 0x0, symName: __ZNSt3__110__function12__value_funcIFvPvPciEED1B8ue170006Ev, symObjAddr: 0x216C, symBinAddr: 0x100030CA0, symSize: 0x2C }
  - { offsetInCU: 0x134A6, offset: 0x49503, size: 0x8, addend: 0x0, symName: __ZNSt3__110__function12__value_funcIFvPvPciEED2B8ue170006Ev, symObjAddr: 0x2198, symBinAddr: 0x100030CCC, symSize: 0x90 }
  - { offsetInCU: 0x134D0, offset: 0x4952D, size: 0x8, addend: 0x0, symName: __ZNSt3__113unordered_mapIPv3RefIN8MQTTPlus6ClientEENS_4hashIS1_EENS_8equal_toIS1_EENS_9allocatorINS_4pairIKS1_S5_EEEEEC2B8ue170006Ev, symObjAddr: 0x2228, symBinAddr: 0x100030D5C, symSize: 0x2C }
  - { offsetInCU: 0x134FA, offset: 0x49557, size: 0x8, addend: 0x0, symName: __ZNSt3__112__hash_tableINS_17__hash_value_typeIPv3RefIN8MQTTPlus6ClientEEEENS_22__unordered_map_hasherIS2_S7_NS_4hashIS2_EENS_8equal_toIS2_EELb1EEENS_21__unordered_map_equalIS2_S7_SC_SA_Lb1EEENS_9allocatorIS7_EEEC1Ev, symObjAddr: 0x2254, symBinAddr: 0x100030D88, symSize: 0x2C }
  - { offsetInCU: 0x13526, offset: 0x49583, size: 0x8, addend: 0x0, symName: __ZNSt3__112__hash_tableINS_17__hash_value_typeIPv3RefIN8MQTTPlus6ClientEEEENS_22__unordered_map_hasherIS2_S7_NS_4hashIS2_EENS_8equal_toIS2_EELb1EEENS_21__unordered_map_equalIS2_S7_SC_SA_Lb1EEENS_9allocatorIS7_EEEC2Ev, symObjAddr: 0x2280, symBinAddr: 0x100030DB4, symSize: 0x7C }
  - { offsetInCU: 0x13552, offset: 0x495AF, size: 0x8, addend: 0x0, symName: __ZNSt3__110unique_ptrIA_PNS_16__hash_node_baseIPNS_11__hash_nodeINS_17__hash_value_typeIPv3RefIN8MQTTPlus6ClientEEEES4_EEEENS_25__bucket_list_deallocatorINS_9allocatorISD_EEEEEC1B8ue170006ILb1EvEEv, symObjAddr: 0x22FC, symBinAddr: 0x100030E30, symSize: 0x2C }
  - { offsetInCU: 0x13587, offset: 0x495E4, size: 0x8, addend: 0x0, symName: __ZNSt3__117__compressed_pairINS_16__hash_node_baseIPNS_11__hash_nodeINS_17__hash_value_typeIPv3RefIN8MQTTPlus6ClientEEEES4_EEEENS_9allocatorISA_EEEC1B8ue170006ILb1EvEEv, symObjAddr: 0x2328, symBinAddr: 0x100030E5C, symSize: 0x2C }
  - { offsetInCU: 0x135C2, offset: 0x4961F, size: 0x8, addend: 0x0, symName: __ZNSt3__117__compressed_pairImNS_22__unordered_map_hasherIPvNS_17__hash_value_typeIS2_3RefIN8MQTTPlus6ClientEEEENS_4hashIS2_EENS_8equal_toIS2_EELb1EEEEC1B8ue170006IiNS_18__default_init_tagEEEOT_OT0_, symObjAddr: 0x2354, symBinAddr: 0x100030E88, symSize: 0x3C }
  - { offsetInCU: 0x13620, offset: 0x4967D, size: 0x8, addend: 0x0, symName: __ZNSt3__117__compressed_pairIfNS_21__unordered_map_equalIPvNS_17__hash_value_typeIS2_3RefIN8MQTTPlus6ClientEEEENS_8equal_toIS2_EENS_4hashIS2_EELb1EEEEC1B8ue170006IfNS_18__default_init_tagEEEOT_OT0_, symObjAddr: 0x2390, symBinAddr: 0x100030EC4, symSize: 0x3C }
  - { offsetInCU: 0x13678, offset: 0x496D5, size: 0x8, addend: 0x0, symName: __ZNSt3__110unique_ptrIA_PNS_16__hash_node_baseIPNS_11__hash_nodeINS_17__hash_value_typeIPv3RefIN8MQTTPlus6ClientEEEES4_EEEENS_25__bucket_list_deallocatorINS_9allocatorISD_EEEEEC2B8ue170006ILb1EvEEv, symObjAddr: 0x23CC, symBinAddr: 0x100030F00, symSize: 0x3C }
  - { offsetInCU: 0x136B3, offset: 0x49710, size: 0x8, addend: 0x0, symName: __ZNSt3__117__compressed_pairIPPNS_16__hash_node_baseIPNS_11__hash_nodeINS_17__hash_value_typeIPv3RefIN8MQTTPlus6ClientEEEES4_EEEENS_25__bucket_list_deallocatorINS_9allocatorISD_EEEEEC1B8ue170006INS_16__value_init_tagESL_EEOT_OT0_, symObjAddr: 0x2408, symBinAddr: 0x100030F3C, symSize: 0x3C }
  - { offsetInCU: 0x1370B, offset: 0x49768, size: 0x8, addend: 0x0, symName: __ZNSt3__117__compressed_pairIPPNS_16__hash_node_baseIPNS_11__hash_nodeINS_17__hash_value_typeIPv3RefIN8MQTTPlus6ClientEEEES4_EEEENS_25__bucket_list_deallocatorINS_9allocatorISD_EEEEEC2B8ue170006INS_16__value_init_tagESL_EEOT_OT0_, symObjAddr: 0x2444, symBinAddr: 0x100030F78, symSize: 0x40 }
  - { offsetInCU: 0x13763, offset: 0x497C0, size: 0x8, addend: 0x0, symName: __ZNSt3__122__compressed_pair_elemIPPNS_16__hash_node_baseIPNS_11__hash_nodeINS_17__hash_value_typeIPv3RefIN8MQTTPlus6ClientEEEES4_EEEELi0ELb0EEC2B8ue170006ENS_16__value_init_tagE, symObjAddr: 0x2484, symBinAddr: 0x100030FB8, symSize: 0x18 }
  - { offsetInCU: 0x13797, offset: 0x497F4, size: 0x8, addend: 0x0, symName: __ZNSt3__122__compressed_pair_elemINS_25__bucket_list_deallocatorINS_9allocatorIPNS_16__hash_node_baseIPNS_11__hash_nodeINS_17__hash_value_typeIPv3RefIN8MQTTPlus6ClientEEEES6_EEEEEEEELi1ELb0EEC2B8ue170006ENS_16__value_init_tagE, symObjAddr: 0x249C, symBinAddr: 0x100030FD0, symSize: 0x2C }
  - { offsetInCU: 0x137CB, offset: 0x49828, size: 0x8, addend: 0x0, symName: __ZNSt3__125__bucket_list_deallocatorINS_9allocatorIPNS_16__hash_node_baseIPNS_11__hash_nodeINS_17__hash_value_typeIPv3RefIN8MQTTPlus6ClientEEEES5_EEEEEEEC1B8ue170006Ev, symObjAddr: 0x24C8, symBinAddr: 0x100030FFC, symSize: 0x2C }
  - { offsetInCU: 0x137F5, offset: 0x49852, size: 0x8, addend: 0x0, symName: __ZNSt3__125__bucket_list_deallocatorINS_9allocatorIPNS_16__hash_node_baseIPNS_11__hash_nodeINS_17__hash_value_typeIPv3RefIN8MQTTPlus6ClientEEEES5_EEEEEEEC2B8ue170006Ev, symObjAddr: 0x24F4, symBinAddr: 0x100031028, symSize: 0x40 }
  - { offsetInCU: 0x1381F, offset: 0x4987C, size: 0x8, addend: 0x0, symName: __ZNSt3__117__compressed_pairImNS_9allocatorIPNS_16__hash_node_baseIPNS_11__hash_nodeINS_17__hash_value_typeIPv3RefIN8MQTTPlus6ClientEEEES5_EEEEEEEC1B8ue170006IiNS_18__default_init_tagEEEOT_OT0_, symObjAddr: 0x2534, symBinAddr: 0x100031068, symSize: 0x3C }
  - { offsetInCU: 0x13877, offset: 0x498D4, size: 0x8, addend: 0x0, symName: __ZNSt3__117__compressed_pairImNS_9allocatorIPNS_16__hash_node_baseIPNS_11__hash_nodeINS_17__hash_value_typeIPv3RefIN8MQTTPlus6ClientEEEES5_EEEEEEEC2B8ue170006IiNS_18__default_init_tagEEEOT_OT0_, symObjAddr: 0x2570, symBinAddr: 0x1000310A4, symSize: 0x40 }
  - { offsetInCU: 0x138CF, offset: 0x4992C, size: 0x8, addend: 0x0, symName: __ZNSt3__122__compressed_pair_elemImLi0ELb0EEC2B8ue170006IivEEOT_, symObjAddr: 0x25B0, symBinAddr: 0x1000310E4, symSize: 0x24 }
  - { offsetInCU: 0x13911, offset: 0x4996E, size: 0x8, addend: 0x0, symName: __ZNSt3__122__compressed_pair_elemINS_9allocatorIPNS_16__hash_node_baseIPNS_11__hash_nodeINS_17__hash_value_typeIPv3RefIN8MQTTPlus6ClientEEEES5_EEEEEELi1ELb1EEC2B8ue170006ENS_18__default_init_tagE, symObjAddr: 0x25D4, symBinAddr: 0x100031108, symSize: 0x2C }
  - { offsetInCU: 0x13945, offset: 0x499A2, size: 0x8, addend: 0x0, symName: __ZNSt3__19allocatorIPNS_16__hash_node_baseIPNS_11__hash_nodeINS_17__hash_value_typeIPv3RefIN8MQTTPlus6ClientEEEES4_EEEEEC2B8ue170006Ev, symObjAddr: 0x2600, symBinAddr: 0x100031134, symSize: 0x2C }
  - { offsetInCU: 0x1396F, offset: 0x499CC, size: 0x8, addend: 0x0, symName: __ZNSt3__116__non_trivial_ifILb1ENS_9allocatorIPNS_16__hash_node_baseIPNS_11__hash_nodeINS_17__hash_value_typeIPv3RefIN8MQTTPlus6ClientEEEES5_EEEEEEEC2B8ue170006Ev, symObjAddr: 0x262C, symBinAddr: 0x100031160, symSize: 0x14 }
  - { offsetInCU: 0x13999, offset: 0x499F6, size: 0x8, addend: 0x0, symName: __ZNSt3__117__compressed_pairINS_16__hash_node_baseIPNS_11__hash_nodeINS_17__hash_value_typeIPv3RefIN8MQTTPlus6ClientEEEES4_EEEENS_9allocatorISA_EEEC2B8ue170006ILb1EvEEv, symObjAddr: 0x2640, symBinAddr: 0x100031174, symSize: 0x34 }
  - { offsetInCU: 0x139CE, offset: 0x49A2B, size: 0x8, addend: 0x0, symName: __ZNSt3__122__compressed_pair_elemINS_16__hash_node_baseIPNS_11__hash_nodeINS_17__hash_value_typeIPv3RefIN8MQTTPlus6ClientEEEES4_EEEELi0ELb0EEC2B8ue170006ENS_16__value_init_tagE, symObjAddr: 0x2674, symBinAddr: 0x1000311A8, symSize: 0x2C }
  - { offsetInCU: 0x13A02, offset: 0x49A5F, size: 0x8, addend: 0x0, symName: __ZNSt3__122__compressed_pair_elemINS_9allocatorINS_11__hash_nodeINS_17__hash_value_typeIPv3RefIN8MQTTPlus6ClientEEEES4_EEEELi1ELb1EEC2B8ue170006ENS_16__value_init_tagE, symObjAddr: 0x26A0, symBinAddr: 0x1000311D4, symSize: 0x2C }
  - { offsetInCU: 0x13A36, offset: 0x49A93, size: 0x8, addend: 0x0, symName: __ZNSt3__116__hash_node_baseIPNS_11__hash_nodeINS_17__hash_value_typeIPv3RefIN8MQTTPlus6ClientEEEES3_EEEC1B8ue170006Ev, symObjAddr: 0x26CC, symBinAddr: 0x100031200, symSize: 0x2C }
  - { offsetInCU: 0x13A60, offset: 0x49ABD, size: 0x8, addend: 0x0, symName: __ZNSt3__116__hash_node_baseIPNS_11__hash_nodeINS_17__hash_value_typeIPv3RefIN8MQTTPlus6ClientEEEES3_EEEC2B8ue170006Ev, symObjAddr: 0x26F8, symBinAddr: 0x10003122C, symSize: 0x18 }
  - { offsetInCU: 0x13A8A, offset: 0x49AE7, size: 0x8, addend: 0x0, symName: __ZNSt3__19allocatorINS_11__hash_nodeINS_17__hash_value_typeIPv3RefIN8MQTTPlus6ClientEEEES3_EEEC2B8ue170006Ev, symObjAddr: 0x2710, symBinAddr: 0x100031244, symSize: 0x2C }
  - { offsetInCU: 0x13AB4, offset: 0x49B11, size: 0x8, addend: 0x0, symName: __ZNSt3__116__non_trivial_ifILb1ENS_9allocatorINS_11__hash_nodeINS_17__hash_value_typeIPv3RefIN8MQTTPlus6ClientEEEES4_EEEEEC2B8ue170006Ev, symObjAddr: 0x273C, symBinAddr: 0x100031270, symSize: 0x14 }
  - { offsetInCU: 0x13ADE, offset: 0x49B3B, size: 0x8, addend: 0x0, symName: __ZNSt3__117__compressed_pairImNS_22__unordered_map_hasherIPvNS_17__hash_value_typeIS2_3RefIN8MQTTPlus6ClientEEEENS_4hashIS2_EENS_8equal_toIS2_EELb1EEEEC2B8ue170006IiNS_18__default_init_tagEEEOT_OT0_, symObjAddr: 0x2750, symBinAddr: 0x100031284, symSize: 0x40 }
  - { offsetInCU: 0x13B36, offset: 0x49B93, size: 0x8, addend: 0x0, symName: __ZNSt3__122__compressed_pair_elemINS_22__unordered_map_hasherIPvNS_17__hash_value_typeIS2_3RefIN8MQTTPlus6ClientEEEENS_4hashIS2_EENS_8equal_toIS2_EELb1EEELi1ELb1EEC2B8ue170006ENS_18__default_init_tagE, symObjAddr: 0x2790, symBinAddr: 0x1000312C4, symSize: 0x2C }
  - { offsetInCU: 0x13B6A, offset: 0x49BC7, size: 0x8, addend: 0x0, symName: __ZNSt3__122__unordered_map_hasherIPvNS_17__hash_value_typeIS1_3RefIN8MQTTPlus6ClientEEEENS_4hashIS1_EENS_8equal_toIS1_EELb1EEC2B8ue170006Ev, symObjAddr: 0x27BC, symBinAddr: 0x1000312F0, symSize: 0x14 }
  - { offsetInCU: 0x13B94, offset: 0x49BF1, size: 0x8, addend: 0x0, symName: __ZNSt3__117__compressed_pairIfNS_21__unordered_map_equalIPvNS_17__hash_value_typeIS2_3RefIN8MQTTPlus6ClientEEEENS_8equal_toIS2_EENS_4hashIS2_EELb1EEEEC2B8ue170006IfNS_18__default_init_tagEEEOT_OT0_, symObjAddr: 0x27D0, symBinAddr: 0x100031304, symSize: 0x40 }
  - { offsetInCU: 0x13BEC, offset: 0x49C49, size: 0x8, addend: 0x0, symName: __ZNSt3__122__compressed_pair_elemIfLi0ELb0EEC2B8ue170006IfvEEOT_, symObjAddr: 0x2810, symBinAddr: 0x100031344, symSize: 0x24 }
  - { offsetInCU: 0x13C2E, offset: 0x49C8B, size: 0x8, addend: 0x0, symName: __ZNSt3__122__compressed_pair_elemINS_21__unordered_map_equalIPvNS_17__hash_value_typeIS2_3RefIN8MQTTPlus6ClientEEEENS_8equal_toIS2_EENS_4hashIS2_EELb1EEELi1ELb1EEC2B8ue170006ENS_18__default_init_tagE, symObjAddr: 0x2834, symBinAddr: 0x100031368, symSize: 0x2C }
  - { offsetInCU: 0x13C62, offset: 0x49CBF, size: 0x8, addend: 0x0, symName: __ZNSt3__121__unordered_map_equalIPvNS_17__hash_value_typeIS1_3RefIN8MQTTPlus6ClientEEEENS_8equal_toIS1_EENS_4hashIS1_EELb1EEC2B8ue170006Ev, symObjAddr: 0x2860, symBinAddr: 0x100031394, symSize: 0x14 }
  - { offsetInCU: 0x13C8C, offset: 0x49CE9, size: 0x8, addend: 0x0, symName: __ZNSt3__18functionIFv3RefIN8MQTTPlus6ClientEEEEC2B8ue170006Ev, symObjAddr: 0x2874, symBinAddr: 0x1000313A8, symSize: 0x2C }
  - { offsetInCU: 0x13CB6, offset: 0x49D13, size: 0x8, addend: 0x0, symName: __ZNSt3__110__function12__value_funcIFv3RefIN8MQTTPlus6ClientEEEEC1B8ue170006Ev, symObjAddr: 0x28A0, symBinAddr: 0x1000313D4, symSize: 0x2C }
  - { offsetInCU: 0x13CE0, offset: 0x49D3D, size: 0x8, addend: 0x0, symName: __ZNSt3__110__function12__value_funcIFv3RefIN8MQTTPlus6ClientEEEEC2B8ue170006Ev, symObjAddr: 0x28CC, symBinAddr: 0x100031400, symSize: 0x18 }
  - { offsetInCU: 0x13D0A, offset: 0x49D67, size: 0x8, addend: 0x0, symName: __ZNSt3__113unordered_mapIPv3RefIN8MQTTPlus6ClientEENS_4hashIS1_EENS_8equal_toIS1_EENS_9allocatorINS_4pairIKS1_S5_EEEEED2B8ue170006Ev, symObjAddr: 0x28E4, symBinAddr: 0x100031418, symSize: 0x2C }
  - { offsetInCU: 0x13D34, offset: 0x49D91, size: 0x8, addend: 0x0, symName: __ZNSt3__112__hash_tableINS_17__hash_value_typeIPv3RefIN8MQTTPlus6ClientEEEENS_22__unordered_map_hasherIS2_S7_NS_4hashIS2_EENS_8equal_toIS2_EELb1EEENS_21__unordered_map_equalIS2_S7_SC_SA_Lb1EEENS_9allocatorIS7_EEED1Ev, symObjAddr: 0x2910, symBinAddr: 0x100031444, symSize: 0x2C }
  - { offsetInCU: 0x13D60, offset: 0x49DBD, size: 0x8, addend: 0x0, symName: __ZNSt3__112__hash_tableINS_17__hash_value_typeIPv3RefIN8MQTTPlus6ClientEEEENS_22__unordered_map_hasherIS2_S7_NS_4hashIS2_EENS_8equal_toIS2_EELb1EEENS_21__unordered_map_equalIS2_S7_SC_SA_Lb1EEENS_9allocatorIS7_EEED2Ev, symObjAddr: 0x293C, symBinAddr: 0x100031470, symSize: 0x48 }
  - { offsetInCU: 0x13D8C, offset: 0x49DE9, size: 0x8, addend: 0x0, symName: __ZNSt3__112__hash_tableINS_17__hash_value_typeIPv3RefIN8MQTTPlus6ClientEEEENS_22__unordered_map_hasherIS2_S7_NS_4hashIS2_EENS_8equal_toIS2_EELb1EEENS_21__unordered_map_equalIS2_S7_SC_SA_Lb1EEENS_9allocatorIS7_EEE17__deallocate_nodeEPNS_16__hash_node_baseIPNS_11__hash_nodeIS7_S2_EEEE, symObjAddr: 0x2984, symBinAddr: 0x1000314B8, symSize: 0xA8 }
  - { offsetInCU: 0x13DF6, offset: 0x49E53, size: 0x8, addend: 0x0, symName: __ZNSt3__117__compressed_pairINS_16__hash_node_baseIPNS_11__hash_nodeINS_17__hash_value_typeIPv3RefIN8MQTTPlus6ClientEEEES4_EEEENS_9allocatorISA_EEE5firstB8ue170006Ev, symObjAddr: 0x2A2C, symBinAddr: 0x100031560, symSize: 0x24 }
  - { offsetInCU: 0x13E1C, offset: 0x49E79, size: 0x8, addend: 0x0, symName: __ZNSt3__110unique_ptrIA_PNS_16__hash_node_baseIPNS_11__hash_nodeINS_17__hash_value_typeIPv3RefIN8MQTTPlus6ClientEEEES4_EEEENS_25__bucket_list_deallocatorINS_9allocatorISD_EEEEED1B8ue170006Ev, symObjAddr: 0x2A50, symBinAddr: 0x100031584, symSize: 0x2C }
  - { offsetInCU: 0x13E46, offset: 0x49EA3, size: 0x8, addend: 0x0, symName: __ZNSt3__112__hash_tableINS_17__hash_value_typeIPv3RefIN8MQTTPlus6ClientEEEENS_22__unordered_map_hasherIS2_S7_NS_4hashIS2_EENS_8equal_toIS2_EELb1EEENS_21__unordered_map_equalIS2_S7_SC_SA_Lb1EEENS_9allocatorIS7_EEE12__node_allocB8ue170006Ev, symObjAddr: 0x2A7C, symBinAddr: 0x1000315B0, symSize: 0x28 }
  - { offsetInCU: 0x13E6C, offset: 0x49EC9, size: 0x8, addend: 0x0, symName: __ZNSt3__116__hash_node_baseIPNS_11__hash_nodeINS_17__hash_value_typeIPv3RefIN8MQTTPlus6ClientEEEES3_EEE8__upcastB8ue170006Ev, symObjAddr: 0x2AA4, symBinAddr: 0x1000315D8, symSize: 0x24 }
  - { offsetInCU: 0x13E92, offset: 0x49EEF, size: 0x8, addend: 0x0, symName: __ZNSt3__116allocator_traitsINS_9allocatorINS_11__hash_nodeINS_17__hash_value_typeIPv3RefIN8MQTTPlus6ClientEEEES4_EEEEE7destroyB8ue170006INS_4pairIKS4_S8_EEvvEEvRSB_PT_, symObjAddr: 0x2AC8, symBinAddr: 0x1000315FC, symSize: 0x28 }
  - { offsetInCU: 0x13ECD, offset: 0x49F2A, size: 0x8, addend: 0x0, symName: __ZNSt3__122__hash_key_value_typesINS_17__hash_value_typeIPv3RefIN8MQTTPlus6ClientEEEEE9__get_ptrB8ue170006ERS7_, symObjAddr: 0x2AF0, symBinAddr: 0x100031624, symSize: 0x24 }
  - { offsetInCU: 0x13EF0, offset: 0x49F4D, size: 0x8, addend: 0x0, symName: __ZNSt3__116allocator_traitsINS_9allocatorINS_11__hash_nodeINS_17__hash_value_typeIPv3RefIN8MQTTPlus6ClientEEEES4_EEEEE10deallocateB8ue170006ERSB_PSA_m, symObjAddr: 0x2B14, symBinAddr: 0x100031648, symSize: 0x34 }
  - { offsetInCU: 0x13F32, offset: 0x49F8F, size: 0x8, addend: 0x0, symName: __ZNSt3__117__compressed_pairINS_16__hash_node_baseIPNS_11__hash_nodeINS_17__hash_value_typeIPv3RefIN8MQTTPlus6ClientEEEES4_EEEENS_9allocatorISA_EEE6secondB8ue170006Ev, symObjAddr: 0x2B48, symBinAddr: 0x10003167C, symSize: 0x24 }
  - { offsetInCU: 0x13F58, offset: 0x49FB5, size: 0x8, addend: 0x0, symName: __ZNSt3__122__compressed_pair_elemINS_9allocatorINS_11__hash_nodeINS_17__hash_value_typeIPv3RefIN8MQTTPlus6ClientEEEES4_EEEELi1ELb1EE5__getB8ue170006Ev, symObjAddr: 0x2B6C, symBinAddr: 0x1000316A0, symSize: 0x14 }
  - { offsetInCU: 0x13F7E, offset: 0x49FDB, size: 0x8, addend: 0x0, symName: __ZNSt3__114pointer_traitsIPNS_16__hash_node_baseIPNS_11__hash_nodeINS_17__hash_value_typeIPv3RefIN8MQTTPlus6ClientEEEES4_EEEEE10pointer_toB8ue170006ERSC_, symObjAddr: 0x2B80, symBinAddr: 0x1000316B4, symSize: 0x14 }
  - { offsetInCU: 0x13FA1, offset: 0x49FFE, size: 0x8, addend: 0x0, symName: __ZNSt3__14pairIKPv3RefIN8MQTTPlus6ClientEEED1Ev, symObjAddr: 0x2BDC, symBinAddr: 0x100031710, symSize: 0x2C }
  - { offsetInCU: 0x13FCD, offset: 0x4A02A, size: 0x8, addend: 0x0, symName: __ZNSt3__14pairIKPv3RefIN8MQTTPlus6ClientEEED2Ev, symObjAddr: 0x2C08, symBinAddr: 0x10003173C, symSize: 0x30 }
  - { offsetInCU: 0x13FF9, offset: 0x4A056, size: 0x8, addend: 0x0, symName: __ZNSt3__117__hash_value_typeIPv3RefIN8MQTTPlus6ClientEEE11__get_valueB8ue170006Ev, symObjAddr: 0x2C38, symBinAddr: 0x10003176C, symSize: 0x24 }
  - { offsetInCU: 0x1401F, offset: 0x4A07C, size: 0x8, addend: 0x0, symName: __ZNSt3__19allocatorINS_11__hash_nodeINS_17__hash_value_typeIPv3RefIN8MQTTPlus6ClientEEEES3_EEE10deallocateB8ue170006EPS9_m, symObjAddr: 0x2C94, symBinAddr: 0x1000317C8, symSize: 0x40 }
  - { offsetInCU: 0x14061, offset: 0x4A0BE, size: 0x8, addend: 0x0, symName: __ZNSt3__122__compressed_pair_elemINS_16__hash_node_baseIPNS_11__hash_nodeINS_17__hash_value_typeIPv3RefIN8MQTTPlus6ClientEEEES4_EEEELi0ELb0EE5__getB8ue170006Ev, symObjAddr: 0x2DFC, symBinAddr: 0x100031808, symSize: 0x14 }
  - { offsetInCU: 0x14087, offset: 0x4A0E4, size: 0x8, addend: 0x0, symName: __ZNSt3__110unique_ptrIA_PNS_16__hash_node_baseIPNS_11__hash_nodeINS_17__hash_value_typeIPv3RefIN8MQTTPlus6ClientEEEES4_EEEENS_25__bucket_list_deallocatorINS_9allocatorISD_EEEEED2B8ue170006Ev, symObjAddr: 0x2E10, symBinAddr: 0x10003181C, symSize: 0x30 }
  - { offsetInCU: 0x140B1, offset: 0x4A10E, size: 0x8, addend: 0x0, symName: __ZNSt3__110unique_ptrIA_PNS_16__hash_node_baseIPNS_11__hash_nodeINS_17__hash_value_typeIPv3RefIN8MQTTPlus6ClientEEEES4_EEEENS_25__bucket_list_deallocatorINS_9allocatorISD_EEEEE5resetB8ue170006EDn, symObjAddr: 0x2E40, symBinAddr: 0x10003184C, symSize: 0x6C }
  - { offsetInCU: 0x140F2, offset: 0x4A14F, size: 0x8, addend: 0x0, symName: __ZNSt3__117__compressed_pairIPPNS_16__hash_node_baseIPNS_11__hash_nodeINS_17__hash_value_typeIPv3RefIN8MQTTPlus6ClientEEEES4_EEEENS_25__bucket_list_deallocatorINS_9allocatorISD_EEEEE5firstB8ue170006Ev, symObjAddr: 0x2EAC, symBinAddr: 0x1000318B8, symSize: 0x24 }
  - { offsetInCU: 0x14118, offset: 0x4A175, size: 0x8, addend: 0x0, symName: __ZNSt3__117__compressed_pairIPPNS_16__hash_node_baseIPNS_11__hash_nodeINS_17__hash_value_typeIPv3RefIN8MQTTPlus6ClientEEEES4_EEEENS_25__bucket_list_deallocatorINS_9allocatorISD_EEEEE6secondB8ue170006Ev, symObjAddr: 0x2ED0, symBinAddr: 0x1000318DC, symSize: 0x28 }
  - { offsetInCU: 0x1413E, offset: 0x4A19B, size: 0x8, addend: 0x0, symName: __ZNSt3__125__bucket_list_deallocatorINS_9allocatorIPNS_16__hash_node_baseIPNS_11__hash_nodeINS_17__hash_value_typeIPv3RefIN8MQTTPlus6ClientEEEES5_EEEEEEEclB8ue170006EPSE_, symObjAddr: 0x2EF8, symBinAddr: 0x100031904, symSize: 0x58 }
  - { offsetInCU: 0x14173, offset: 0x4A1D0, size: 0x8, addend: 0x0, symName: __ZNSt3__122__compressed_pair_elemIPPNS_16__hash_node_baseIPNS_11__hash_nodeINS_17__hash_value_typeIPv3RefIN8MQTTPlus6ClientEEEES4_EEEELi0ELb0EE5__getB8ue170006Ev, symObjAddr: 0x2F50, symBinAddr: 0x10003195C, symSize: 0x14 }
  - { offsetInCU: 0x14199, offset: 0x4A1F6, size: 0x8, addend: 0x0, symName: __ZNSt3__122__compressed_pair_elemINS_25__bucket_list_deallocatorINS_9allocatorIPNS_16__hash_node_baseIPNS_11__hash_nodeINS_17__hash_value_typeIPv3RefIN8MQTTPlus6ClientEEEES6_EEEEEEEELi1ELb0EE5__getB8ue170006Ev, symObjAddr: 0x2F64, symBinAddr: 0x100031970, symSize: 0x14 }
  - { offsetInCU: 0x141BF, offset: 0x4A21C, size: 0x8, addend: 0x0, symName: __ZNSt3__116allocator_traitsINS_9allocatorIPNS_16__hash_node_baseIPNS_11__hash_nodeINS_17__hash_value_typeIPv3RefIN8MQTTPlus6ClientEEEES5_EEEEEEE10deallocateB8ue170006ERSF_PSE_m, symObjAddr: 0x2F78, symBinAddr: 0x100031984, symSize: 0x34 }
  - { offsetInCU: 0x14201, offset: 0x4A25E, size: 0x8, addend: 0x0, symName: __ZNSt3__125__bucket_list_deallocatorINS_9allocatorIPNS_16__hash_node_baseIPNS_11__hash_nodeINS_17__hash_value_typeIPv3RefIN8MQTTPlus6ClientEEEES5_EEEEEEE7__allocB8ue170006Ev, symObjAddr: 0x2FAC, symBinAddr: 0x1000319B8, symSize: 0x24 }
  - { offsetInCU: 0x14227, offset: 0x4A284, size: 0x8, addend: 0x0, symName: __ZNSt3__125__bucket_list_deallocatorINS_9allocatorIPNS_16__hash_node_baseIPNS_11__hash_nodeINS_17__hash_value_typeIPv3RefIN8MQTTPlus6ClientEEEES5_EEEEEEE4sizeB8ue170006Ev, symObjAddr: 0x2FD0, symBinAddr: 0x1000319DC, symSize: 0x24 }
  - { offsetInCU: 0x1424D, offset: 0x4A2AA, size: 0x8, addend: 0x0, symName: __ZNSt3__19allocatorIPNS_16__hash_node_baseIPNS_11__hash_nodeINS_17__hash_value_typeIPv3RefIN8MQTTPlus6ClientEEEES4_EEEEE10deallocateB8ue170006EPSD_m, symObjAddr: 0x2FF4, symBinAddr: 0x100031A00, symSize: 0x40 }
  - { offsetInCU: 0x1428F, offset: 0x4A2EC, size: 0x8, addend: 0x0, symName: __ZNSt3__117__compressed_pairImNS_9allocatorIPNS_16__hash_node_baseIPNS_11__hash_nodeINS_17__hash_value_typeIPv3RefIN8MQTTPlus6ClientEEEES5_EEEEEEE6secondB8ue170006Ev, symObjAddr: 0x3034, symBinAddr: 0x100031A40, symSize: 0x24 }
  - { offsetInCU: 0x142B5, offset: 0x4A312, size: 0x8, addend: 0x0, symName: __ZNSt3__122__compressed_pair_elemINS_9allocatorIPNS_16__hash_node_baseIPNS_11__hash_nodeINS_17__hash_value_typeIPv3RefIN8MQTTPlus6ClientEEEES5_EEEEEELi1ELb1EE5__getB8ue170006Ev, symObjAddr: 0x3058, symBinAddr: 0x100031A64, symSize: 0x14 }
  - { offsetInCU: 0x142DB, offset: 0x4A338, size: 0x8, addend: 0x0, symName: __ZNSt3__117__compressed_pairImNS_9allocatorIPNS_16__hash_node_baseIPNS_11__hash_nodeINS_17__hash_value_typeIPv3RefIN8MQTTPlus6ClientEEEES5_EEEEEEE5firstB8ue170006Ev, symObjAddr: 0x306C, symBinAddr: 0x100031A78, symSize: 0x24 }
  - { offsetInCU: 0x14301, offset: 0x4A35E, size: 0x8, addend: 0x0, symName: __ZNSt3__122__compressed_pair_elemImLi0ELb0EE5__getB8ue170006Ev, symObjAddr: 0x3090, symBinAddr: 0x100031A9C, symSize: 0x14 }
  - { offsetInCU: 0x14327, offset: 0x4A384, size: 0x8, addend: 0x0, symName: __ZNSt3__18functionIFv3RefIN8MQTTPlus6ClientEEEED2Ev, symObjAddr: 0x30A4, symBinAddr: 0x100031AB0, symSize: 0x2C }
  - { offsetInCU: 0x14353, offset: 0x4A3B0, size: 0x8, addend: 0x0, symName: __ZNSt3__110__function12__value_funcIFv3RefIN8MQTTPlus6ClientEEEED1B8ue170006Ev, symObjAddr: 0x30D0, symBinAddr: 0x100031ADC, symSize: 0x2C }
  - { offsetInCU: 0x1437D, offset: 0x4A3DA, size: 0x8, addend: 0x0, symName: __ZNSt3__110__function12__value_funcIFv3RefIN8MQTTPlus6ClientEEEED2B8ue170006Ev, symObjAddr: 0x30FC, symBinAddr: 0x100031B08, symSize: 0x90 }
  - { offsetInCU: 0x143A7, offset: 0x4A404, size: 0x8, addend: 0x0, symName: '__ZNSt3__18functionIFvPvEEC2IZN8MQTTPlus6Broker6ListenEvE3$_0vEET_', symObjAddr: 0x34AC, symBinAddr: 0x100031B98, symSize: 0x38 }
  - { offsetInCU: 0x143EC, offset: 0x4A449, size: 0x8, addend: 0x0, symName: '__ZNSt3__110__function12__value_funcIFvPvEEC1B8ue170006IZN8MQTTPlus6Broker6ListenEvE3$_0vEEOT_', symObjAddr: 0x34E4, symBinAddr: 0x100031BD0, symSize: 0x50 }
  - { offsetInCU: 0x1442F, offset: 0x4A48C, size: 0x8, addend: 0x0, symName: '__ZNSt3__19allocatorIZN8MQTTPlus6Broker6ListenEvE3$_0EC1B8ue170006Ev', symObjAddr: 0x3534, symBinAddr: 0x100031C20, symSize: 0x2C }
  - { offsetInCU: 0x14459, offset: 0x4A4B6, size: 0x8, addend: 0x0, symName: '__ZNSt3__110__function12__value_funcIFvPvEEC1B8ue170006IZN8MQTTPlus6Broker6ListenEvE3$_0NS_9allocatorIS8_EEEEOT_RKT0_', symObjAddr: 0x3560, symBinAddr: 0x100031C4C, symSize: 0x3C }
  - { offsetInCU: 0x144B3, offset: 0x4A510, size: 0x8, addend: 0x0, symName: '__ZNSt3__19allocatorIZN8MQTTPlus6Broker6ListenEvE3$_0EC2B8ue170006Ev', symObjAddr: 0x359C, symBinAddr: 0x100031C88, symSize: 0x2C }
  - { offsetInCU: 0x144DD, offset: 0x4A53A, size: 0x8, addend: 0x0, symName: '__ZNSt3__116__non_trivial_ifILb1ENS_9allocatorIZN8MQTTPlus6Broker6ListenEvE3$_0EEEC2B8ue170006Ev', symObjAddr: 0x35C8, symBinAddr: 0x100031CB4, symSize: 0x14 }
  - { offsetInCU: 0x14507, offset: 0x4A564, size: 0x8, addend: 0x0, symName: '__ZNSt3__110__function12__value_funcIFvPvEEC2B8ue170006IZN8MQTTPlus6Broker6ListenEvE3$_0NS_9allocatorIS8_EEEEOT_RKT0_', symObjAddr: 0x35DC, symBinAddr: 0x100031CC8, symSize: 0x94 }
  - { offsetInCU: 0x14596, offset: 0x4A5F3, size: 0x8, addend: 0x0, symName: '__ZNSt3__19allocatorINS_10__function6__funcIZN8MQTTPlus6Broker6ListenEvE3$_0NS0_IS5_EEFvPvEEEEC1B8ue170006IS5_EERKNS0_IT_EE', symObjAddr: 0x3688, symBinAddr: 0x100031D74, symSize: 0x34 }
  - { offsetInCU: 0x145DF, offset: 0x4A63C, size: 0x8, addend: 0x0, symName: '__ZNSt3__19allocatorIZN8MQTTPlus6Broker6ListenEvE3$_0EC1B8ue170006INS_10__function6__funcIS3_S4_FvPvEEEEERKNS0_IT_EE', symObjAddr: 0x36BC, symBinAddr: 0x100031DA8, symSize: 0x34 }
  - { offsetInCU: 0x1461C, offset: 0x4A679, size: 0x8, addend: 0x0, symName: '__ZNSt3__110__function6__funcIZN8MQTTPlus6Broker6ListenEvE3$_0NS_9allocatorIS4_EEFvPvEEC1B8ue170006EOS4_OS6_', symObjAddr: 0x36F0, symBinAddr: 0x100031DDC, symSize: 0x3C }
  - { offsetInCU: 0x14664, offset: 0x4A6C1, size: 0x8, addend: 0x0, symName: '__ZNSt3__19allocatorINS_10__function6__funcIZN8MQTTPlus6Broker6ListenEvE3$_0NS0_IS5_EEFvPvEEEEC2B8ue170006IS5_EERKNS0_IT_EE', symObjAddr: 0x372C, symBinAddr: 0x100031E18, symSize: 0x30 }
  - { offsetInCU: 0x146A1, offset: 0x4A6FE, size: 0x8, addend: 0x0, symName: '__ZNSt3__116__non_trivial_ifILb1ENS_9allocatorINS_10__function6__funcIZN8MQTTPlus6Broker6ListenEvE3$_0NS1_IS6_EEFvPvEEEEEEC2B8ue170006Ev', symObjAddr: 0x375C, symBinAddr: 0x100031E48, symSize: 0x14 }
  - { offsetInCU: 0x146CB, offset: 0x4A728, size: 0x8, addend: 0x0, symName: '__ZNSt3__19allocatorIZN8MQTTPlus6Broker6ListenEvE3$_0EC2B8ue170006INS_10__function6__funcIS3_S4_FvPvEEEEERKNS0_IT_EE', symObjAddr: 0x3770, symBinAddr: 0x100031E5C, symSize: 0x30 }
  - { offsetInCU: 0x14708, offset: 0x4A765, size: 0x8, addend: 0x0, symName: '__ZNSt3__110__function6__funcIZN8MQTTPlus6Broker6ListenEvE3$_0NS_9allocatorIS4_EEFvPvEEC2B8ue170006EOS4_OS6_', symObjAddr: 0x37A0, symBinAddr: 0x100031E8C, symSize: 0x88 }
  - { offsetInCU: 0x14750, offset: 0x4A7AD, size: 0x8, addend: 0x0, symName: __ZNSt3__110__function6__baseIFvPvEEC2B8ue170006Ev, symObjAddr: 0x3828, symBinAddr: 0x100031F14, symSize: 0x24 }
  - { offsetInCU: 0x1477A, offset: 0x4A7D7, size: 0x8, addend: 0x0, symName: '__ZNSt3__110__function12__alloc_funcIZN8MQTTPlus6Broker6ListenEvE3$_0NS_9allocatorIS4_EEFvPvEEC1B8ue170006EOS4_OS6_', symObjAddr: 0x384C, symBinAddr: 0x100031F38, symSize: 0x3C }
  - { offsetInCU: 0x147C0, offset: 0x4A81D, size: 0x8, addend: 0x0, symName: __ZNSt3__110__function6__baseIFvPvEED2Ev, symObjAddr: 0x3888, symBinAddr: 0x100031F74, symSize: 0x14 }
  - { offsetInCU: 0x147EA, offset: 0x4A847, size: 0x8, addend: 0x0, symName: '__ZNSt3__110__function6__funcIZN8MQTTPlus6Broker6ListenEvE3$_0NS_9allocatorIS4_EEFvPvEED1Ev', symObjAddr: 0x389C, symBinAddr: 0x100031F88, symSize: 0x2C }
  - { offsetInCU: 0x14817, offset: 0x4A874, size: 0x8, addend: 0x0, symName: '__ZNSt3__110__function6__funcIZN8MQTTPlus6Broker6ListenEvE3$_0NS_9allocatorIS4_EEFvPvEED0Ev', symObjAddr: 0x38C8, symBinAddr: 0x100031FB4, symSize: 0x30 }
  - { offsetInCU: 0x14844, offset: 0x4A8A1, size: 0x8, addend: 0x0, symName: '__ZNKSt3__110__function6__funcIZN8MQTTPlus6Broker6ListenEvE3$_0NS_9allocatorIS4_EEFvPvEE7__cloneEv', symObjAddr: 0x38F8, symBinAddr: 0x100031FE4, symSize: 0xFC }
  - { offsetInCU: 0x14896, offset: 0x4A8F3, size: 0x8, addend: 0x0, symName: '__ZNKSt3__110__function6__funcIZN8MQTTPlus6Broker6ListenEvE3$_0NS_9allocatorIS4_EEFvPvEE7__cloneEPNS0_6__baseIS8_EE', symObjAddr: 0x39F4, symBinAddr: 0x1000320E0, symSize: 0x58 }
  - { offsetInCU: 0x148CD, offset: 0x4A92A, size: 0x8, addend: 0x0, symName: '__ZNSt3__110__function6__funcIZN8MQTTPlus6Broker6ListenEvE3$_0NS_9allocatorIS4_EEFvPvEE7destroyEv', symObjAddr: 0x3A4C, symBinAddr: 0x100032138, symSize: 0x28 }
  - { offsetInCU: 0x148F5, offset: 0x4A952, size: 0x8, addend: 0x0, symName: '__ZNSt3__110__function6__funcIZN8MQTTPlus6Broker6ListenEvE3$_0NS_9allocatorIS4_EEFvPvEE18destroy_deallocateEv', symObjAddr: 0x3A74, symBinAddr: 0x100032160, symSize: 0x58 }
  - { offsetInCU: 0x14938, offset: 0x4A995, size: 0x8, addend: 0x0, symName: '__ZNSt3__110__function6__funcIZN8MQTTPlus6Broker6ListenEvE3$_0NS_9allocatorIS4_EEFvPvEEclEOS7_', symObjAddr: 0x3ACC, symBinAddr: 0x1000321B8, symSize: 0x30 }
  - { offsetInCU: 0x1496F, offset: 0x4A9CC, size: 0x8, addend: 0x0, symName: '__ZNKSt3__110__function6__funcIZN8MQTTPlus6Broker6ListenEvE3$_0NS_9allocatorIS4_EEFvPvEE6targetERKSt9type_info', symObjAddr: 0x3AFC, symBinAddr: 0x1000321E8, symSize: 0x60 }
  - { offsetInCU: 0x149A6, offset: 0x4AA03, size: 0x8, addend: 0x0, symName: '__ZNKSt3__110__function6__funcIZN8MQTTPlus6Broker6ListenEvE3$_0NS_9allocatorIS4_EEFvPvEE11target_typeEv', symObjAddr: 0x3B5C, symBinAddr: 0x100032248, symSize: 0x18 }
  - { offsetInCU: 0x149CE, offset: 0x4AA2B, size: 0x8, addend: 0x0, symName: __ZNSt3__110__function6__baseIFvPvEED1Ev, symObjAddr: 0x3B74, symBinAddr: 0x100032260, symSize: 0x14 }
  - { offsetInCU: 0x149F8, offset: 0x4AA55, size: 0x8, addend: 0x0, symName: __ZNSt3__110__function6__baseIFvPvEED0Ev, symObjAddr: 0x3B88, symBinAddr: 0x100032274, symSize: 0xC }
  - { offsetInCU: 0x14A22, offset: 0x4AA7F, size: 0x8, addend: 0x0, symName: '__ZNSt3__110__function12__alloc_funcIZN8MQTTPlus6Broker6ListenEvE3$_0NS_9allocatorIS4_EEFvPvEEC2B8ue170006EOS4_OS6_', symObjAddr: 0x3B94, symBinAddr: 0x100032280, symSize: 0x5C }
  - { offsetInCU: 0x14A68, offset: 0x4AAC5, size: 0x8, addend: 0x0, symName: '__ZNSt3__117__compressed_pairIZN8MQTTPlus6Broker6ListenEvE3$_0NS_9allocatorIS3_EEEC1B8ue170006IJOS3_EJOS5_EEENS_21piecewise_construct_tENS_5tupleIJDpT_EEENSB_IJDpT0_EEE', symObjAddr: 0x3C48, symBinAddr: 0x100032334, symSize: 0x3C }
  - { offsetInCU: 0x14AD2, offset: 0x4AB2F, size: 0x8, addend: 0x0, symName: '__ZNSt3__15tupleIJOZN8MQTTPlus6Broker6ListenEvE3$_0EEC1B8ue170006IJS3_ELi0EEEDpOT_', symObjAddr: 0x3C84, symBinAddr: 0x100032370, symSize: 0x34 }
  - { offsetInCU: 0x14B1C, offset: 0x4AB79, size: 0x8, addend: 0x0, symName: '__ZNSt3__15tupleIJOZN8MQTTPlus6Broker6ListenEvE3$_0EEC2B8ue170006IJS3_ELi0EEEDpOT_', symObjAddr: 0x3CB8, symBinAddr: 0x1000323A4, symSize: 0x34 }
  - { offsetInCU: 0x14B66, offset: 0x4ABC3, size: 0x8, addend: 0x0, symName: '__ZNSt3__112__tuple_implINS_15__tuple_indicesIJLm0EEEEJOZN8MQTTPlus6Broker6ListenEvE3$_0EEC1B8ue170006IJLm0EEJS6_EJEJEJS5_EEENS1_IJXspT_EEEENS_13__tuple_typesIJDpT0_EEENS1_IJXspT1_EEEENSA_IJDpT2_EEEDpOT3_', symObjAddr: 0x3CEC, symBinAddr: 0x1000323D8, symSize: 0x34 }
  - { offsetInCU: 0x14BFB, offset: 0x4AC58, size: 0x8, addend: 0x0, symName: '__ZNSt3__112__tuple_implINS_15__tuple_indicesIJLm0EEEEJOZN8MQTTPlus6Broker6ListenEvE3$_0EEC2B8ue170006IJLm0EEJS6_EJEJEJS5_EEENS1_IJXspT_EEEENS_13__tuple_typesIJDpT0_EEENS1_IJXspT1_EEEENSA_IJDpT2_EEEDpOT3_', symObjAddr: 0x3D20, symBinAddr: 0x10003240C, symSize: 0x34 }
  - { offsetInCU: 0x14C90, offset: 0x4ACED, size: 0x8, addend: 0x0, symName: '__ZNSt3__112__tuple_leafILm0EOZN8MQTTPlus6Broker6ListenEvE3$_0Lb0EEC2B8ue170006IS3_vEEOT_', symObjAddr: 0x3D54, symBinAddr: 0x100032440, symSize: 0x20 }
  - { offsetInCU: 0x14CD3, offset: 0x4AD30, size: 0x8, addend: 0x0, symName: '__ZNSt3__15tupleIJONS_9allocatorIZN8MQTTPlus6Broker6ListenEvE3$_0EEEEC1B8ue170006IJS5_ELi0EEEDpOT_', symObjAddr: 0x3D74, symBinAddr: 0x100032460, symSize: 0x34 }
  - { offsetInCU: 0x14D1D, offset: 0x4AD7A, size: 0x8, addend: 0x0, symName: '__ZNSt3__15tupleIJONS_9allocatorIZN8MQTTPlus6Broker6ListenEvE3$_0EEEEC2B8ue170006IJS5_ELi0EEEDpOT_', symObjAddr: 0x3DA8, symBinAddr: 0x100032494, symSize: 0x34 }
  - { offsetInCU: 0x14D67, offset: 0x4ADC4, size: 0x8, addend: 0x0, symName: '__ZNSt3__112__tuple_implINS_15__tuple_indicesIJLm0EEEEJONS_9allocatorIZN8MQTTPlus6Broker6ListenEvE3$_0EEEEC1B8ue170006IJLm0EEJS8_EJEJEJS7_EEENS1_IJXspT_EEEENS_13__tuple_typesIJDpT0_EEENS1_IJXspT1_EEEENSC_IJDpT2_EEEDpOT3_', symObjAddr: 0x3DDC, symBinAddr: 0x1000324C8, symSize: 0x34 }
  - { offsetInCU: 0x14DFC, offset: 0x4AE59, size: 0x8, addend: 0x0, symName: '__ZNSt3__112__tuple_implINS_15__tuple_indicesIJLm0EEEEJONS_9allocatorIZN8MQTTPlus6Broker6ListenEvE3$_0EEEEC2B8ue170006IJLm0EEJS8_EJEJEJS7_EEENS1_IJXspT_EEEENS_13__tuple_typesIJDpT0_EEENS1_IJXspT1_EEEENSC_IJDpT2_EEEDpOT3_', symObjAddr: 0x3E10, symBinAddr: 0x1000324FC, symSize: 0x34 }
  - { offsetInCU: 0x14E91, offset: 0x4AEEE, size: 0x8, addend: 0x0, symName: '__ZNSt3__112__tuple_leafILm0EONS_9allocatorIZN8MQTTPlus6Broker6ListenEvE3$_0EELb0EEC2B8ue170006IS5_vEEOT_', symObjAddr: 0x3E44, symBinAddr: 0x100032530, symSize: 0x20 }
  - { offsetInCU: 0x14ED4, offset: 0x4AF31, size: 0x8, addend: 0x0, symName: '__ZNSt3__117__compressed_pairIZN8MQTTPlus6Broker6ListenEvE3$_0NS_9allocatorIS3_EEEC2B8ue170006IJOS3_EJOS5_EEENS_21piecewise_construct_tENS_5tupleIJDpT_EEENSB_IJDpT0_EEE', symObjAddr: 0x3E64, symBinAddr: 0x100032550, symSize: 0x54 }
  - { offsetInCU: 0x14F3E, offset: 0x4AF9B, size: 0x8, addend: 0x0, symName: '__ZNSt3__122__compressed_pair_elemIZN8MQTTPlus6Broker6ListenEvE3$_0Li0ELb0EEC2B8ue170006IJOS3_EJLm0EEEENS_21piecewise_construct_tENS_5tupleIJDpT_EEENS_15__tuple_indicesIJXspT0_EEEE', symObjAddr: 0x3EB8, symBinAddr: 0x1000325A4, symSize: 0x44 }
  - { offsetInCU: 0x14FA1, offset: 0x4AFFE, size: 0x8, addend: 0x0, symName: '__ZNSt3__122__compressed_pair_elemINS_9allocatorIZN8MQTTPlus6Broker6ListenEvE3$_0EELi1ELb1EEC2B8ue170006IJOS5_EJLm0EEEENS_21piecewise_construct_tENS_5tupleIJDpT_EEENS_15__tuple_indicesIJXspT0_EEEE', symObjAddr: 0x3EFC, symBinAddr: 0x1000325E8, symSize: 0x38 }
  - { offsetInCU: 0x15004, offset: 0x4B061, size: 0x8, addend: 0x0, symName: '__ZNSt3__112__tuple_leafILm0EOZN8MQTTPlus6Broker6ListenEvE3$_0Lb0EE3getB8ue170006Ev', symObjAddr: 0x3F58, symBinAddr: 0x100032644, symSize: 0x18 }
  - { offsetInCU: 0x1502A, offset: 0x4B087, size: 0x8, addend: 0x0, symName: '__ZNSt3__112__tuple_leafILm0EONS_9allocatorIZN8MQTTPlus6Broker6ListenEvE3$_0EELb0EE3getB8ue170006Ev', symObjAddr: 0x3F94, symBinAddr: 0x100032680, symSize: 0x18 }
  - { offsetInCU: 0x15050, offset: 0x4B0AD, size: 0x8, addend: 0x0, symName: '__ZNSt3__110__function6__funcIZN8MQTTPlus6Broker6ListenEvE3$_0NS_9allocatorIS4_EEFvPvEED2Ev', symObjAddr: 0x3FAC, symBinAddr: 0x100032698, symSize: 0x2C }
  - { offsetInCU: 0x1507D, offset: 0x4B0DA, size: 0x8, addend: 0x0, symName: '__ZNKSt3__110__function12__alloc_funcIZN8MQTTPlus6Broker6ListenEvE3$_0NS_9allocatorIS4_EEFvPvEE15__get_allocatorB8ue170006Ev', symObjAddr: 0x3FD8, symBinAddr: 0x1000326C4, symSize: 0x24 }
  - { offsetInCU: 0x150A3, offset: 0x4B100, size: 0x8, addend: 0x0, symName: '__ZNSt3__19allocatorINS_10__function6__funcIZN8MQTTPlus6Broker6ListenEvE3$_0NS0_IS5_EEFvPvEEEE8allocateB8ue170006Em', symObjAddr: 0x3FFC, symBinAddr: 0x1000326E8, symSize: 0x58 }
  - { offsetInCU: 0x150E9, offset: 0x4B146, size: 0x8, addend: 0x0, symName: '__ZNSt3__122__allocator_destructorINS_9allocatorINS_10__function6__funcIZN8MQTTPlus6Broker6ListenEvE3$_0NS1_IS6_EEFvPvEEEEEEC1B8ue170006ERSB_m', symObjAddr: 0x4054, symBinAddr: 0x100032740, symSize: 0x3C }
  - { offsetInCU: 0x151DD, offset: 0x4B23A, size: 0x8, addend: 0x0, symName: '__ZNSt3__110unique_ptrINS_10__function6__funcIZN8MQTTPlus6Broker6ListenEvE3$_0NS_9allocatorIS5_EEFvPvEEENS_22__allocator_destructorINS6_ISA_EEEEEC1B8ue170006ILb1EvEEPSA_NS_16__dependent_typeINS_27__unique_ptr_deleter_sfinaeISD_EEXT_EE20__good_rval_ref_typeE', symObjAddr: 0x4090, symBinAddr: 0x10003277C, symSize: 0x3C }
  - { offsetInCU: 0x1522E, offset: 0x4B28B, size: 0x8, addend: 0x0, symName: '__ZNKSt3__110unique_ptrINS_10__function6__funcIZN8MQTTPlus6Broker6ListenEvE3$_0NS_9allocatorIS5_EEFvPvEEENS_22__allocator_destructorINS6_ISA_EEEEE3getB8ue170006Ev', symObjAddr: 0x40CC, symBinAddr: 0x1000327B8, symSize: 0x28 }
  - { offsetInCU: 0x15254, offset: 0x4B2B1, size: 0x8, addend: 0x0, symName: '__ZNKSt3__110__function12__alloc_funcIZN8MQTTPlus6Broker6ListenEvE3$_0NS_9allocatorIS4_EEFvPvEE8__targetB8ue170006Ev', symObjAddr: 0x40F4, symBinAddr: 0x1000327E0, symSize: 0x24 }
  - { offsetInCU: 0x1527A, offset: 0x4B2D7, size: 0x8, addend: 0x0, symName: '__ZNSt3__110__function6__funcIZN8MQTTPlus6Broker6ListenEvE3$_0NS_9allocatorIS4_EEFvPvEEC1B8ue170006ERKS4_OS6_', symObjAddr: 0x4118, symBinAddr: 0x100032804, symSize: 0x3C }
  - { offsetInCU: 0x152C2, offset: 0x4B31F, size: 0x8, addend: 0x0, symName: '__ZNSt3__110unique_ptrINS_10__function6__funcIZN8MQTTPlus6Broker6ListenEvE3$_0NS_9allocatorIS5_EEFvPvEEENS_22__allocator_destructorINS6_ISA_EEEEE7releaseB8ue170006Ev', symObjAddr: 0x4154, symBinAddr: 0x100032840, symSize: 0x44 }
  - { offsetInCU: 0x152F7, offset: 0x4B354, size: 0x8, addend: 0x0, symName: '__ZNSt3__110unique_ptrINS_10__function6__funcIZN8MQTTPlus6Broker6ListenEvE3$_0NS_9allocatorIS5_EEFvPvEEENS_22__allocator_destructorINS6_ISA_EEEEED1B8ue170006Ev', symObjAddr: 0x4198, symBinAddr: 0x100032884, symSize: 0x2C }
  - { offsetInCU: 0x15321, offset: 0x4B37E, size: 0x8, addend: 0x0, symName: '__ZNKSt3__117__compressed_pairIZN8MQTTPlus6Broker6ListenEvE3$_0NS_9allocatorIS3_EEE6secondB8ue170006Ev', symObjAddr: 0x41C4, symBinAddr: 0x1000328B0, symSize: 0x24 }
  - { offsetInCU: 0x15347, offset: 0x4B3A4, size: 0x8, addend: 0x0, symName: '__ZNKSt3__122__compressed_pair_elemINS_9allocatorIZN8MQTTPlus6Broker6ListenEvE3$_0EELi1ELb1EE5__getB8ue170006Ev', symObjAddr: 0x41E8, symBinAddr: 0x1000328D4, symSize: 0x14 }
  - { offsetInCU: 0x15379, offset: 0x4B3D6, size: 0x8, addend: 0x0, symName: '__ZNSt3__116allocator_traitsINS_9allocatorINS_10__function6__funcIZN8MQTTPlus6Broker6ListenEvE3$_0NS1_IS6_EEFvPvEEEEEE8max_sizeB8ue170006ISB_vvEEmRKSB_', symObjAddr: 0x41FC, symBinAddr: 0x1000328E8, symSize: 0x28 }
  - { offsetInCU: 0x153A5, offset: 0x4B402, size: 0x8, addend: 0x0, symName: '__ZNSt3__122__allocator_destructorINS_9allocatorINS_10__function6__funcIZN8MQTTPlus6Broker6ListenEvE3$_0NS1_IS6_EEFvPvEEEEEEC2B8ue170006ERSB_m', symObjAddr: 0x4324, symBinAddr: 0x100032910, symSize: 0x2C }
  - { offsetInCU: 0x153EB, offset: 0x4B448, size: 0x8, addend: 0x0, symName: '__ZNSt3__110unique_ptrINS_10__function6__funcIZN8MQTTPlus6Broker6ListenEvE3$_0NS_9allocatorIS5_EEFvPvEEENS_22__allocator_destructorINS6_ISA_EEEEEC2B8ue170006ILb1EvEEPSA_NS_16__dependent_typeINS_27__unique_ptr_deleter_sfinaeISD_EEXT_EE20__good_rval_ref_typeE', symObjAddr: 0x4350, symBinAddr: 0x10003293C, symSize: 0x48 }
  - { offsetInCU: 0x1543C, offset: 0x4B499, size: 0x8, addend: 0x0, symName: '__ZNSt3__117__compressed_pairIPNS_10__function6__funcIZN8MQTTPlus6Broker6ListenEvE3$_0NS_9allocatorIS5_EEFvPvEEENS_22__allocator_destructorINS6_ISA_EEEEEC1B8ue170006IRSB_SE_EEOT_OT0_', symObjAddr: 0x4398, symBinAddr: 0x100032984, symSize: 0x3C }
  - { offsetInCU: 0x15494, offset: 0x4B4F1, size: 0x8, addend: 0x0, symName: '__ZNSt3__117__compressed_pairIPNS_10__function6__funcIZN8MQTTPlus6Broker6ListenEvE3$_0NS_9allocatorIS5_EEFvPvEEENS_22__allocator_destructorINS6_ISA_EEEEEC2B8ue170006IRSB_SE_EEOT_OT0_', symObjAddr: 0x43D4, symBinAddr: 0x1000329C0, symSize: 0x48 }
  - { offsetInCU: 0x154EC, offset: 0x4B549, size: 0x8, addend: 0x0, symName: '__ZNSt3__122__compressed_pair_elemIPNS_10__function6__funcIZN8MQTTPlus6Broker6ListenEvE3$_0NS_9allocatorIS5_EEFvPvEEELi0ELb0EEC2B8ue170006IRSB_vEEOT_', symObjAddr: 0x441C, symBinAddr: 0x100032A08, symSize: 0x24 }
  - { offsetInCU: 0x1552E, offset: 0x4B58B, size: 0x8, addend: 0x0, symName: '__ZNSt3__122__compressed_pair_elemINS_22__allocator_destructorINS_9allocatorINS_10__function6__funcIZN8MQTTPlus6Broker6ListenEvE3$_0NS2_IS7_EEFvPvEEEEEEELi1ELb0EEC2B8ue170006ISD_vEEOT_', symObjAddr: 0x4440, symBinAddr: 0x100032A2C, symSize: 0x24 }
  - { offsetInCU: 0x15570, offset: 0x4B5CD, size: 0x8, addend: 0x0, symName: '__ZNKSt3__117__compressed_pairIPNS_10__function6__funcIZN8MQTTPlus6Broker6ListenEvE3$_0NS_9allocatorIS5_EEFvPvEEENS_22__allocator_destructorINS6_ISA_EEEEE5firstB8ue170006Ev', symObjAddr: 0x4464, symBinAddr: 0x100032A50, symSize: 0x24 }
  - { offsetInCU: 0x15596, offset: 0x4B5F3, size: 0x8, addend: 0x0, symName: '__ZNKSt3__122__compressed_pair_elemIPNS_10__function6__funcIZN8MQTTPlus6Broker6ListenEvE3$_0NS_9allocatorIS5_EEFvPvEEELi0ELb0EE5__getB8ue170006Ev', symObjAddr: 0x4488, symBinAddr: 0x100032A74, symSize: 0x14 }
  - { offsetInCU: 0x155BC, offset: 0x4B619, size: 0x8, addend: 0x0, symName: '__ZNKSt3__117__compressed_pairIZN8MQTTPlus6Broker6ListenEvE3$_0NS_9allocatorIS3_EEE5firstB8ue170006Ev', symObjAddr: 0x449C, symBinAddr: 0x100032A88, symSize: 0x24 }
  - { offsetInCU: 0x155E2, offset: 0x4B63F, size: 0x8, addend: 0x0, symName: '__ZNKSt3__122__compressed_pair_elemIZN8MQTTPlus6Broker6ListenEvE3$_0Li0ELb0EE5__getB8ue170006Ev', symObjAddr: 0x44C0, symBinAddr: 0x100032AAC, symSize: 0x14 }
  - { offsetInCU: 0x15608, offset: 0x4B665, size: 0x8, addend: 0x0, symName: '__ZNSt3__110__function6__funcIZN8MQTTPlus6Broker6ListenEvE3$_0NS_9allocatorIS4_EEFvPvEEC2B8ue170006ERKS4_OS6_', symObjAddr: 0x44D4, symBinAddr: 0x100032AC0, symSize: 0x88 }
  - { offsetInCU: 0x15650, offset: 0x4B6AD, size: 0x8, addend: 0x0, symName: '__ZNSt3__110__function12__alloc_funcIZN8MQTTPlus6Broker6ListenEvE3$_0NS_9allocatorIS4_EEFvPvEEC1B8ue170006ERKS4_OS6_', symObjAddr: 0x455C, symBinAddr: 0x100032B48, symSize: 0x3C }
  - { offsetInCU: 0x15696, offset: 0x4B6F3, size: 0x8, addend: 0x0, symName: '__ZNSt3__110__function12__alloc_funcIZN8MQTTPlus6Broker6ListenEvE3$_0NS_9allocatorIS4_EEFvPvEEC2B8ue170006ERKS4_OS6_', symObjAddr: 0x4598, symBinAddr: 0x100032B84, symSize: 0x5C }
  - { offsetInCU: 0x156DC, offset: 0x4B739, size: 0x8, addend: 0x0, symName: '__ZNSt3__117__compressed_pairIZN8MQTTPlus6Broker6ListenEvE3$_0NS_9allocatorIS3_EEEC1B8ue170006IJRKS3_EJOS5_EEENS_21piecewise_construct_tENS_5tupleIJDpT_EEENSC_IJDpT0_EEE', symObjAddr: 0x4620, symBinAddr: 0x100032C0C, symSize: 0x3C }
  - { offsetInCU: 0x15746, offset: 0x4B7A3, size: 0x8, addend: 0x0, symName: '__ZNSt3__15tupleIJRKZN8MQTTPlus6Broker6ListenEvE3$_0EEC1B8ue170006INS_4_AndELi0EEES5_', symObjAddr: 0x465C, symBinAddr: 0x100032C48, symSize: 0x34 }
  - { offsetInCU: 0x1578E, offset: 0x4B7EB, size: 0x8, addend: 0x0, symName: '__ZNSt3__15tupleIJRKZN8MQTTPlus6Broker6ListenEvE3$_0EEC2B8ue170006INS_4_AndELi0EEES5_', symObjAddr: 0x4690, symBinAddr: 0x100032C7C, symSize: 0x34 }
  - { offsetInCU: 0x157D6, offset: 0x4B833, size: 0x8, addend: 0x0, symName: '__ZNSt3__112__tuple_implINS_15__tuple_indicesIJLm0EEEEJRKZN8MQTTPlus6Broker6ListenEvE3$_0EEC1B8ue170006IJLm0EEJS7_EJEJEJS7_EEENS1_IJXspT_EEEENS_13__tuple_typesIJDpT0_EEENS1_IJXspT1_EEEENSB_IJDpT2_EEEDpOT3_', symObjAddr: 0x46C4, symBinAddr: 0x100032CB0, symSize: 0x34 }
  - { offsetInCU: 0x1586B, offset: 0x4B8C8, size: 0x8, addend: 0x0, symName: '__ZNSt3__112__tuple_implINS_15__tuple_indicesIJLm0EEEEJRKZN8MQTTPlus6Broker6ListenEvE3$_0EEC2B8ue170006IJLm0EEJS7_EJEJEJS7_EEENS1_IJXspT_EEEENS_13__tuple_typesIJDpT0_EEENS1_IJXspT1_EEEENSB_IJDpT2_EEEDpOT3_', symObjAddr: 0x46F8, symBinAddr: 0x100032CE4, symSize: 0x34 }
  - { offsetInCU: 0x15900, offset: 0x4B95D, size: 0x8, addend: 0x0, symName: '__ZNSt3__112__tuple_leafILm0ERKZN8MQTTPlus6Broker6ListenEvE3$_0Lb0EEC2B8ue170006IS5_vEEOT_', symObjAddr: 0x472C, symBinAddr: 0x100032D18, symSize: 0x20 }
  - { offsetInCU: 0x15943, offset: 0x4B9A0, size: 0x8, addend: 0x0, symName: '__ZNSt3__117__compressed_pairIZN8MQTTPlus6Broker6ListenEvE3$_0NS_9allocatorIS3_EEEC2B8ue170006IJRKS3_EJOS5_EEENS_21piecewise_construct_tENS_5tupleIJDpT_EEENSC_IJDpT0_EEE', symObjAddr: 0x474C, symBinAddr: 0x100032D38, symSize: 0x54 }
  - { offsetInCU: 0x159AD, offset: 0x4BA0A, size: 0x8, addend: 0x0, symName: '__ZNSt3__122__compressed_pair_elemIZN8MQTTPlus6Broker6ListenEvE3$_0Li0ELb0EEC2B8ue170006IJRKS3_EJLm0EEEENS_21piecewise_construct_tENS_5tupleIJDpT_EEENS_15__tuple_indicesIJXspT0_EEEE', symObjAddr: 0x47A0, symBinAddr: 0x100032D8C, symSize: 0x44 }
  - { offsetInCU: 0x15A10, offset: 0x4BA6D, size: 0x8, addend: 0x0, symName: '__ZNSt3__112__tuple_leafILm0ERKZN8MQTTPlus6Broker6ListenEvE3$_0Lb0EE3getB8ue170006Ev', symObjAddr: 0x4808, symBinAddr: 0x100032DF4, symSize: 0x18 }
  - { offsetInCU: 0x15A36, offset: 0x4BA93, size: 0x8, addend: 0x0, symName: '__ZNSt3__117__compressed_pairIPNS_10__function6__funcIZN8MQTTPlus6Broker6ListenEvE3$_0NS_9allocatorIS5_EEFvPvEEENS_22__allocator_destructorINS6_ISA_EEEEE5firstB8ue170006Ev', symObjAddr: 0x4820, symBinAddr: 0x100032E0C, symSize: 0x24 }
  - { offsetInCU: 0x15A5C, offset: 0x4BAB9, size: 0x8, addend: 0x0, symName: '__ZNSt3__122__compressed_pair_elemIPNS_10__function6__funcIZN8MQTTPlus6Broker6ListenEvE3$_0NS_9allocatorIS5_EEFvPvEEELi0ELb0EE5__getB8ue170006Ev', symObjAddr: 0x4844, symBinAddr: 0x100032E30, symSize: 0x14 }
  - { offsetInCU: 0x15A82, offset: 0x4BADF, size: 0x8, addend: 0x0, symName: '__ZNSt3__110unique_ptrINS_10__function6__funcIZN8MQTTPlus6Broker6ListenEvE3$_0NS_9allocatorIS5_EEFvPvEEENS_22__allocator_destructorINS6_ISA_EEEEED2B8ue170006Ev', symObjAddr: 0x4858, symBinAddr: 0x100032E44, symSize: 0x30 }
  - { offsetInCU: 0x15AAC, offset: 0x4BB09, size: 0x8, addend: 0x0, symName: '__ZNSt3__110unique_ptrINS_10__function6__funcIZN8MQTTPlus6Broker6ListenEvE3$_0NS_9allocatorIS5_EEFvPvEEENS_22__allocator_destructorINS6_ISA_EEEEE5resetB8ue170006EPSA_', symObjAddr: 0x4888, symBinAddr: 0x100032E74, symSize: 0x78 }
  - { offsetInCU: 0x15AF0, offset: 0x4BB4D, size: 0x8, addend: 0x0, symName: '__ZNSt3__117__compressed_pairIPNS_10__function6__funcIZN8MQTTPlus6Broker6ListenEvE3$_0NS_9allocatorIS5_EEFvPvEEENS_22__allocator_destructorINS6_ISA_EEEEE6secondB8ue170006Ev', symObjAddr: 0x4900, symBinAddr: 0x100032EEC, symSize: 0x28 }
  - { offsetInCU: 0x15B16, offset: 0x4BB73, size: 0x8, addend: 0x0, symName: '__ZNSt3__122__allocator_destructorINS_9allocatorINS_10__function6__funcIZN8MQTTPlus6Broker6ListenEvE3$_0NS1_IS6_EEFvPvEEEEEEclB8ue170006EPSA_', symObjAddr: 0x4928, symBinAddr: 0x100032F14, symSize: 0x34 }
  - { offsetInCU: 0x15B4A, offset: 0x4BBA7, size: 0x8, addend: 0x0, symName: '__ZNSt3__122__compressed_pair_elemINS_22__allocator_destructorINS_9allocatorINS_10__function6__funcIZN8MQTTPlus6Broker6ListenEvE3$_0NS2_IS7_EEFvPvEEEEEEELi1ELb0EE5__getB8ue170006Ev', symObjAddr: 0x495C, symBinAddr: 0x100032F48, symSize: 0x14 }
  - { offsetInCU: 0x15B70, offset: 0x4BBCD, size: 0x8, addend: 0x0, symName: '__ZNSt3__116allocator_traitsINS_9allocatorINS_10__function6__funcIZN8MQTTPlus6Broker6ListenEvE3$_0NS1_IS6_EEFvPvEEEEEE10deallocateB8ue170006ERSB_PSA_m', symObjAddr: 0x4970, symBinAddr: 0x100032F5C, symSize: 0x34 }
  - { offsetInCU: 0x15BB2, offset: 0x4BC0F, size: 0x8, addend: 0x0, symName: '__ZNSt3__19allocatorINS_10__function6__funcIZN8MQTTPlus6Broker6ListenEvE3$_0NS0_IS5_EEFvPvEEEE10deallocateB8ue170006EPS9_m', symObjAddr: 0x49A4, symBinAddr: 0x100032F90, symSize: 0x40 }
  - { offsetInCU: 0x15BF4, offset: 0x4BC51, size: 0x8, addend: 0x0, symName: '__ZNSt3__110__function6__funcIZN8MQTTPlus6Broker6ListenEvE3$_0NS_9allocatorIS4_EEFvPvEEC1B8ue170006ERKS4_RKS6_', symObjAddr: 0x49E4, symBinAddr: 0x100032FD0, symSize: 0x3C }
  - { offsetInCU: 0x15C3C, offset: 0x4BC99, size: 0x8, addend: 0x0, symName: '__ZNSt3__110__function6__funcIZN8MQTTPlus6Broker6ListenEvE3$_0NS_9allocatorIS4_EEFvPvEEC2B8ue170006ERKS4_RKS6_', symObjAddr: 0x4A20, symBinAddr: 0x10003300C, symSize: 0x88 }
  - { offsetInCU: 0x15C84, offset: 0x4BCE1, size: 0x8, addend: 0x0, symName: '__ZNSt3__110__function12__alloc_funcIZN8MQTTPlus6Broker6ListenEvE3$_0NS_9allocatorIS4_EEFvPvEEC1B8ue170006ERKS4_RKS6_', symObjAddr: 0x4AA8, symBinAddr: 0x100033094, symSize: 0x3C }
  - { offsetInCU: 0x15CCA, offset: 0x4BD27, size: 0x8, addend: 0x0, symName: '__ZNSt3__110__function12__alloc_funcIZN8MQTTPlus6Broker6ListenEvE3$_0NS_9allocatorIS4_EEFvPvEEC2B8ue170006ERKS4_RKS6_', symObjAddr: 0x4AE4, symBinAddr: 0x1000330D0, symSize: 0x5C }
  - { offsetInCU: 0x15D10, offset: 0x4BD6D, size: 0x8, addend: 0x0, symName: '__ZNSt3__117__compressed_pairIZN8MQTTPlus6Broker6ListenEvE3$_0NS_9allocatorIS3_EEEC1B8ue170006IJRKS3_EJRKS5_EEENS_21piecewise_construct_tENS_5tupleIJDpT_EEENSD_IJDpT0_EEE', symObjAddr: 0x4B6C, symBinAddr: 0x100033158, symSize: 0x3C }
  - { offsetInCU: 0x15D7A, offset: 0x4BDD7, size: 0x8, addend: 0x0, symName: '__ZNSt3__15tupleIJRKNS_9allocatorIZN8MQTTPlus6Broker6ListenEvE3$_0EEEEC1B8ue170006INS_4_AndELi0EEES7_', symObjAddr: 0x4BA8, symBinAddr: 0x100033194, symSize: 0x34 }
  - { offsetInCU: 0x15DC2, offset: 0x4BE1F, size: 0x8, addend: 0x0, symName: '__ZNSt3__15tupleIJRKNS_9allocatorIZN8MQTTPlus6Broker6ListenEvE3$_0EEEEC2B8ue170006INS_4_AndELi0EEES7_', symObjAddr: 0x4BDC, symBinAddr: 0x1000331C8, symSize: 0x34 }
  - { offsetInCU: 0x15E0A, offset: 0x4BE67, size: 0x8, addend: 0x0, symName: '__ZNSt3__112__tuple_implINS_15__tuple_indicesIJLm0EEEEJRKNS_9allocatorIZN8MQTTPlus6Broker6ListenEvE3$_0EEEEC1B8ue170006IJLm0EEJS9_EJEJEJS9_EEENS1_IJXspT_EEEENS_13__tuple_typesIJDpT0_EEENS1_IJXspT1_EEEENSD_IJDpT2_EEEDpOT3_', symObjAddr: 0x4C10, symBinAddr: 0x1000331FC, symSize: 0x34 }
  - { offsetInCU: 0x15E9F, offset: 0x4BEFC, size: 0x8, addend: 0x0, symName: '__ZNSt3__112__tuple_implINS_15__tuple_indicesIJLm0EEEEJRKNS_9allocatorIZN8MQTTPlus6Broker6ListenEvE3$_0EEEEC2B8ue170006IJLm0EEJS9_EJEJEJS9_EEENS1_IJXspT_EEEENS_13__tuple_typesIJDpT0_EEENS1_IJXspT1_EEEENSD_IJDpT2_EEEDpOT3_', symObjAddr: 0x4C44, symBinAddr: 0x100033230, symSize: 0x34 }
  - { offsetInCU: 0x15F34, offset: 0x4BF91, size: 0x8, addend: 0x0, symName: '__ZNSt3__112__tuple_leafILm0ERKNS_9allocatorIZN8MQTTPlus6Broker6ListenEvE3$_0EELb0EEC2B8ue170006IS7_vEEOT_', symObjAddr: 0x4C78, symBinAddr: 0x100033264, symSize: 0x20 }
  - { offsetInCU: 0x15F77, offset: 0x4BFD4, size: 0x8, addend: 0x0, symName: '__ZNSt3__117__compressed_pairIZN8MQTTPlus6Broker6ListenEvE3$_0NS_9allocatorIS3_EEEC2B8ue170006IJRKS3_EJRKS5_EEENS_21piecewise_construct_tENS_5tupleIJDpT_EEENSD_IJDpT0_EEE', symObjAddr: 0x4C98, symBinAddr: 0x100033284, symSize: 0x54 }
  - { offsetInCU: 0x15FE1, offset: 0x4C03E, size: 0x8, addend: 0x0, symName: '__ZNSt3__122__compressed_pair_elemINS_9allocatorIZN8MQTTPlus6Broker6ListenEvE3$_0EELi1ELb1EEC2B8ue170006IJRKS5_EJLm0EEEENS_21piecewise_construct_tENS_5tupleIJDpT_EEENS_15__tuple_indicesIJXspT0_EEEE', symObjAddr: 0x4CEC, symBinAddr: 0x1000332D8, symSize: 0x38 }
  - { offsetInCU: 0x16044, offset: 0x4C0A1, size: 0x8, addend: 0x0, symName: '__ZNSt3__112__tuple_leafILm0ERKNS_9allocatorIZN8MQTTPlus6Broker6ListenEvE3$_0EELb0EE3getB8ue170006Ev', symObjAddr: 0x4D48, symBinAddr: 0x100033334, symSize: 0x18 }
  - { offsetInCU: 0x1606A, offset: 0x4C0C7, size: 0x8, addend: 0x0, symName: '__ZNSt3__110__function12__alloc_funcIZN8MQTTPlus6Broker6ListenEvE3$_0NS_9allocatorIS4_EEFvPvEE7destroyB8ue170006Ev', symObjAddr: 0x4D60, symBinAddr: 0x10003334C, symSize: 0x10 }
  - { offsetInCU: 0x16090, offset: 0x4C0ED, size: 0x8, addend: 0x0, symName: '__ZNSt3__110__function12__alloc_funcIZN8MQTTPlus6Broker6ListenEvE3$_0NS_9allocatorIS4_EEFvPvEEclB8ue170006EOS7_', symObjAddr: 0x4D70, symBinAddr: 0x10003335C, symSize: 0x30 }
  - { offsetInCU: 0x160C4, offset: 0x4C121, size: 0x8, addend: 0x0, symName: '__ZNSt3__128__invoke_void_return_wrapperIvLb1EE6__callB8ue170006IJRZN8MQTTPlus6Broker6ListenEvE3$_0PvEEEvDpOT_', symObjAddr: 0x4DA0, symBinAddr: 0x10003338C, symSize: 0x2C }
  - { offsetInCU: 0x16107, offset: 0x4C164, size: 0x8, addend: 0x0, symName: '__ZNSt3__117__compressed_pairIZN8MQTTPlus6Broker6ListenEvE3$_0NS_9allocatorIS3_EEE5firstB8ue170006Ev', symObjAddr: 0x4DCC, symBinAddr: 0x1000333B8, symSize: 0x24 }
  - { offsetInCU: 0x16133, offset: 0x4C190, size: 0x8, addend: 0x0, symName: __ZN3RefIN8MQTTPlus6ClientEE6CreateIJPNS0_6BrokerERPvEEES2_DpOT_, symObjAddr: 0x4F90, symBinAddr: 0x10003357C, symSize: 0x7C }
  - { offsetInCU: 0x16174, offset: 0x4C1D1, size: 0x8, addend: 0x0, symName: __ZN8MQTTPlus6Client22SetSendMessageCallbackENSt3__18functionIFv3RefIN4MQTT7MessageEEEEE, symObjAddr: 0x500C, symBinAddr: 0x1000335F8, symSize: 0x30 }
  - { offsetInCU: 0x161B5, offset: 0x4C212, size: 0x8, addend: 0x0, symName: __ZN8MQTTPlus9WebSocketC1ERKS0_, symObjAddr: 0x503C, symBinAddr: 0x100033628, symSize: 0x34 }
  - { offsetInCU: 0x161EA, offset: 0x4C247, size: 0x8, addend: 0x0, symName: '__ZNSt3__18functionIFv3RefIN4MQTT7MessageEEEEC1IZZN8MQTTPlus6Broker6ListenEvENK3$_0clEPvEUlS4_E_vEET_', symObjAddr: 0x5070, symBinAddr: 0x10003365C, symSize: 0x34 }
  - { offsetInCU: 0x16230, offset: 0x4C28D, size: 0x8, addend: 0x0, symName: __ZNSt3__18functionIFv3RefIN4MQTT7MessageEEEED1Ev, symObjAddr: 0x50A4, symBinAddr: 0x100033690, symSize: 0x2C }
  - { offsetInCU: 0x16262, offset: 0x4C2BF, size: 0x8, addend: 0x0, symName: '__ZZZN8MQTTPlus6Broker6ListenEvENK3$_0clEPvENUl3RefIN4MQTT7MessageEEE_D1Ev', symObjAddr: 0x50D0, symBinAddr: 0x1000336BC, symSize: 0x2C }
  - { offsetInCU: 0x1628E, offset: 0x4C2EB, size: 0x8, addend: 0x0, symName: __ZNSt3__113unordered_mapIPv3RefIN8MQTTPlus6ClientEENS_4hashIS1_EENS_8equal_toIS1_EENS_9allocatorINS_4pairIKS1_S5_EEEEEixERSC_, symObjAddr: 0x50FC, symBinAddr: 0x1000336E8, symSize: 0x80 }
  - { offsetInCU: 0x162C5, offset: 0x4C322, size: 0x8, addend: 0x0, symName: __ZN3RefIN8MQTTPlus6ClientEEaSERKS2_, symObjAddr: 0x517C, symBinAddr: 0x100033768, symSize: 0x48 }
  - { offsetInCU: 0x162F9, offset: 0x4C356, size: 0x8, addend: 0x0, symName: __ZN8MQTTPlus6ClientC1EPNS_6BrokerEPv, symObjAddr: 0x51C4, symBinAddr: 0x1000337B0, symSize: 0x3C }
  - { offsetInCU: 0x1633F, offset: 0x4C39C, size: 0x8, addend: 0x0, symName: __ZN8MQTTPlus6ClientC2EPNS_6BrokerEPv, symObjAddr: 0x5234, symBinAddr: 0x1000337EC, symSize: 0xBC }
  - { offsetInCU: 0x16385, offset: 0x4C3E2, size: 0x8, addend: 0x0, symName: __ZN4MQTT14AuthenticationC1Ev, symObjAddr: 0x5340, symBinAddr: 0x1000338A8, symSize: 0x2C }
  - { offsetInCU: 0x163B1, offset: 0x4C40E, size: 0x8, addend: 0x0, symName: __ZNSt3__18functionIFv3RefIN4MQTT7MessageEEEEC1B8ue170006Ev, symObjAddr: 0x536C, symBinAddr: 0x1000338D4, symSize: 0x2C }
  - { offsetInCU: 0x163DB, offset: 0x4C438, size: 0x8, addend: 0x0, symName: __ZN4MQTT14AuthenticationD1Ev, symObjAddr: 0x5398, symBinAddr: 0x100033900, symSize: 0x2C }
  - { offsetInCU: 0x16407, offset: 0x4C464, size: 0x8, addend: 0x0, symName: __ZN8MQTTPlus6ClientD1Ev, symObjAddr: 0x53D8, symBinAddr: 0x10003392C, symSize: 0x2C }
  - { offsetInCU: 0x16431, offset: 0x4C48E, size: 0x8, addend: 0x0, symName: __ZN8MQTTPlus6ClientD0Ev, symObjAddr: 0x5404, symBinAddr: 0x100033958, symSize: 0x30 }
  - { offsetInCU: 0x1645B, offset: 0x4C4B8, size: 0x8, addend: 0x0, symName: __ZN4MQTT14AuthenticationC2Ev, symObjAddr: 0x56B8, symBinAddr: 0x100033988, symSize: 0x5C }
  - { offsetInCU: 0x16487, offset: 0x4C4E4, size: 0x8, addend: 0x0, symName: __ZNSt3__18functionIFv3RefIN4MQTT7MessageEEEEC2B8ue170006Ev, symObjAddr: 0x58F8, symBinAddr: 0x1000339E4, symSize: 0x2C }
  - { offsetInCU: 0x164B1, offset: 0x4C50E, size: 0x8, addend: 0x0, symName: __ZNSt3__110__function12__value_funcIFv3RefIN4MQTT7MessageEEEEC1B8ue170006Ev, symObjAddr: 0x5924, symBinAddr: 0x100033A10, symSize: 0x2C }
  - { offsetInCU: 0x164DB, offset: 0x4C538, size: 0x8, addend: 0x0, symName: __ZNSt3__110__function12__value_funcIFv3RefIN4MQTT7MessageEEEEC2B8ue170006Ev, symObjAddr: 0x5950, symBinAddr: 0x100033A3C, symSize: 0x18 }
  - { offsetInCU: 0x16505, offset: 0x4C562, size: 0x8, addend: 0x0, symName: __ZN4MQTT14AuthenticationD2Ev, symObjAddr: 0x5968, symBinAddr: 0x100033A54, symSize: 0x5C }
  - { offsetInCU: 0x16531, offset: 0x4C58E, size: 0x8, addend: 0x0, symName: __ZN8MQTTPlus6ClientD2Ev, symObjAddr: 0x59C4, symBinAddr: 0x100033AB0, symSize: 0x60 }
  - { offsetInCU: 0x1655B, offset: 0x4C5B8, size: 0x8, addend: 0x0, symName: __ZN8MQTTPlus18MQTTMessageDecoderD1Ev, symObjAddr: 0x5A24, symBinAddr: 0x100033B10, symSize: 0x2C }
  - { offsetInCU: 0x16585, offset: 0x4C5E2, size: 0x8, addend: 0x0, symName: __ZN8MQTTPlus18MQTTMessageDecoderD2Ev, symObjAddr: 0x5A50, symBinAddr: 0x100033B3C, symSize: 0x2C }
  - { offsetInCU: 0x165AF, offset: 0x4C60C, size: 0x8, addend: 0x0, symName: __ZNSt3__16vectorIhNS_9allocatorIhEEED1B8ue170006Ev, symObjAddr: 0x5A7C, symBinAddr: 0x100033B68, symSize: 0x2C }
  - { offsetInCU: 0x165D9, offset: 0x4C636, size: 0x8, addend: 0x0, symName: __ZNSt3__16vectorIhNS_9allocatorIhEEED2B8ue170006Ev, symObjAddr: 0x5AA8, symBinAddr: 0x100033B94, symSize: 0x44 }
  - { offsetInCU: 0x16603, offset: 0x4C660, size: 0x8, addend: 0x0, symName: __ZNSt3__18functionIFv3RefIN4MQTT7MessageEEEEaSERKS6_, symObjAddr: 0x6168, symBinAddr: 0x100033BD8, symSize: 0x84 }
  - { offsetInCU: 0x1663A, offset: 0x4C697, size: 0x8, addend: 0x0, symName: __ZNSt3__18functionIFv3RefIN4MQTT7MessageEEEEC1ERKS6_, symObjAddr: 0x61EC, symBinAddr: 0x100033C5C, symSize: 0x34 }
  - { offsetInCU: 0x16675, offset: 0x4C6D2, size: 0x8, addend: 0x0, symName: __ZNSt3__18functionIFv3RefIN4MQTT7MessageEEEE4swapERS6_, symObjAddr: 0x6220, symBinAddr: 0x100033C90, symSize: 0x2C }
  - { offsetInCU: 0x166AC, offset: 0x4C709, size: 0x8, addend: 0x0, symName: __ZNSt3__18functionIFv3RefIN4MQTT7MessageEEEEC2ERKS6_, symObjAddr: 0x624C, symBinAddr: 0x100033CBC, symSize: 0x34 }
  - { offsetInCU: 0x166E7, offset: 0x4C744, size: 0x8, addend: 0x0, symName: __ZNSt3__110__function12__value_funcIFv3RefIN4MQTT7MessageEEEEC1B8ue170006ERKS7_, symObjAddr: 0x6280, symBinAddr: 0x100033CF0, symSize: 0x34 }
  - { offsetInCU: 0x16720, offset: 0x4C77D, size: 0x8, addend: 0x0, symName: __ZNSt3__110__function12__value_funcIFv3RefIN4MQTT7MessageEEEEC2B8ue170006ERKS7_, symObjAddr: 0x62B4, symBinAddr: 0x100033D24, symSize: 0xC0 }
  - { offsetInCU: 0x16759, offset: 0x4C7B6, size: 0x8, addend: 0x0, symName: __ZNSt3__110__function12__value_funcIFv3RefIN4MQTT7MessageEEEE9__as_baseB8ue170006EPv, symObjAddr: 0x6374, symBinAddr: 0x100033DE4, symSize: 0x14 }
  - { offsetInCU: 0x1677D, offset: 0x4C7DA, size: 0x8, addend: 0x0, symName: __ZNSt3__110__function12__value_funcIFv3RefIN4MQTT7MessageEEEE4swapB8ue170006ERS7_, symObjAddr: 0x6388, symBinAddr: 0x100033DF8, symSize: 0x2A8 }
  - { offsetInCU: 0x167D6, offset: 0x4C833, size: 0x8, addend: 0x0, symName: __ZN8MQTTPlus9WebSocketC2ERKS0_, symObjAddr: 0x666C, symBinAddr: 0x1000340DC, symSize: 0xC8 }
  - { offsetInCU: 0x1680B, offset: 0x4C868, size: 0x8, addend: 0x0, symName: '__ZNSt3__18functionIFv3RefIN4MQTT7MessageEEEEC2IZZN8MQTTPlus6Broker6ListenEvENK3$_0clEPvEUlS4_E_vEET_', symObjAddr: 0x6734, symBinAddr: 0x1000341A4, symSize: 0x34 }
  - { offsetInCU: 0x16851, offset: 0x4C8AE, size: 0x8, addend: 0x0, symName: '__ZNSt3__110__function12__value_funcIFv3RefIN4MQTT7MessageEEEEC1B8ue170006IZZN8MQTTPlus6Broker6ListenEvENK3$_0clEPvEUlS5_E_vEEOT_', symObjAddr: 0x6768, symBinAddr: 0x1000341D8, symSize: 0x50 }
  - { offsetInCU: 0x16894, offset: 0x4C8F1, size: 0x8, addend: 0x0, symName: '__ZNSt3__19allocatorIZZN8MQTTPlus6Broker6ListenEvENK3$_0clEPvEUl3RefIN4MQTT7MessageEEE_EC1B8ue170006Ev', symObjAddr: 0x67B8, symBinAddr: 0x100034228, symSize: 0x2C }
  - { offsetInCU: 0x168BE, offset: 0x4C91B, size: 0x8, addend: 0x0, symName: '__ZNSt3__110__function12__value_funcIFv3RefIN4MQTT7MessageEEEEC1B8ue170006IZZN8MQTTPlus6Broker6ListenEvENK3$_0clEPvEUlS5_E_NS_9allocatorISD_EEEEOT_RKT0_', symObjAddr: 0x67E4, symBinAddr: 0x100034254, symSize: 0x3C }
  - { offsetInCU: 0x16918, offset: 0x4C975, size: 0x8, addend: 0x0, symName: '__ZNSt3__19allocatorIZZN8MQTTPlus6Broker6ListenEvENK3$_0clEPvEUl3RefIN4MQTT7MessageEEE_EC2B8ue170006Ev', symObjAddr: 0x6820, symBinAddr: 0x100034290, symSize: 0x2C }
  - { offsetInCU: 0x16942, offset: 0x4C99F, size: 0x8, addend: 0x0, symName: '__ZNSt3__116__non_trivial_ifILb1ENS_9allocatorIZZN8MQTTPlus6Broker6ListenEvENK3$_0clEPvEUl3RefIN4MQTT7MessageEEE_EEEC2B8ue170006Ev', symObjAddr: 0x684C, symBinAddr: 0x1000342BC, symSize: 0x14 }
  - { offsetInCU: 0x1696C, offset: 0x4C9C9, size: 0x8, addend: 0x0, symName: '__ZNSt3__110__function12__value_funcIFv3RefIN4MQTT7MessageEEEEC2B8ue170006IZZN8MQTTPlus6Broker6ListenEvENK3$_0clEPvEUlS5_E_NS_9allocatorISD_EEEEOT_RKT0_', symObjAddr: 0x6860, symBinAddr: 0x1000342D0, symSize: 0xF4 }
  - { offsetInCU: 0x16A08, offset: 0x4CA65, size: 0x8, addend: 0x0, symName: '__ZNSt3__19allocatorINS_10__function6__funcIZZN8MQTTPlus6Broker6ListenEvENK3$_0clEPvEUl3RefIN4MQTT7MessageEEE_NS0_ISB_EEFvSA_EEEEC1B8ue170006ISB_EERKNS0_IT_EE', symObjAddr: 0x696C, symBinAddr: 0x1000343DC, symSize: 0x34 }
  - { offsetInCU: 0x16A45, offset: 0x4CAA2, size: 0x8, addend: 0x0, symName: '__ZNSt3__19allocatorINS_10__function6__funcIZZN8MQTTPlus6Broker6ListenEvENK3$_0clEPvEUl3RefIN4MQTT7MessageEEE_NS0_ISB_EEFvSA_EEEE8allocateB8ue170006Em', symObjAddr: 0x69A0, symBinAddr: 0x100034410, symSize: 0x5C }
  - { offsetInCU: 0x16A8B, offset: 0x4CAE8, size: 0x8, addend: 0x0, symName: '__ZNSt3__122__allocator_destructorINS_9allocatorINS_10__function6__funcIZZN8MQTTPlus6Broker6ListenEvENK3$_0clEPvEUl3RefIN4MQTT7MessageEEE_NS1_ISC_EEFvSB_EEEEEEC1B8ue170006ERSG_m', symObjAddr: 0x69FC, symBinAddr: 0x10003446C, symSize: 0x3C }
  - { offsetInCU: 0x16B79, offset: 0x4CBD6, size: 0x8, addend: 0x0, symName: '__ZNSt3__110unique_ptrINS_10__function6__baseIFv3RefIN4MQTT7MessageEEEEENS_22__allocator_destructorINS_9allocatorINS1_6__funcIZZN8MQTTPlus6Broker6ListenEvENK3$_0clEPvEUlS6_E_NSA_ISG_EES7_EEEEEEEC1B8ue170006ILb1EvEEPSI_NS_16__dependent_typeINS_27__unique_ptr_deleter_sfinaeISK_EEXT_EE20__good_rval_ref_typeE', symObjAddr: 0x6A38, symBinAddr: 0x1000344A8, symSize: 0x3C }
  - { offsetInCU: 0x16BCA, offset: 0x4CC27, size: 0x8, addend: 0x0, symName: '__ZNKSt3__110unique_ptrINS_10__function6__baseIFv3RefIN4MQTT7MessageEEEEENS_22__allocator_destructorINS_9allocatorINS1_6__funcIZZN8MQTTPlus6Broker6ListenEvENK3$_0clEPvEUlS6_E_NSA_ISG_EES7_EEEEEEE3getB8ue170006Ev', symObjAddr: 0x6A74, symBinAddr: 0x1000344E4, symSize: 0x28 }
  - { offsetInCU: 0x16BF0, offset: 0x4CC4D, size: 0x8, addend: 0x0, symName: '__ZNSt3__110__function6__funcIZZN8MQTTPlus6Broker6ListenEvENK3$_0clEPvEUl3RefIN4MQTT7MessageEEE_NS_9allocatorISA_EEFvS9_EEC1B8ue170006EOSA_OSC_', symObjAddr: 0x6A9C, symBinAddr: 0x10003450C, symSize: 0x3C }
  - { offsetInCU: 0x16C38, offset: 0x4CC95, size: 0x8, addend: 0x0, symName: '__ZNSt3__110unique_ptrINS_10__function6__baseIFv3RefIN4MQTT7MessageEEEEENS_22__allocator_destructorINS_9allocatorINS1_6__funcIZZN8MQTTPlus6Broker6ListenEvENK3$_0clEPvEUlS6_E_NSA_ISG_EES7_EEEEEEE7releaseB8ue170006Ev', symObjAddr: 0x6AD8, symBinAddr: 0x100034548, symSize: 0x44 }
  - { offsetInCU: 0x16C6D, offset: 0x4CCCA, size: 0x8, addend: 0x0, symName: '__ZNSt3__110unique_ptrINS_10__function6__baseIFv3RefIN4MQTT7MessageEEEEENS_22__allocator_destructorINS_9allocatorINS1_6__funcIZZN8MQTTPlus6Broker6ListenEvENK3$_0clEPvEUlS6_E_NSA_ISG_EES7_EEEEEEED1B8ue170006Ev', symObjAddr: 0x6B1C, symBinAddr: 0x10003458C, symSize: 0x2C }
  - { offsetInCU: 0x16C97, offset: 0x4CCF4, size: 0x8, addend: 0x0, symName: '__ZNSt3__19allocatorINS_10__function6__funcIZZN8MQTTPlus6Broker6ListenEvENK3$_0clEPvEUl3RefIN4MQTT7MessageEEE_NS0_ISB_EEFvSA_EEEEC2B8ue170006ISB_EERKNS0_IT_EE', symObjAddr: 0x6B48, symBinAddr: 0x1000345B8, symSize: 0x30 }
  - { offsetInCU: 0x16CD4, offset: 0x4CD31, size: 0x8, addend: 0x0, symName: '__ZNSt3__116__non_trivial_ifILb1ENS_9allocatorINS_10__function6__funcIZZN8MQTTPlus6Broker6ListenEvENK3$_0clEPvEUl3RefIN4MQTT7MessageEEE_NS1_ISC_EEFvSB_EEEEEEC2B8ue170006Ev', symObjAddr: 0x6B78, symBinAddr: 0x1000345E8, symSize: 0x14 }
  - { offsetInCU: 0x16D0A, offset: 0x4CD67, size: 0x8, addend: 0x0, symName: '__ZNSt3__116allocator_traitsINS_9allocatorINS_10__function6__funcIZZN8MQTTPlus6Broker6ListenEvENK3$_0clEPvEUl3RefIN4MQTT7MessageEEE_NS1_ISC_EEFvSB_EEEEEE8max_sizeB8ue170006ISG_vvEEmRKSG_', symObjAddr: 0x6B8C, symBinAddr: 0x1000345FC, symSize: 0x28 }
  - { offsetInCU: 0x16D36, offset: 0x4CD93, size: 0x8, addend: 0x0, symName: '__ZNSt3__122__allocator_destructorINS_9allocatorINS_10__function6__funcIZZN8MQTTPlus6Broker6ListenEvENK3$_0clEPvEUl3RefIN4MQTT7MessageEEE_NS1_ISC_EEFvSB_EEEEEEC2B8ue170006ERSG_m', symObjAddr: 0x6BB4, symBinAddr: 0x100034624, symSize: 0x2C }
  - { offsetInCU: 0x16D7C, offset: 0x4CDD9, size: 0x8, addend: 0x0, symName: '__ZNSt3__110unique_ptrINS_10__function6__baseIFv3RefIN4MQTT7MessageEEEEENS_22__allocator_destructorINS_9allocatorINS1_6__funcIZZN8MQTTPlus6Broker6ListenEvENK3$_0clEPvEUlS6_E_NSA_ISG_EES7_EEEEEEEC2B8ue170006ILb1EvEEPSI_NS_16__dependent_typeINS_27__unique_ptr_deleter_sfinaeISK_EEXT_EE20__good_rval_ref_typeE', symObjAddr: 0x6BE0, symBinAddr: 0x100034650, symSize: 0x48 }
  - { offsetInCU: 0x16DCD, offset: 0x4CE2A, size: 0x8, addend: 0x0, symName: '__ZNSt3__117__compressed_pairIPNS_10__function6__funcIZZN8MQTTPlus6Broker6ListenEvENK3$_0clEPvEUl3RefIN4MQTT7MessageEEE_NS_9allocatorISB_EEFvSA_EEENS_22__allocator_destructorINSC_ISF_EEEEEC1B8ue170006IRSG_SJ_EEOT_OT0_', symObjAddr: 0x6C28, symBinAddr: 0x100034698, symSize: 0x3C }
  - { offsetInCU: 0x16E25, offset: 0x4CE82, size: 0x8, addend: 0x0, symName: '__ZNSt3__117__compressed_pairIPNS_10__function6__funcIZZN8MQTTPlus6Broker6ListenEvENK3$_0clEPvEUl3RefIN4MQTT7MessageEEE_NS_9allocatorISB_EEFvSA_EEENS_22__allocator_destructorINSC_ISF_EEEEEC2B8ue170006IRSG_SJ_EEOT_OT0_', symObjAddr: 0x6C64, symBinAddr: 0x1000346D4, symSize: 0x48 }
  - { offsetInCU: 0x16E7D, offset: 0x4CEDA, size: 0x8, addend: 0x0, symName: '__ZNSt3__122__compressed_pair_elemIPNS_10__function6__funcIZZN8MQTTPlus6Broker6ListenEvENK3$_0clEPvEUl3RefIN4MQTT7MessageEEE_NS_9allocatorISB_EEFvSA_EEELi0ELb0EEC2B8ue170006IRSG_vEEOT_', symObjAddr: 0x6CAC, symBinAddr: 0x10003471C, symSize: 0x24 }
  - { offsetInCU: 0x16EBF, offset: 0x4CF1C, size: 0x8, addend: 0x0, symName: '__ZNSt3__122__compressed_pair_elemINS_22__allocator_destructorINS_9allocatorINS_10__function6__funcIZZN8MQTTPlus6Broker6ListenEvENK3$_0clEPvEUl3RefIN4MQTT7MessageEEE_NS2_ISD_EEFvSC_EEEEEEELi1ELb0EEC2B8ue170006ISI_vEEOT_', symObjAddr: 0x6CD0, symBinAddr: 0x100034740, symSize: 0x24 }
  - { offsetInCU: 0x16F01, offset: 0x4CF5E, size: 0x8, addend: 0x0, symName: '__ZNKSt3__117__compressed_pairIPNS_10__function6__funcIZZN8MQTTPlus6Broker6ListenEvENK3$_0clEPvEUl3RefIN4MQTT7MessageEEE_NS_9allocatorISB_EEFvSA_EEENS_22__allocator_destructorINSC_ISF_EEEEE5firstB8ue170006Ev', symObjAddr: 0x6CF4, symBinAddr: 0x100034764, symSize: 0x24 }
  - { offsetInCU: 0x16F27, offset: 0x4CF84, size: 0x8, addend: 0x0, symName: '__ZNKSt3__122__compressed_pair_elemIPNS_10__function6__funcIZZN8MQTTPlus6Broker6ListenEvENK3$_0clEPvEUl3RefIN4MQTT7MessageEEE_NS_9allocatorISB_EEFvSA_EEELi0ELb0EE5__getB8ue170006Ev', symObjAddr: 0x6D18, symBinAddr: 0x100034788, symSize: 0x14 }
  - { offsetInCU: 0x16F4D, offset: 0x4CFAA, size: 0x8, addend: 0x0, symName: '__ZNSt3__110__function6__funcIZZN8MQTTPlus6Broker6ListenEvENK3$_0clEPvEUl3RefIN4MQTT7MessageEEE_NS_9allocatorISA_EEFvS9_EEC2B8ue170006EOSA_OSC_', symObjAddr: 0x6D2C, symBinAddr: 0x10003479C, symSize: 0x88 }
  - { offsetInCU: 0x16F95, offset: 0x4CFF2, size: 0x8, addend: 0x0, symName: __ZNSt3__110__function6__baseIFv3RefIN4MQTT7MessageEEEEC2B8ue170006Ev, symObjAddr: 0x6DB4, symBinAddr: 0x100034824, symSize: 0x24 }
  - { offsetInCU: 0x16FBF, offset: 0x4D01C, size: 0x8, addend: 0x0, symName: '__ZNSt3__110__function12__alloc_funcIZZN8MQTTPlus6Broker6ListenEvENK3$_0clEPvEUl3RefIN4MQTT7MessageEEE_NS_9allocatorISA_EEFvS9_EEC1B8ue170006EOSA_OSC_', symObjAddr: 0x6DD8, symBinAddr: 0x100034848, symSize: 0x3C }
  - { offsetInCU: 0x17005, offset: 0x4D062, size: 0x8, addend: 0x0, symName: __ZNSt3__110__function6__baseIFv3RefIN4MQTT7MessageEEEED2Ev, symObjAddr: 0x6E14, symBinAddr: 0x100034884, symSize: 0x14 }
  - { offsetInCU: 0x1702F, offset: 0x4D08C, size: 0x8, addend: 0x0, symName: '__ZNSt3__110__function6__funcIZZN8MQTTPlus6Broker6ListenEvENK3$_0clEPvEUl3RefIN4MQTT7MessageEEE_NS_9allocatorISA_EEFvS9_EED1Ev', symObjAddr: 0x6E28, symBinAddr: 0x100034898, symSize: 0x2C }
  - { offsetInCU: 0x1705C, offset: 0x4D0B9, size: 0x8, addend: 0x0, symName: '__ZNSt3__110__function6__funcIZZN8MQTTPlus6Broker6ListenEvENK3$_0clEPvEUl3RefIN4MQTT7MessageEEE_NS_9allocatorISA_EEFvS9_EED0Ev', symObjAddr: 0x6E54, symBinAddr: 0x1000348C4, symSize: 0x30 }
  - { offsetInCU: 0x17089, offset: 0x4D0E6, size: 0x8, addend: 0x0, symName: '__ZNKSt3__110__function6__funcIZZN8MQTTPlus6Broker6ListenEvENK3$_0clEPvEUl3RefIN4MQTT7MessageEEE_NS_9allocatorISA_EEFvS9_EE7__cloneEv', symObjAddr: 0x6E84, symBinAddr: 0x1000348F4, symSize: 0xFC }
  - { offsetInCU: 0x170DB, offset: 0x4D138, size: 0x8, addend: 0x0, symName: '__ZNKSt3__110__function6__funcIZZN8MQTTPlus6Broker6ListenEvENK3$_0clEPvEUl3RefIN4MQTT7MessageEEE_NS_9allocatorISA_EEFvS9_EE7__cloneEPNS0_6__baseISD_EE', symObjAddr: 0x6F80, symBinAddr: 0x1000349F0, symSize: 0x58 }
  - { offsetInCU: 0x17112, offset: 0x4D16F, size: 0x8, addend: 0x0, symName: '__ZNSt3__110__function6__funcIZZN8MQTTPlus6Broker6ListenEvENK3$_0clEPvEUl3RefIN4MQTT7MessageEEE_NS_9allocatorISA_EEFvS9_EE7destroyEv', symObjAddr: 0x6FD8, symBinAddr: 0x100034A48, symSize: 0x28 }
  - { offsetInCU: 0x1713A, offset: 0x4D197, size: 0x8, addend: 0x0, symName: '__ZNSt3__110__function6__funcIZZN8MQTTPlus6Broker6ListenEvENK3$_0clEPvEUl3RefIN4MQTT7MessageEEE_NS_9allocatorISA_EEFvS9_EE18destroy_deallocateEv', symObjAddr: 0x7000, symBinAddr: 0x100034A70, symSize: 0x58 }
  - { offsetInCU: 0x1717D, offset: 0x4D1DA, size: 0x8, addend: 0x0, symName: '__ZNSt3__110__function6__funcIZZN8MQTTPlus6Broker6ListenEvENK3$_0clEPvEUl3RefIN4MQTT7MessageEEE_NS_9allocatorISA_EEFvS9_EEclEOS9_', symObjAddr: 0x7058, symBinAddr: 0x100034AC8, symSize: 0x30 }
  - { offsetInCU: 0x171B4, offset: 0x4D211, size: 0x8, addend: 0x0, symName: '__ZNKSt3__110__function6__funcIZZN8MQTTPlus6Broker6ListenEvENK3$_0clEPvEUl3RefIN4MQTT7MessageEEE_NS_9allocatorISA_EEFvS9_EE6targetERKSt9type_info', symObjAddr: 0x7088, symBinAddr: 0x100034AF8, symSize: 0x60 }
  - { offsetInCU: 0x171EB, offset: 0x4D248, size: 0x8, addend: 0x0, symName: '__ZNKSt3__110__function6__funcIZZN8MQTTPlus6Broker6ListenEvENK3$_0clEPvEUl3RefIN4MQTT7MessageEEE_NS_9allocatorISA_EEFvS9_EE11target_typeEv', symObjAddr: 0x70E8, symBinAddr: 0x100034B58, symSize: 0x18 }
  - { offsetInCU: 0x17213, offset: 0x4D270, size: 0x8, addend: 0x0, symName: __ZNSt3__110__function6__baseIFv3RefIN4MQTT7MessageEEEED1Ev, symObjAddr: 0x7100, symBinAddr: 0x100034B70, symSize: 0x14 }
  - { offsetInCU: 0x1723D, offset: 0x4D29A, size: 0x8, addend: 0x0, symName: __ZNSt3__110__function6__baseIFv3RefIN4MQTT7MessageEEEED0Ev, symObjAddr: 0x7114, symBinAddr: 0x100034B84, symSize: 0xC }
  - { offsetInCU: 0x17267, offset: 0x4D2C4, size: 0x8, addend: 0x0, symName: '__ZNSt3__110__function12__alloc_funcIZZN8MQTTPlus6Broker6ListenEvENK3$_0clEPvEUl3RefIN4MQTT7MessageEEE_NS_9allocatorISA_EEFvS9_EEC2B8ue170006EOSA_OSC_', symObjAddr: 0x7120, symBinAddr: 0x100034B90, symSize: 0x5C }
  - { offsetInCU: 0x172AD, offset: 0x4D30A, size: 0x8, addend: 0x0, symName: '__ZNSt3__117__compressed_pairIZZN8MQTTPlus6Broker6ListenEvENK3$_0clEPvEUl3RefIN4MQTT7MessageEEE_NS_9allocatorIS9_EEEC1B8ue170006IJOS9_EJOSB_EEENS_21piecewise_construct_tENS_5tupleIJDpT_EEENSH_IJDpT0_EEE', symObjAddr: 0x71D4, symBinAddr: 0x100034C44, symSize: 0x3C }
  - { offsetInCU: 0x17317, offset: 0x4D374, size: 0x8, addend: 0x0, symName: '__ZNSt3__15tupleIJOZZN8MQTTPlus6Broker6ListenEvENK3$_0clEPvEUl3RefIN4MQTT7MessageEEE_EEC1B8ue170006IJS9_ELi0EEEDpOT_', symObjAddr: 0x7210, symBinAddr: 0x100034C80, symSize: 0x34 }
  - { offsetInCU: 0x17361, offset: 0x4D3BE, size: 0x8, addend: 0x0, symName: '__ZNSt3__15tupleIJOZZN8MQTTPlus6Broker6ListenEvENK3$_0clEPvEUl3RefIN4MQTT7MessageEEE_EEC2B8ue170006IJS9_ELi0EEEDpOT_', symObjAddr: 0x7244, symBinAddr: 0x100034CB4, symSize: 0x34 }
  - { offsetInCU: 0x173AB, offset: 0x4D408, size: 0x8, addend: 0x0, symName: '__ZNSt3__112__tuple_implINS_15__tuple_indicesIJLm0EEEEJOZZN8MQTTPlus6Broker6ListenEvENK3$_0clEPvEUl3RefIN4MQTT7MessageEEE_EEC1B8ue170006IJLm0EEJSC_EJEJEJSB_EEENS1_IJXspT_EEEENS_13__tuple_typesIJDpT0_EEENS1_IJXspT1_EEEENSG_IJDpT2_EEEDpOT3_', symObjAddr: 0x7278, symBinAddr: 0x100034CE8, symSize: 0x34 }
  - { offsetInCU: 0x17440, offset: 0x4D49D, size: 0x8, addend: 0x0, symName: '__ZNSt3__112__tuple_implINS_15__tuple_indicesIJLm0EEEEJOZZN8MQTTPlus6Broker6ListenEvENK3$_0clEPvEUl3RefIN4MQTT7MessageEEE_EEC2B8ue170006IJLm0EEJSC_EJEJEJSB_EEENS1_IJXspT_EEEENS_13__tuple_typesIJDpT0_EEENS1_IJXspT1_EEEENSG_IJDpT2_EEEDpOT3_', symObjAddr: 0x72AC, symBinAddr: 0x100034D1C, symSize: 0x34 }
  - { offsetInCU: 0x174D5, offset: 0x4D532, size: 0x8, addend: 0x0, symName: '__ZNSt3__112__tuple_leafILm0EOZZN8MQTTPlus6Broker6ListenEvENK3$_0clEPvEUl3RefIN4MQTT7MessageEEE_Lb0EEC2B8ue170006IS9_vEEOT_', symObjAddr: 0x72E0, symBinAddr: 0x100034D50, symSize: 0x20 }
  - { offsetInCU: 0x17518, offset: 0x4D575, size: 0x8, addend: 0x0, symName: '__ZNSt3__15tupleIJONS_9allocatorIZZN8MQTTPlus6Broker6ListenEvENK3$_0clEPvEUl3RefIN4MQTT7MessageEEE_EEEEC1B8ue170006IJSB_ELi0EEEDpOT_', symObjAddr: 0x7300, symBinAddr: 0x100034D70, symSize: 0x34 }
  - { offsetInCU: 0x17562, offset: 0x4D5BF, size: 0x8, addend: 0x0, symName: '__ZNSt3__15tupleIJONS_9allocatorIZZN8MQTTPlus6Broker6ListenEvENK3$_0clEPvEUl3RefIN4MQTT7MessageEEE_EEEEC2B8ue170006IJSB_ELi0EEEDpOT_', symObjAddr: 0x7334, symBinAddr: 0x100034DA4, symSize: 0x34 }
  - { offsetInCU: 0x175AC, offset: 0x4D609, size: 0x8, addend: 0x0, symName: '__ZNSt3__112__tuple_implINS_15__tuple_indicesIJLm0EEEEJONS_9allocatorIZZN8MQTTPlus6Broker6ListenEvENK3$_0clEPvEUl3RefIN4MQTT7MessageEEE_EEEEC1B8ue170006IJLm0EEJSE_EJEJEJSD_EEENS1_IJXspT_EEEENS_13__tuple_typesIJDpT0_EEENS1_IJXspT1_EEEENSI_IJDpT2_EEEDpOT3_', symObjAddr: 0x7368, symBinAddr: 0x100034DD8, symSize: 0x34 }
  - { offsetInCU: 0x17641, offset: 0x4D69E, size: 0x8, addend: 0x0, symName: '__ZNSt3__112__tuple_implINS_15__tuple_indicesIJLm0EEEEJONS_9allocatorIZZN8MQTTPlus6Broker6ListenEvENK3$_0clEPvEUl3RefIN4MQTT7MessageEEE_EEEEC2B8ue170006IJLm0EEJSE_EJEJEJSD_EEENS1_IJXspT_EEEENS_13__tuple_typesIJDpT0_EEENS1_IJXspT1_EEEENSI_IJDpT2_EEEDpOT3_', symObjAddr: 0x739C, symBinAddr: 0x100034E0C, symSize: 0x34 }
  - { offsetInCU: 0x176D6, offset: 0x4D733, size: 0x8, addend: 0x0, symName: '__ZNSt3__112__tuple_leafILm0EONS_9allocatorIZZN8MQTTPlus6Broker6ListenEvENK3$_0clEPvEUl3RefIN4MQTT7MessageEEE_EELb0EEC2B8ue170006ISB_vEEOT_', symObjAddr: 0x73D0, symBinAddr: 0x100034E40, symSize: 0x20 }
  - { offsetInCU: 0x17719, offset: 0x4D776, size: 0x8, addend: 0x0, symName: '__ZNSt3__117__compressed_pairIZZN8MQTTPlus6Broker6ListenEvENK3$_0clEPvEUl3RefIN4MQTT7MessageEEE_NS_9allocatorIS9_EEEC2B8ue170006IJOS9_EJOSB_EEENS_21piecewise_construct_tENS_5tupleIJDpT_EEENSH_IJDpT0_EEE', symObjAddr: 0x73F0, symBinAddr: 0x100034E60, symSize: 0x7C }
  - { offsetInCU: 0x17783, offset: 0x4D7E0, size: 0x8, addend: 0x0, symName: '__ZNSt3__122__compressed_pair_elemIZZN8MQTTPlus6Broker6ListenEvENK3$_0clEPvEUl3RefIN4MQTT7MessageEEE_Li0ELb0EEC2B8ue170006IJOS9_EJLm0EEEENS_21piecewise_construct_tENS_5tupleIJDpT_EEENS_15__tuple_indicesIJXspT0_EEEE', symObjAddr: 0x746C, symBinAddr: 0x100034EDC, symSize: 0x44 }
  - { offsetInCU: 0x177E6, offset: 0x4D843, size: 0x8, addend: 0x0, symName: '__ZNSt3__122__compressed_pair_elemINS_9allocatorIZZN8MQTTPlus6Broker6ListenEvENK3$_0clEPvEUl3RefIN4MQTT7MessageEEE_EELi1ELb1EEC2B8ue170006IJOSB_EJLm0EEEENS_21piecewise_construct_tENS_5tupleIJDpT_EEENS_15__tuple_indicesIJXspT0_EEEE', symObjAddr: 0x74B0, symBinAddr: 0x100034F20, symSize: 0x38 }
  - { offsetInCU: 0x17849, offset: 0x4D8A6, size: 0x8, addend: 0x0, symName: '__ZNSt3__122__compressed_pair_elemIZZN8MQTTPlus6Broker6ListenEvENK3$_0clEPvEUl3RefIN4MQTT7MessageEEE_Li0ELb0EED2Ev', symObjAddr: 0x74E8, symBinAddr: 0x100034F58, symSize: 0x2C }
  - { offsetInCU: 0x17875, offset: 0x4D8D2, size: 0x8, addend: 0x0, symName: '__ZZZN8MQTTPlus6Broker6ListenEvENK3$_0clEPvENUl3RefIN4MQTT7MessageEEE_C1EOS7_', symObjAddr: 0x7538, symBinAddr: 0x100034FA8, symSize: 0x34 }
  - { offsetInCU: 0x178AA, offset: 0x4D907, size: 0x8, addend: 0x0, symName: '__ZNSt3__112__tuple_leafILm0EOZZN8MQTTPlus6Broker6ListenEvENK3$_0clEPvEUl3RefIN4MQTT7MessageEEE_Lb0EE3getB8ue170006Ev', symObjAddr: 0x756C, symBinAddr: 0x100034FDC, symSize: 0x18 }
  - { offsetInCU: 0x178D0, offset: 0x4D92D, size: 0x8, addend: 0x0, symName: '__ZZZN8MQTTPlus6Broker6ListenEvENK3$_0clEPvENUl3RefIN4MQTT7MessageEEE_C2EOS7_', symObjAddr: 0x7584, symBinAddr: 0x100034FF4, symSize: 0x40 }
  - { offsetInCU: 0x17905, offset: 0x4D962, size: 0x8, addend: 0x0, symName: __ZN8MQTTPlus9WebSocketC1EOS0_, symObjAddr: 0x75C4, symBinAddr: 0x100035034, symSize: 0x34 }
  - { offsetInCU: 0x1793A, offset: 0x4D997, size: 0x8, addend: 0x0, symName: __ZN8MQTTPlus9WebSocketC2EOS0_, symObjAddr: 0x75F8, symBinAddr: 0x100035068, symSize: 0x78 }
  - { offsetInCU: 0x1796F, offset: 0x4D9CC, size: 0x8, addend: 0x0, symName: __ZNSt3__18functionIFvPvEEC1EOS3_, symObjAddr: 0x7670, symBinAddr: 0x1000350E0, symSize: 0x34 }
  - { offsetInCU: 0x179AA, offset: 0x4DA07, size: 0x8, addend: 0x0, symName: __ZNSt3__18functionIFvPviEEC1EOS3_, symObjAddr: 0x76A4, symBinAddr: 0x100035114, symSize: 0x34 }
  - { offsetInCU: 0x179E5, offset: 0x4DA42, size: 0x8, addend: 0x0, symName: __ZNSt3__18functionIFvPvPciEEC1EOS4_, symObjAddr: 0x76D8, symBinAddr: 0x100035148, symSize: 0x34 }
  - { offsetInCU: 0x17A20, offset: 0x4DA7D, size: 0x8, addend: 0x0, symName: __ZNSt3__18functionIFvPvEEC2EOS3_, symObjAddr: 0x770C, symBinAddr: 0x10003517C, symSize: 0x34 }
  - { offsetInCU: 0x17A5B, offset: 0x4DAB8, size: 0x8, addend: 0x0, symName: __ZNSt3__110__function12__value_funcIFvPvEEC1B8ue170006EOS4_, symObjAddr: 0x7740, symBinAddr: 0x1000351B0, symSize: 0x34 }
  - { offsetInCU: 0x17A94, offset: 0x4DAF1, size: 0x8, addend: 0x0, symName: __ZNSt3__110__function12__value_funcIFvPvEEC2B8ue170006EOS4_, symObjAddr: 0x7774, symBinAddr: 0x1000351E4, symSize: 0xC4 }
  - { offsetInCU: 0x17ACD, offset: 0x4DB2A, size: 0x8, addend: 0x0, symName: __ZNSt3__18functionIFvPviEEC2EOS3_, symObjAddr: 0x7838, symBinAddr: 0x1000352A8, symSize: 0x34 }
  - { offsetInCU: 0x17B08, offset: 0x4DB65, size: 0x8, addend: 0x0, symName: __ZNSt3__110__function12__value_funcIFvPviEEC1B8ue170006EOS4_, symObjAddr: 0x786C, symBinAddr: 0x1000352DC, symSize: 0x34 }
  - { offsetInCU: 0x17B41, offset: 0x4DB9E, size: 0x8, addend: 0x0, symName: __ZNSt3__110__function12__value_funcIFvPviEEC2B8ue170006EOS4_, symObjAddr: 0x78A0, symBinAddr: 0x100035310, symSize: 0xC4 }
  - { offsetInCU: 0x17B7A, offset: 0x4DBD7, size: 0x8, addend: 0x0, symName: __ZNSt3__18functionIFvPvPciEEC2EOS4_, symObjAddr: 0x7964, symBinAddr: 0x1000353D4, symSize: 0x34 }
  - { offsetInCU: 0x17BB5, offset: 0x4DC12, size: 0x8, addend: 0x0, symName: __ZNSt3__110__function12__value_funcIFvPvPciEEC1B8ue170006EOS5_, symObjAddr: 0x7998, symBinAddr: 0x100035408, symSize: 0x34 }
  - { offsetInCU: 0x17BEE, offset: 0x4DC4B, size: 0x8, addend: 0x0, symName: __ZNSt3__110__function12__value_funcIFvPvPciEEC2B8ue170006EOS5_, symObjAddr: 0x79CC, symBinAddr: 0x10003543C, symSize: 0xC4 }
  - { offsetInCU: 0x17C27, offset: 0x4DC84, size: 0x8, addend: 0x0, symName: '__ZNSt3__112__tuple_leafILm0EONS_9allocatorIZZN8MQTTPlus6Broker6ListenEvENK3$_0clEPvEUl3RefIN4MQTT7MessageEEE_EELb0EE3getB8ue170006Ev', symObjAddr: 0x7AB4, symBinAddr: 0x100035524, symSize: 0x18 }
  - { offsetInCU: 0x17C4D, offset: 0x4DCAA, size: 0x8, addend: 0x0, symName: '__ZNSt3__110__function6__funcIZZN8MQTTPlus6Broker6ListenEvENK3$_0clEPvEUl3RefIN4MQTT7MessageEEE_NS_9allocatorISA_EEFvS9_EED2Ev', symObjAddr: 0x7ACC, symBinAddr: 0x10003553C, symSize: 0x48 }
  - { offsetInCU: 0x17C7A, offset: 0x4DCD7, size: 0x8, addend: 0x0, symName: '__ZNSt3__110__function12__alloc_funcIZZN8MQTTPlus6Broker6ListenEvENK3$_0clEPvEUl3RefIN4MQTT7MessageEEE_NS_9allocatorISA_EEFvS9_EED1Ev', symObjAddr: 0x7B14, symBinAddr: 0x100035584, symSize: 0x2C }
  - { offsetInCU: 0x17CA6, offset: 0x4DD03, size: 0x8, addend: 0x0, symName: '__ZNSt3__110__function12__alloc_funcIZZN8MQTTPlus6Broker6ListenEvENK3$_0clEPvEUl3RefIN4MQTT7MessageEEE_NS_9allocatorISA_EEFvS9_EED2Ev', symObjAddr: 0x7B40, symBinAddr: 0x1000355B0, symSize: 0x2C }
  - { offsetInCU: 0x17CD2, offset: 0x4DD2F, size: 0x8, addend: 0x0, symName: '__ZNSt3__117__compressed_pairIZZN8MQTTPlus6Broker6ListenEvENK3$_0clEPvEUl3RefIN4MQTT7MessageEEE_NS_9allocatorIS9_EEED1Ev', symObjAddr: 0x7B6C, symBinAddr: 0x1000355DC, symSize: 0x2C }
  - { offsetInCU: 0x17CFE, offset: 0x4DD5B, size: 0x8, addend: 0x0, symName: '__ZNSt3__117__compressed_pairIZZN8MQTTPlus6Broker6ListenEvENK3$_0clEPvEUl3RefIN4MQTT7MessageEEE_NS_9allocatorIS9_EEED2Ev', symObjAddr: 0x7B98, symBinAddr: 0x100035608, symSize: 0x2C }
  - { offsetInCU: 0x17D2A, offset: 0x4DD87, size: 0x8, addend: 0x0, symName: '__ZNKSt3__110__function12__alloc_funcIZZN8MQTTPlus6Broker6ListenEvENK3$_0clEPvEUl3RefIN4MQTT7MessageEEE_NS_9allocatorISA_EEFvS9_EE15__get_allocatorB8ue170006Ev', symObjAddr: 0x7BC4, symBinAddr: 0x100035634, symSize: 0x24 }
  - { offsetInCU: 0x17D86, offset: 0x4DDE3, size: 0x8, addend: 0x0, symName: '__ZNSt3__110unique_ptrINS_10__function6__funcIZZN8MQTTPlus6Broker6ListenEvENK3$_0clEPvEUl3RefIN4MQTT7MessageEEE_NS_9allocatorISB_EEFvSA_EEENS_22__allocator_destructorINSC_ISF_EEEEEC1B8ue170006ILb1EvEEPSF_NS_16__dependent_typeINS_27__unique_ptr_deleter_sfinaeISI_EEXT_EE20__good_rval_ref_typeE', symObjAddr: 0x7BE8, symBinAddr: 0x100035658, symSize: 0x3C }
  - { offsetInCU: 0x17DD7, offset: 0x4DE34, size: 0x8, addend: 0x0, symName: '__ZNKSt3__110unique_ptrINS_10__function6__funcIZZN8MQTTPlus6Broker6ListenEvENK3$_0clEPvEUl3RefIN4MQTT7MessageEEE_NS_9allocatorISB_EEFvSA_EEENS_22__allocator_destructorINSC_ISF_EEEEE3getB8ue170006Ev', symObjAddr: 0x7C24, symBinAddr: 0x100035694, symSize: 0x28 }
  - { offsetInCU: 0x17DFD, offset: 0x4DE5A, size: 0x8, addend: 0x0, symName: '__ZNKSt3__110__function12__alloc_funcIZZN8MQTTPlus6Broker6ListenEvENK3$_0clEPvEUl3RefIN4MQTT7MessageEEE_NS_9allocatorISA_EEFvS9_EE8__targetB8ue170006Ev', symObjAddr: 0x7C4C, symBinAddr: 0x1000356BC, symSize: 0x24 }
  - { offsetInCU: 0x17E2F, offset: 0x4DE8C, size: 0x8, addend: 0x0, symName: '__ZNSt3__19allocatorIZZN8MQTTPlus6Broker6ListenEvENK3$_0clEPvEUl3RefIN4MQTT7MessageEEE_EC1B8ue170006INS_10__function6__funcIS9_SA_FvS8_EEEEERKNS0_IT_EE', symObjAddr: 0x7C70, symBinAddr: 0x1000356E0, symSize: 0x34 }
  - { offsetInCU: 0x17E6C, offset: 0x4DEC9, size: 0x8, addend: 0x0, symName: '__ZNSt3__110__function6__funcIZZN8MQTTPlus6Broker6ListenEvENK3$_0clEPvEUl3RefIN4MQTT7MessageEEE_NS_9allocatorISA_EEFvS9_EEC1B8ue170006ERKSA_OSC_', symObjAddr: 0x7CA4, symBinAddr: 0x100035714, symSize: 0x3C }
  - { offsetInCU: 0x17EB4, offset: 0x4DF11, size: 0x8, addend: 0x0, symName: '__ZNSt3__110unique_ptrINS_10__function6__funcIZZN8MQTTPlus6Broker6ListenEvENK3$_0clEPvEUl3RefIN4MQTT7MessageEEE_NS_9allocatorISB_EEFvSA_EEENS_22__allocator_destructorINSC_ISF_EEEEE7releaseB8ue170006Ev', symObjAddr: 0x7CE0, symBinAddr: 0x100035750, symSize: 0x44 }
  - { offsetInCU: 0x17EE9, offset: 0x4DF46, size: 0x8, addend: 0x0, symName: '__ZNSt3__110unique_ptrINS_10__function6__funcIZZN8MQTTPlus6Broker6ListenEvENK3$_0clEPvEUl3RefIN4MQTT7MessageEEE_NS_9allocatorISB_EEFvSA_EEENS_22__allocator_destructorINSC_ISF_EEEEED1B8ue170006Ev', symObjAddr: 0x7D24, symBinAddr: 0x100035794, symSize: 0x2C }
  - { offsetInCU: 0x17F13, offset: 0x4DF70, size: 0x8, addend: 0x0, symName: '__ZNKSt3__117__compressed_pairIZZN8MQTTPlus6Broker6ListenEvENK3$_0clEPvEUl3RefIN4MQTT7MessageEEE_NS_9allocatorIS9_EEE6secondB8ue170006Ev', symObjAddr: 0x7D50, symBinAddr: 0x1000357C0, symSize: 0x24 }
  - { offsetInCU: 0x17F39, offset: 0x4DF96, size: 0x8, addend: 0x0, symName: '__ZNKSt3__122__compressed_pair_elemINS_9allocatorIZZN8MQTTPlus6Broker6ListenEvENK3$_0clEPvEUl3RefIN4MQTT7MessageEEE_EELi1ELb1EE5__getB8ue170006Ev', symObjAddr: 0x7D74, symBinAddr: 0x1000357E4, symSize: 0x14 }
  - { offsetInCU: 0x17F5F, offset: 0x4DFBC, size: 0x8, addend: 0x0, symName: '__ZNSt3__110unique_ptrINS_10__function6__funcIZZN8MQTTPlus6Broker6ListenEvENK3$_0clEPvEUl3RefIN4MQTT7MessageEEE_NS_9allocatorISB_EEFvSA_EEENS_22__allocator_destructorINSC_ISF_EEEEEC2B8ue170006ILb1EvEEPSF_NS_16__dependent_typeINS_27__unique_ptr_deleter_sfinaeISI_EEXT_EE20__good_rval_ref_typeE', symObjAddr: 0x7D88, symBinAddr: 0x1000357F8, symSize: 0x48 }
  - { offsetInCU: 0x17FB0, offset: 0x4E00D, size: 0x8, addend: 0x0, symName: '__ZNKSt3__117__compressed_pairIZZN8MQTTPlus6Broker6ListenEvENK3$_0clEPvEUl3RefIN4MQTT7MessageEEE_NS_9allocatorIS9_EEE5firstB8ue170006Ev', symObjAddr: 0x7DD0, symBinAddr: 0x100035840, symSize: 0x24 }
  - { offsetInCU: 0x17FD6, offset: 0x4E033, size: 0x8, addend: 0x0, symName: '__ZNKSt3__122__compressed_pair_elemIZZN8MQTTPlus6Broker6ListenEvENK3$_0clEPvEUl3RefIN4MQTT7MessageEEE_Li0ELb0EE5__getB8ue170006Ev', symObjAddr: 0x7DF4, symBinAddr: 0x100035864, symSize: 0x14 }
  - { offsetInCU: 0x17FFC, offset: 0x4E059, size: 0x8, addend: 0x0, symName: '__ZNSt3__19allocatorIZZN8MQTTPlus6Broker6ListenEvENK3$_0clEPvEUl3RefIN4MQTT7MessageEEE_EC2B8ue170006INS_10__function6__funcIS9_SA_FvS8_EEEEERKNS0_IT_EE', symObjAddr: 0x7E08, symBinAddr: 0x100035878, symSize: 0x30 }
  - { offsetInCU: 0x18039, offset: 0x4E096, size: 0x8, addend: 0x0, symName: '__ZNSt3__110__function6__funcIZZN8MQTTPlus6Broker6ListenEvENK3$_0clEPvEUl3RefIN4MQTT7MessageEEE_NS_9allocatorISA_EEFvS9_EEC2B8ue170006ERKSA_OSC_', symObjAddr: 0x7E38, symBinAddr: 0x1000358A8, symSize: 0x88 }
  - { offsetInCU: 0x18081, offset: 0x4E0DE, size: 0x8, addend: 0x0, symName: '__ZNSt3__110__function12__alloc_funcIZZN8MQTTPlus6Broker6ListenEvENK3$_0clEPvEUl3RefIN4MQTT7MessageEEE_NS_9allocatorISA_EEFvS9_EEC1B8ue170006ERKSA_OSC_', symObjAddr: 0x7EC0, symBinAddr: 0x100035930, symSize: 0x3C }
  - { offsetInCU: 0x180C7, offset: 0x4E124, size: 0x8, addend: 0x0, symName: '__ZNSt3__110__function12__alloc_funcIZZN8MQTTPlus6Broker6ListenEvENK3$_0clEPvEUl3RefIN4MQTT7MessageEEE_NS_9allocatorISA_EEFvS9_EEC2B8ue170006ERKSA_OSC_', symObjAddr: 0x7EFC, symBinAddr: 0x10003596C, symSize: 0x5C }
  - { offsetInCU: 0x1810D, offset: 0x4E16A, size: 0x8, addend: 0x0, symName: '__ZNSt3__117__compressed_pairIZZN8MQTTPlus6Broker6ListenEvENK3$_0clEPvEUl3RefIN4MQTT7MessageEEE_NS_9allocatorIS9_EEEC1B8ue170006IJRKS9_EJOSB_EEENS_21piecewise_construct_tENS_5tupleIJDpT_EEENSI_IJDpT0_EEE', symObjAddr: 0x7F84, symBinAddr: 0x1000359F4, symSize: 0x3C }
  - { offsetInCU: 0x18177, offset: 0x4E1D4, size: 0x8, addend: 0x0, symName: '__ZNSt3__15tupleIJRKZZN8MQTTPlus6Broker6ListenEvENK3$_0clEPvEUl3RefIN4MQTT7MessageEEE_EEC1B8ue170006INS_4_AndELi0EEESB_', symObjAddr: 0x7FC0, symBinAddr: 0x100035A30, symSize: 0x34 }
  - { offsetInCU: 0x181BF, offset: 0x4E21C, size: 0x8, addend: 0x0, symName: '__ZNSt3__15tupleIJRKZZN8MQTTPlus6Broker6ListenEvENK3$_0clEPvEUl3RefIN4MQTT7MessageEEE_EEC2B8ue170006INS_4_AndELi0EEESB_', symObjAddr: 0x7FF4, symBinAddr: 0x100035A64, symSize: 0x34 }
  - { offsetInCU: 0x18207, offset: 0x4E264, size: 0x8, addend: 0x0, symName: '__ZNSt3__112__tuple_implINS_15__tuple_indicesIJLm0EEEEJRKZZN8MQTTPlus6Broker6ListenEvENK3$_0clEPvEUl3RefIN4MQTT7MessageEEE_EEC1B8ue170006IJLm0EEJSD_EJEJEJSD_EEENS1_IJXspT_EEEENS_13__tuple_typesIJDpT0_EEENS1_IJXspT1_EEEENSH_IJDpT2_EEEDpOT3_', symObjAddr: 0x8028, symBinAddr: 0x100035A98, symSize: 0x34 }
  - { offsetInCU: 0x1829C, offset: 0x4E2F9, size: 0x8, addend: 0x0, symName: '__ZNSt3__112__tuple_implINS_15__tuple_indicesIJLm0EEEEJRKZZN8MQTTPlus6Broker6ListenEvENK3$_0clEPvEUl3RefIN4MQTT7MessageEEE_EEC2B8ue170006IJLm0EEJSD_EJEJEJSD_EEENS1_IJXspT_EEEENS_13__tuple_typesIJDpT0_EEENS1_IJXspT1_EEEENSH_IJDpT2_EEEDpOT3_', symObjAddr: 0x805C, symBinAddr: 0x100035ACC, symSize: 0x34 }
  - { offsetInCU: 0x18331, offset: 0x4E38E, size: 0x8, addend: 0x0, symName: '__ZNSt3__112__tuple_leafILm0ERKZZN8MQTTPlus6Broker6ListenEvENK3$_0clEPvEUl3RefIN4MQTT7MessageEEE_Lb0EEC2B8ue170006ISB_vEEOT_', symObjAddr: 0x8090, symBinAddr: 0x100035B00, symSize: 0x20 }
  - { offsetInCU: 0x18374, offset: 0x4E3D1, size: 0x8, addend: 0x0, symName: '__ZNSt3__117__compressed_pairIZZN8MQTTPlus6Broker6ListenEvENK3$_0clEPvEUl3RefIN4MQTT7MessageEEE_NS_9allocatorIS9_EEEC2B8ue170006IJRKS9_EJOSB_EEENS_21piecewise_construct_tENS_5tupleIJDpT_EEENSI_IJDpT0_EEE', symObjAddr: 0x80B0, symBinAddr: 0x100035B20, symSize: 0x54 }
  - { offsetInCU: 0x183DE, offset: 0x4E43B, size: 0x8, addend: 0x0, symName: '__ZNSt3__122__compressed_pair_elemIZZN8MQTTPlus6Broker6ListenEvENK3$_0clEPvEUl3RefIN4MQTT7MessageEEE_Li0ELb0EEC2B8ue170006IJRKS9_EJLm0EEEENS_21piecewise_construct_tENS_5tupleIJDpT_EEENS_15__tuple_indicesIJXspT0_EEEE', symObjAddr: 0x8104, symBinAddr: 0x100035B74, symSize: 0x44 }
  - { offsetInCU: 0x18441, offset: 0x4E49E, size: 0x8, addend: 0x0, symName: '__ZZZN8MQTTPlus6Broker6ListenEvENK3$_0clEPvENUl3RefIN4MQTT7MessageEEE_C1ERKS7_', symObjAddr: 0x816C, symBinAddr: 0x100035BDC, symSize: 0x34 }
  - { offsetInCU: 0x18476, offset: 0x4E4D3, size: 0x8, addend: 0x0, symName: '__ZNSt3__112__tuple_leafILm0ERKZZN8MQTTPlus6Broker6ListenEvENK3$_0clEPvEUl3RefIN4MQTT7MessageEEE_Lb0EE3getB8ue170006Ev', symObjAddr: 0x81A0, symBinAddr: 0x100035C10, symSize: 0x18 }
  - { offsetInCU: 0x1849C, offset: 0x4E4F9, size: 0x8, addend: 0x0, symName: '__ZZZN8MQTTPlus6Broker6ListenEvENK3$_0clEPvENUl3RefIN4MQTT7MessageEEE_C2ERKS7_', symObjAddr: 0x81B8, symBinAddr: 0x100035C28, symSize: 0x40 }
  - { offsetInCU: 0x184D1, offset: 0x4E52E, size: 0x8, addend: 0x0, symName: '__ZNSt3__117__compressed_pairIPNS_10__function6__funcIZZN8MQTTPlus6Broker6ListenEvENK3$_0clEPvEUl3RefIN4MQTT7MessageEEE_NS_9allocatorISB_EEFvSA_EEENS_22__allocator_destructorINSC_ISF_EEEEE5firstB8ue170006Ev', symObjAddr: 0x81F8, symBinAddr: 0x100035C68, symSize: 0x24 }
  - { offsetInCU: 0x184F7, offset: 0x4E554, size: 0x8, addend: 0x0, symName: '__ZNSt3__122__compressed_pair_elemIPNS_10__function6__funcIZZN8MQTTPlus6Broker6ListenEvENK3$_0clEPvEUl3RefIN4MQTT7MessageEEE_NS_9allocatorISB_EEFvSA_EEELi0ELb0EE5__getB8ue170006Ev', symObjAddr: 0x821C, symBinAddr: 0x100035C8C, symSize: 0x14 }
  - { offsetInCU: 0x1851D, offset: 0x4E57A, size: 0x8, addend: 0x0, symName: '__ZNSt3__110unique_ptrINS_10__function6__funcIZZN8MQTTPlus6Broker6ListenEvENK3$_0clEPvEUl3RefIN4MQTT7MessageEEE_NS_9allocatorISB_EEFvSA_EEENS_22__allocator_destructorINSC_ISF_EEEEED2B8ue170006Ev', symObjAddr: 0x8230, symBinAddr: 0x100035CA0, symSize: 0x30 }
  - { offsetInCU: 0x18547, offset: 0x4E5A4, size: 0x8, addend: 0x0, symName: '__ZNSt3__110unique_ptrINS_10__function6__funcIZZN8MQTTPlus6Broker6ListenEvENK3$_0clEPvEUl3RefIN4MQTT7MessageEEE_NS_9allocatorISB_EEFvSA_EEENS_22__allocator_destructorINSC_ISF_EEEEE5resetB8ue170006EPSF_', symObjAddr: 0x8260, symBinAddr: 0x100035CD0, symSize: 0x78 }
  - { offsetInCU: 0x1858B, offset: 0x4E5E8, size: 0x8, addend: 0x0, symName: '__ZNSt3__117__compressed_pairIPNS_10__function6__funcIZZN8MQTTPlus6Broker6ListenEvENK3$_0clEPvEUl3RefIN4MQTT7MessageEEE_NS_9allocatorISB_EEFvSA_EEENS_22__allocator_destructorINSC_ISF_EEEEE6secondB8ue170006Ev', symObjAddr: 0x82D8, symBinAddr: 0x100035D48, symSize: 0x28 }
  - { offsetInCU: 0x185B1, offset: 0x4E60E, size: 0x8, addend: 0x0, symName: '__ZNSt3__122__allocator_destructorINS_9allocatorINS_10__function6__funcIZZN8MQTTPlus6Broker6ListenEvENK3$_0clEPvEUl3RefIN4MQTT7MessageEEE_NS1_ISC_EEFvSB_EEEEEEclB8ue170006EPSF_', symObjAddr: 0x8300, symBinAddr: 0x100035D70, symSize: 0x34 }
  - { offsetInCU: 0x185E5, offset: 0x4E642, size: 0x8, addend: 0x0, symName: '__ZNSt3__122__compressed_pair_elemINS_22__allocator_destructorINS_9allocatorINS_10__function6__funcIZZN8MQTTPlus6Broker6ListenEvENK3$_0clEPvEUl3RefIN4MQTT7MessageEEE_NS2_ISD_EEFvSC_EEEEEEELi1ELb0EE5__getB8ue170006Ev', symObjAddr: 0x8334, symBinAddr: 0x100035DA4, symSize: 0x14 }
  - { offsetInCU: 0x1860B, offset: 0x4E668, size: 0x8, addend: 0x0, symName: '__ZNSt3__116allocator_traitsINS_9allocatorINS_10__function6__funcIZZN8MQTTPlus6Broker6ListenEvENK3$_0clEPvEUl3RefIN4MQTT7MessageEEE_NS1_ISC_EEFvSB_EEEEEE10deallocateB8ue170006ERSG_PSF_m', symObjAddr: 0x8348, symBinAddr: 0x100035DB8, symSize: 0x34 }
  - { offsetInCU: 0x1864D, offset: 0x4E6AA, size: 0x8, addend: 0x0, symName: '__ZNSt3__19allocatorINS_10__function6__funcIZZN8MQTTPlus6Broker6ListenEvENK3$_0clEPvEUl3RefIN4MQTT7MessageEEE_NS0_ISB_EEFvSA_EEEE10deallocateB8ue170006EPSE_m', symObjAddr: 0x837C, symBinAddr: 0x100035DEC, symSize: 0x44 }
  - { offsetInCU: 0x1868F, offset: 0x4E6EC, size: 0x8, addend: 0x0, symName: '__ZNSt3__110__function6__funcIZZN8MQTTPlus6Broker6ListenEvENK3$_0clEPvEUl3RefIN4MQTT7MessageEEE_NS_9allocatorISA_EEFvS9_EEC1B8ue170006ERKSA_RKSC_', symObjAddr: 0x83C0, symBinAddr: 0x100035E30, symSize: 0x3C }
  - { offsetInCU: 0x186D7, offset: 0x4E734, size: 0x8, addend: 0x0, symName: '__ZNSt3__110__function6__funcIZZN8MQTTPlus6Broker6ListenEvENK3$_0clEPvEUl3RefIN4MQTT7MessageEEE_NS_9allocatorISA_EEFvS9_EEC2B8ue170006ERKSA_RKSC_', symObjAddr: 0x83FC, symBinAddr: 0x100035E6C, symSize: 0x88 }
  - { offsetInCU: 0x1871F, offset: 0x4E77C, size: 0x8, addend: 0x0, symName: '__ZNSt3__110__function12__alloc_funcIZZN8MQTTPlus6Broker6ListenEvENK3$_0clEPvEUl3RefIN4MQTT7MessageEEE_NS_9allocatorISA_EEFvS9_EEC1B8ue170006ERKSA_RKSC_', symObjAddr: 0x8484, symBinAddr: 0x100035EF4, symSize: 0x3C }
  - { offsetInCU: 0x18765, offset: 0x4E7C2, size: 0x8, addend: 0x0, symName: '__ZNSt3__110__function12__alloc_funcIZZN8MQTTPlus6Broker6ListenEvENK3$_0clEPvEUl3RefIN4MQTT7MessageEEE_NS_9allocatorISA_EEFvS9_EEC2B8ue170006ERKSA_RKSC_', symObjAddr: 0x84C0, symBinAddr: 0x100035F30, symSize: 0x5C }
  - { offsetInCU: 0x187AB, offset: 0x4E808, size: 0x8, addend: 0x0, symName: '__ZNSt3__117__compressed_pairIZZN8MQTTPlus6Broker6ListenEvENK3$_0clEPvEUl3RefIN4MQTT7MessageEEE_NS_9allocatorIS9_EEEC1B8ue170006IJRKS9_EJRKSB_EEENS_21piecewise_construct_tENS_5tupleIJDpT_EEENSJ_IJDpT0_EEE', symObjAddr: 0x8548, symBinAddr: 0x100035FB8, symSize: 0x3C }
  - { offsetInCU: 0x18815, offset: 0x4E872, size: 0x8, addend: 0x0, symName: '__ZNSt3__15tupleIJRKNS_9allocatorIZZN8MQTTPlus6Broker6ListenEvENK3$_0clEPvEUl3RefIN4MQTT7MessageEEE_EEEEC1B8ue170006INS_4_AndELi0EEESD_', symObjAddr: 0x8584, symBinAddr: 0x100035FF4, symSize: 0x34 }
  - { offsetInCU: 0x1885D, offset: 0x4E8BA, size: 0x8, addend: 0x0, symName: '__ZNSt3__15tupleIJRKNS_9allocatorIZZN8MQTTPlus6Broker6ListenEvENK3$_0clEPvEUl3RefIN4MQTT7MessageEEE_EEEEC2B8ue170006INS_4_AndELi0EEESD_', symObjAddr: 0x85B8, symBinAddr: 0x100036028, symSize: 0x34 }
  - { offsetInCU: 0x188A5, offset: 0x4E902, size: 0x8, addend: 0x0, symName: '__ZNSt3__112__tuple_implINS_15__tuple_indicesIJLm0EEEEJRKNS_9allocatorIZZN8MQTTPlus6Broker6ListenEvENK3$_0clEPvEUl3RefIN4MQTT7MessageEEE_EEEEC1B8ue170006IJLm0EEJSF_EJEJEJSF_EEENS1_IJXspT_EEEENS_13__tuple_typesIJDpT0_EEENS1_IJXspT1_EEEENSJ_IJDpT2_EEEDpOT3_', symObjAddr: 0x85EC, symBinAddr: 0x10003605C, symSize: 0x34 }
  - { offsetInCU: 0x1893A, offset: 0x4E997, size: 0x8, addend: 0x0, symName: '__ZNSt3__112__tuple_implINS_15__tuple_indicesIJLm0EEEEJRKNS_9allocatorIZZN8MQTTPlus6Broker6ListenEvENK3$_0clEPvEUl3RefIN4MQTT7MessageEEE_EEEEC2B8ue170006IJLm0EEJSF_EJEJEJSF_EEENS1_IJXspT_EEEENS_13__tuple_typesIJDpT0_EEENS1_IJXspT1_EEEENSJ_IJDpT2_EEEDpOT3_', symObjAddr: 0x8620, symBinAddr: 0x100036090, symSize: 0x34 }
  - { offsetInCU: 0x189CF, offset: 0x4EA2C, size: 0x8, addend: 0x0, symName: '__ZNSt3__112__tuple_leafILm0ERKNS_9allocatorIZZN8MQTTPlus6Broker6ListenEvENK3$_0clEPvEUl3RefIN4MQTT7MessageEEE_EELb0EEC2B8ue170006ISD_vEEOT_', symObjAddr: 0x8654, symBinAddr: 0x1000360C4, symSize: 0x20 }
  - { offsetInCU: 0x18A12, offset: 0x4EA6F, size: 0x8, addend: 0x0, symName: '__ZNSt3__117__compressed_pairIZZN8MQTTPlus6Broker6ListenEvENK3$_0clEPvEUl3RefIN4MQTT7MessageEEE_NS_9allocatorIS9_EEEC2B8ue170006IJRKS9_EJRKSB_EEENS_21piecewise_construct_tENS_5tupleIJDpT_EEENSJ_IJDpT0_EEE', symObjAddr: 0x8674, symBinAddr: 0x1000360E4, symSize: 0x7C }
  - { offsetInCU: 0x18A7C, offset: 0x4EAD9, size: 0x8, addend: 0x0, symName: '__ZNSt3__122__compressed_pair_elemINS_9allocatorIZZN8MQTTPlus6Broker6ListenEvENK3$_0clEPvEUl3RefIN4MQTT7MessageEEE_EELi1ELb1EEC2B8ue170006IJRKSB_EJLm0EEEENS_21piecewise_construct_tENS_5tupleIJDpT_EEENS_15__tuple_indicesIJXspT0_EEEE', symObjAddr: 0x86F0, symBinAddr: 0x100036160, symSize: 0x38 }
  - { offsetInCU: 0x18ADF, offset: 0x4EB3C, size: 0x8, addend: 0x0, symName: '__ZNSt3__112__tuple_leafILm0ERKNS_9allocatorIZZN8MQTTPlus6Broker6ListenEvENK3$_0clEPvEUl3RefIN4MQTT7MessageEEE_EELb0EE3getB8ue170006Ev', symObjAddr: 0x874C, symBinAddr: 0x1000361BC, symSize: 0x18 }
  - { offsetInCU: 0x18B05, offset: 0x4EB62, size: 0x8, addend: 0x0, symName: '__ZNSt3__110__function12__alloc_funcIZZN8MQTTPlus6Broker6ListenEvENK3$_0clEPvEUl3RefIN4MQTT7MessageEEE_NS_9allocatorISA_EEFvS9_EE7destroyB8ue170006Ev', symObjAddr: 0x8764, symBinAddr: 0x1000361D4, symSize: 0x24 }
  - { offsetInCU: 0x18B2B, offset: 0x4EB88, size: 0x8, addend: 0x0, symName: '__ZNSt3__110__function12__alloc_funcIZZN8MQTTPlus6Broker6ListenEvENK3$_0clEPvEUl3RefIN4MQTT7MessageEEE_NS_9allocatorISA_EEFvS9_EEclB8ue170006EOS9_', symObjAddr: 0x8788, symBinAddr: 0x1000361F8, symSize: 0x30 }
  - { offsetInCU: 0x18B5F, offset: 0x4EBBC, size: 0x8, addend: 0x0, symName: '__ZNSt3__128__invoke_void_return_wrapperIvLb1EE6__callB8ue170006IJRZZN8MQTTPlus6Broker6ListenEvENK3$_0clEPvEUl3RefIN4MQTT7MessageEEE_SA_EEEvDpOT_', symObjAddr: 0x87B8, symBinAddr: 0x100036228, symSize: 0x2C }
  - { offsetInCU: 0x18BA2, offset: 0x4EBFF, size: 0x8, addend: 0x0, symName: '__ZNSt3__117__compressed_pairIZZN8MQTTPlus6Broker6ListenEvENK3$_0clEPvEUl3RefIN4MQTT7MessageEEE_NS_9allocatorIS9_EEE5firstB8ue170006Ev', symObjAddr: 0x87E4, symBinAddr: 0x100036254, symSize: 0x24 }
  - { offsetInCU: 0x18BC8, offset: 0x4EC25, size: 0x8, addend: 0x0, symName: '__ZZZN8MQTTPlus6Broker6ListenEvENK3$_0clEPvENUl3RefIN4MQTT7MessageEEE_clES6_', symObjAddr: 0x8878, symBinAddr: 0x1000362E8, symSize: 0x90 }
  - { offsetInCU: 0x18C01, offset: 0x4EC5E, size: 0x8, addend: 0x0, symName: __ZN3RefIN4MQTT7MessageEEC1IS1_EEOS_IT_E, symObjAddr: 0x8908, symBinAddr: 0x100036378, symSize: 0x34 }
  - { offsetInCU: 0x18C42, offset: 0x4EC9F, size: 0x8, addend: 0x0, symName: __ZN3RefIN4MQTT7MessageEEC2IS1_EEOS_IT_E, symObjAddr: 0x8980, symBinAddr: 0x1000363AC, symSize: 0x30 }
  - { offsetInCU: 0x18C83, offset: 0x4ECE0, size: 0x8, addend: 0x0, symName: '__ZNSt3__122__compressed_pair_elemIZZN8MQTTPlus6Broker6ListenEvENK3$_0clEPvEUl3RefIN4MQTT7MessageEEE_Li0ELb0EE5__getB8ue170006Ev', symObjAddr: 0x8A7C, symBinAddr: 0x1000363DC, symSize: 0x14 }
  - { offsetInCU: 0x18CA9, offset: 0x4ED06, size: 0x8, addend: 0x0, symName: '__ZNSt3__110unique_ptrINS_10__function6__baseIFv3RefIN4MQTT7MessageEEEEENS_22__allocator_destructorINS_9allocatorINS1_6__funcIZZN8MQTTPlus6Broker6ListenEvENK3$_0clEPvEUlS6_E_NSA_ISG_EES7_EEEEEEED2B8ue170006Ev', symObjAddr: 0x8B8C, symBinAddr: 0x1000363F0, symSize: 0x30 }
  - { offsetInCU: 0x18CD3, offset: 0x4ED30, size: 0x8, addend: 0x0, symName: '__ZNSt3__110unique_ptrINS_10__function6__baseIFv3RefIN4MQTT7MessageEEEEENS_22__allocator_destructorINS_9allocatorINS1_6__funcIZZN8MQTTPlus6Broker6ListenEvENK3$_0clEPvEUlS6_E_NSA_ISG_EES7_EEEEEEE5resetB8ue170006EPSI_', symObjAddr: 0x8BBC, symBinAddr: 0x100036420, symSize: 0x78 }
  - { offsetInCU: 0x18D17, offset: 0x4ED74, size: 0x8, addend: 0x0, symName: __ZNSt3__18functionIFv3RefIN4MQTT7MessageEEEED2Ev, symObjAddr: 0x8C34, symBinAddr: 0x100036498, symSize: 0x2C }
  - { offsetInCU: 0x18D43, offset: 0x4EDA0, size: 0x8, addend: 0x0, symName: __ZNSt3__110__function12__value_funcIFv3RefIN4MQTT7MessageEEEED1B8ue170006Ev, symObjAddr: 0x8C60, symBinAddr: 0x1000364C4, symSize: 0x2C }
  - { offsetInCU: 0x18D6D, offset: 0x4EDCA, size: 0x8, addend: 0x0, symName: __ZNSt3__110__function12__value_funcIFv3RefIN4MQTT7MessageEEEED2B8ue170006Ev, symObjAddr: 0x8C8C, symBinAddr: 0x1000364F0, symSize: 0x90 }
  - { offsetInCU: 0x18D97, offset: 0x4EDF4, size: 0x8, addend: 0x0, symName: '__ZZZN8MQTTPlus6Broker6ListenEvENK3$_0clEPvENUl3RefIN4MQTT7MessageEEE_D2Ev', symObjAddr: 0x8D1C, symBinAddr: 0x100036580, symSize: 0x2C }
  - { offsetInCU: 0x18DDB, offset: 0x4EE38, size: 0x8, addend: 0x0, symName: __ZNSt3__112__hash_tableINS_17__hash_value_typeIPv3RefIN8MQTTPlus6ClientEEEENS_22__unordered_map_hasherIS2_S7_NS_4hashIS2_EENS_8equal_toIS2_EELb1EEENS_21__unordered_map_equalIS2_S7_SC_SA_Lb1EEENS_9allocatorIS7_EEE25__emplace_unique_key_argsIS2_JRKNS_21piecewise_construct_tENS_5tupleIJRKS2_EEENSN_IJEEEEEENS_4pairINS_15__hash_iteratorIPNS_11__hash_nodeIS7_S2_EEEEbEERKT_DpOT0_, symObjAddr: 0x8D48, symBinAddr: 0x1000365AC, symSize: 0x4E8 }
  - { offsetInCU: 0x18EE5, offset: 0x4EF42, size: 0x8, addend: 0x0, symName: __ZNKSt3__115__hash_iteratorIPNS_11__hash_nodeINS_17__hash_value_typeIPv3RefIN8MQTTPlus6ClientEEEES3_EEEptB8ue170006Ev, symObjAddr: 0x9260, symBinAddr: 0x100036AC4, symSize: 0x30 }
  - { offsetInCU: 0x18F0B, offset: 0x4EF68, size: 0x8, addend: 0x0, symName: __ZNSt3__112__hash_tableINS_17__hash_value_typeIPv3RefIN8MQTTPlus6ClientEEEENS_22__unordered_map_hasherIS2_S7_NS_4hashIS2_EENS_8equal_toIS2_EELb1EEENS_21__unordered_map_equalIS2_S7_SC_SA_Lb1EEENS_9allocatorIS7_EEE13hash_functionB8ue170006Ev, symObjAddr: 0x9290, symBinAddr: 0x100036AF4, symSize: 0x28 }
  - { offsetInCU: 0x18F31, offset: 0x4EF8E, size: 0x8, addend: 0x0, symName: __ZNKSt3__122__unordered_map_hasherIPvNS_17__hash_value_typeIS1_3RefIN8MQTTPlus6ClientEEEENS_4hashIS1_EENS_8equal_toIS1_EELb1EEclB8ue170006ERKS1_, symObjAddr: 0x92B8, symBinAddr: 0x100036B1C, symSize: 0x30 }
  - { offsetInCU: 0x18F66, offset: 0x4EFC3, size: 0x8, addend: 0x0, symName: __ZNKSt3__112__hash_tableINS_17__hash_value_typeIPv3RefIN8MQTTPlus6ClientEEEENS_22__unordered_map_hasherIS2_S7_NS_4hashIS2_EENS_8equal_toIS2_EELb1EEENS_21__unordered_map_equalIS2_S7_SC_SA_Lb1EEENS_9allocatorIS7_EEE12bucket_countB8ue170006Ev, symObjAddr: 0x92E8, symBinAddr: 0x100036B4C, symSize: 0x28 }
  - { offsetInCU: 0x18F8C, offset: 0x4EFE9, size: 0x8, addend: 0x0, symName: __ZNKSt3__110unique_ptrIA_PNS_16__hash_node_baseIPNS_11__hash_nodeINS_17__hash_value_typeIPv3RefIN8MQTTPlus6ClientEEEES4_EEEENS_25__bucket_list_deallocatorINS_9allocatorISD_EEEEEixB8ue170006Em, symObjAddr: 0x93A8, symBinAddr: 0x100036C0C, symSize: 0x34 }
  - { offsetInCU: 0x18FC1, offset: 0x4F01E, size: 0x8, addend: 0x0, symName: __ZNKSt3__116__hash_node_baseIPNS_11__hash_nodeINS_17__hash_value_typeIPv3RefIN8MQTTPlus6ClientEEEES3_EEE6__hashB8ue170006Ev, symObjAddr: 0x93DC, symBinAddr: 0x100036C40, symSize: 0x18 }
  - { offsetInCU: 0x18FE7, offset: 0x4F044, size: 0x8, addend: 0x0, symName: __ZNSt3__112__hash_tableINS_17__hash_value_typeIPv3RefIN8MQTTPlus6ClientEEEENS_22__unordered_map_hasherIS2_S7_NS_4hashIS2_EENS_8equal_toIS2_EELb1EEENS_21__unordered_map_equalIS2_S7_SC_SA_Lb1EEENS_9allocatorIS7_EEE6key_eqB8ue170006Ev, symObjAddr: 0x93F4, symBinAddr: 0x100036C58, symSize: 0x28 }
  - { offsetInCU: 0x1900D, offset: 0x4F06A, size: 0x8, addend: 0x0, symName: __ZNKSt3__121__unordered_map_equalIPvNS_17__hash_value_typeIS1_3RefIN8MQTTPlus6ClientEEEENS_8equal_toIS1_EENS_4hashIS1_EELb1EEclB8ue170006ERKS7_RKS1_, symObjAddr: 0x941C, symBinAddr: 0x100036C80, symSize: 0x48 }
  - { offsetInCU: 0x19051, offset: 0x4F0AE, size: 0x8, addend: 0x0, symName: __ZNSt3__112__hash_tableINS_17__hash_value_typeIPv3RefIN8MQTTPlus6ClientEEEENS_22__unordered_map_hasherIS2_S7_NS_4hashIS2_EENS_8equal_toIS2_EELb1EEENS_21__unordered_map_equalIS2_S7_SC_SA_Lb1EEENS_9allocatorIS7_EEE21__construct_node_hashIRKNS_21piecewise_construct_tEJNS_5tupleIJRKS2_EEENSN_IJEEEEEENS_10unique_ptrINS_11__hash_nodeIS7_S2_EENS_22__hash_node_destructorINSG_ISU_EEEEEEmOT_DpOT0_, symObjAddr: 0x9464, symBinAddr: 0x100036CC8, symSize: 0x150 }
  - { offsetInCU: 0x190ED, offset: 0x4F14A, size: 0x8, addend: 0x0, symName: __ZNSt3__112__hash_tableINS_17__hash_value_typeIPv3RefIN8MQTTPlus6ClientEEEENS_22__unordered_map_hasherIS2_S7_NS_4hashIS2_EENS_8equal_toIS2_EELb1EEENS_21__unordered_map_equalIS2_S7_SC_SA_Lb1EEENS_9allocatorIS7_EEE4sizeB8ue170006Ev, symObjAddr: 0x95B4, symBinAddr: 0x100036E18, symSize: 0x28 }
  - { offsetInCU: 0x19113, offset: 0x4F170, size: 0x8, addend: 0x0, symName: __ZNSt3__112__hash_tableINS_17__hash_value_typeIPv3RefIN8MQTTPlus6ClientEEEENS_22__unordered_map_hasherIS2_S7_NS_4hashIS2_EENS_8equal_toIS2_EELb1EEENS_21__unordered_map_equalIS2_S7_SC_SA_Lb1EEENS_9allocatorIS7_EEE15max_load_factorB8ue170006Ev, symObjAddr: 0x95DC, symBinAddr: 0x100036E40, symSize: 0x28 }
  - { offsetInCU: 0x19139, offset: 0x4F196, size: 0x8, addend: 0x0, symName: __ZNSt3__112__hash_tableINS_17__hash_value_typeIPv3RefIN8MQTTPlus6ClientEEEENS_22__unordered_map_hasherIS2_S7_NS_4hashIS2_EENS_8equal_toIS2_EELb1EEENS_21__unordered_map_equalIS2_S7_SC_SA_Lb1EEENS_9allocatorIS7_EEE15__rehash_uniqueB8ue170006Em, symObjAddr: 0x9604, symBinAddr: 0x100036E68, symSize: 0x2C }
  - { offsetInCU: 0x1916D, offset: 0x4F1CA, size: 0x8, addend: 0x0, symName: __Z4ceilB8ue170006f, symObjAddr: 0x96AC, symBinAddr: 0x100036F10, symSize: 0x18 }
  - { offsetInCU: 0x1919C, offset: 0x4F1F9, size: 0x8, addend: 0x0, symName: __ZNSt3__116__hash_node_baseIPNS_11__hash_nodeINS_17__hash_value_typeIPv3RefIN8MQTTPlus6ClientEEEES3_EEE5__ptrB8ue170006Ev, symObjAddr: 0x96C4, symBinAddr: 0x100036F28, symSize: 0x24 }
  - { offsetInCU: 0x191C2, offset: 0x4F21F, size: 0x8, addend: 0x0, symName: __ZNKSt3__110unique_ptrINS_11__hash_nodeINS_17__hash_value_typeIPv3RefIN8MQTTPlus6ClientEEEES3_EENS_22__hash_node_destructorINS_9allocatorIS9_EEEEEptB8ue170006Ev, symObjAddr: 0x96E8, symBinAddr: 0x100036F4C, symSize: 0x28 }
  - { offsetInCU: 0x191E8, offset: 0x4F245, size: 0x8, addend: 0x0, symName: __ZNKSt3__110unique_ptrINS_11__hash_nodeINS_17__hash_value_typeIPv3RefIN8MQTTPlus6ClientEEEES3_EENS_22__hash_node_destructorINS_9allocatorIS9_EEEEE3getB8ue170006Ev, symObjAddr: 0x9710, symBinAddr: 0x100036F74, symSize: 0x28 }
  - { offsetInCU: 0x1920E, offset: 0x4F26B, size: 0x8, addend: 0x0, symName: __ZNSt3__110unique_ptrINS_11__hash_nodeINS_17__hash_value_typeIPv3RefIN8MQTTPlus6ClientEEEES3_EENS_22__hash_node_destructorINS_9allocatorIS9_EEEEE7releaseB8ue170006Ev, symObjAddr: 0x9738, symBinAddr: 0x100036F9C, symSize: 0x44 }
  - { offsetInCU: 0x19243, offset: 0x4F2A0, size: 0x8, addend: 0x0, symName: __ZNSt3__110unique_ptrINS_11__hash_nodeINS_17__hash_value_typeIPv3RefIN8MQTTPlus6ClientEEEES3_EENS_22__hash_node_destructorINS_9allocatorIS9_EEEEED1B8ue170006Ev, symObjAddr: 0x977C, symBinAddr: 0x100036FE0, symSize: 0x2C }
  - { offsetInCU: 0x1926D, offset: 0x4F2CA, size: 0x8, addend: 0x0, symName: __ZNSt3__115__hash_iteratorIPNS_11__hash_nodeINS_17__hash_value_typeIPv3RefIN8MQTTPlus6ClientEEEES3_EEEC1B8ue170006EPNS_16__hash_node_baseISA_EE, symObjAddr: 0x97A8, symBinAddr: 0x10003700C, symSize: 0x34 }
  - { offsetInCU: 0x192B2, offset: 0x4F30F, size: 0x8, addend: 0x0, symName: __ZNSt3__14pairINS_15__hash_iteratorIPNS_11__hash_nodeINS_17__hash_value_typeIPv3RefIN8MQTTPlus6ClientEEEES4_EEEEbEC1B8ue170006ISC_RbLS4_0EEEOT_OT0_, symObjAddr: 0x97DC, symBinAddr: 0x100037040, symSize: 0x3C }
  - { offsetInCU: 0x19310, offset: 0x4F36D, size: 0x8, addend: 0x0, symName: __ZNSt3__117__compressed_pairImNS_22__unordered_map_hasherIPvNS_17__hash_value_typeIS2_3RefIN8MQTTPlus6ClientEEEENS_4hashIS2_EENS_8equal_toIS2_EELb1EEEE6secondB8ue170006Ev, symObjAddr: 0x9818, symBinAddr: 0x10003707C, symSize: 0x24 }
  - { offsetInCU: 0x19336, offset: 0x4F393, size: 0x8, addend: 0x0, symName: __ZNSt3__122__compressed_pair_elemINS_22__unordered_map_hasherIPvNS_17__hash_value_typeIS2_3RefIN8MQTTPlus6ClientEEEENS_4hashIS2_EENS_8equal_toIS2_EELb1EEELi1ELb1EE5__getB8ue170006Ev, symObjAddr: 0x983C, symBinAddr: 0x1000370A0, symSize: 0x14 }
  - { offsetInCU: 0x1935C, offset: 0x4F3B9, size: 0x8, addend: 0x0, symName: __ZNKSt3__14hashIPvEclB8ue170006ES1_, symObjAddr: 0x9850, symBinAddr: 0x1000370B4, symSize: 0x48 }
  - { offsetInCU: 0x193C2, offset: 0x4F41F, size: 0x8, addend: 0x0, symName: __ZNKSt3__121__murmur2_or_cityhashImLm64EEclB8ue170006EPKvm, symObjAddr: 0x9898, symBinAddr: 0x1000370FC, symSize: 0x410 }
  - { offsetInCU: 0x19462, offset: 0x4F4BF, size: 0x8, addend: 0x0, symName: __ZNSt3__121__murmur2_or_cityhashImLm64EE18__hash_len_0_to_16B8ue170006EPKcm, symObjAddr: 0x9CA8, symBinAddr: 0x10003750C, symSize: 0x1C0 }
  - { offsetInCU: 0x19544, offset: 0x4F5A1, size: 0x8, addend: 0x0, symName: __ZNSt3__121__murmur2_or_cityhashImLm64EE19__hash_len_17_to_32B8ue170006EPKcm, symObjAddr: 0x9E68, symBinAddr: 0x1000376CC, symSize: 0x130 }
  - { offsetInCU: 0x195B1, offset: 0x4F60E, size: 0x8, addend: 0x0, symName: __ZNSt3__121__murmur2_or_cityhashImLm64EE19__hash_len_33_to_64B8ue170006EPKcm, symObjAddr: 0x9F98, symBinAddr: 0x1000377FC, symSize: 0x2B8 }
  - { offsetInCU: 0x1966C, offset: 0x4F6C9, size: 0x8, addend: 0x0, symName: __ZNSt3__121__murmur2_or_cityhashImLm64EE13__hash_len_16B8ue170006Emm, symObjAddr: 0xA270, symBinAddr: 0x100037AD4, symSize: 0x80 }
  - { offsetInCU: 0x196CA, offset: 0x4F727, size: 0x8, addend: 0x0, symName: __ZNSt3__121__murmur2_or_cityhashImLm64EE29__weak_hash_len_32_with_seedsB8ue170006EPKcmm, symObjAddr: 0xA2F0, symBinAddr: 0x100037B54, symSize: 0x88 }
  - { offsetInCU: 0x19709, offset: 0x4F766, size: 0x8, addend: 0x0, symName: __ZNSt3__121__murmur2_or_cityhashImLm64EE8__rotateB8ue170006Emi, symObjAddr: 0xA378, symBinAddr: 0x100037BDC, symSize: 0x64 }
  - { offsetInCU: 0x1973A, offset: 0x4F797, size: 0x8, addend: 0x0, symName: __ZNSt3__14pairImmEaSB8ue170006EOS1_, symObjAddr: 0xA3DC, symBinAddr: 0x100037C40, symSize: 0x30 }
  - { offsetInCU: 0x1976F, offset: 0x4F7CC, size: 0x8, addend: 0x0, symName: __ZNSt3__121__murmur2_or_cityhashImLm64EE11__shift_mixB8ue170006Em, symObjAddr: 0xA448, symBinAddr: 0x100037CAC, symSize: 0x1C }
  - { offsetInCU: 0x19792, offset: 0x4F7EF, size: 0x8, addend: 0x0, symName: __ZNSt3__121__murmur2_or_cityhashImLm64EE22__rotate_by_at_least_1B8ue170006Emi, symObjAddr: 0xA464, symBinAddr: 0x100037CC8, symSize: 0x38 }
  - { offsetInCU: 0x197C3, offset: 0x4F820, size: 0x8, addend: 0x0, symName: __ZNSt3__121__murmur2_or_cityhashImLm64EE29__weak_hash_len_32_with_seedsB8ue170006Emmmmmm, symObjAddr: 0xA4BC, symBinAddr: 0x100037D20, symSize: 0xD8 }
  - { offsetInCU: 0x19841, offset: 0x4F89E, size: 0x8, addend: 0x0, symName: __ZNSt3__14pairImmEC1B8ue170006ImmLPv0EEEOT_OT0_, symObjAddr: 0xA594, symBinAddr: 0x100037DF8, symSize: 0x3C }
  - { offsetInCU: 0x1989F, offset: 0x4F8FC, size: 0x8, addend: 0x0, symName: __ZNSt3__14pairImmEC2B8ue170006ImmLPv0EEEOT_OT0_, symObjAddr: 0xA5D0, symBinAddr: 0x100037E34, symSize: 0x34 }
  - { offsetInCU: 0x198FD, offset: 0x4F95A, size: 0x8, addend: 0x0, symName: __ZNKSt3__110unique_ptrIA_PNS_16__hash_node_baseIPNS_11__hash_nodeINS_17__hash_value_typeIPv3RefIN8MQTTPlus6ClientEEEES4_EEEENS_25__bucket_list_deallocatorINS_9allocatorISD_EEEEE11get_deleterB8ue170006Ev, symObjAddr: 0xA604, symBinAddr: 0x100037E68, symSize: 0x24 }
  - { offsetInCU: 0x19923, offset: 0x4F980, size: 0x8, addend: 0x0, symName: __ZNKSt3__125__bucket_list_deallocatorINS_9allocatorIPNS_16__hash_node_baseIPNS_11__hash_nodeINS_17__hash_value_typeIPv3RefIN8MQTTPlus6ClientEEEES5_EEEEEEE4sizeB8ue170006Ev, symObjAddr: 0xA628, symBinAddr: 0x100037E8C, symSize: 0x28 }
  - { offsetInCU: 0x19949, offset: 0x4F9A6, size: 0x8, addend: 0x0, symName: __ZNKSt3__117__compressed_pairIPPNS_16__hash_node_baseIPNS_11__hash_nodeINS_17__hash_value_typeIPv3RefIN8MQTTPlus6ClientEEEES4_EEEENS_25__bucket_list_deallocatorINS_9allocatorISD_EEEEE6secondB8ue170006Ev, symObjAddr: 0xA650, symBinAddr: 0x100037EB4, symSize: 0x28 }
  - { offsetInCU: 0x1996F, offset: 0x4F9CC, size: 0x8, addend: 0x0, symName: __ZNKSt3__122__compressed_pair_elemINS_25__bucket_list_deallocatorINS_9allocatorIPNS_16__hash_node_baseIPNS_11__hash_nodeINS_17__hash_value_typeIPv3RefIN8MQTTPlus6ClientEEEES6_EEEEEEEELi1ELb0EE5__getB8ue170006Ev, symObjAddr: 0xA678, symBinAddr: 0x100037EDC, symSize: 0x14 }
  - { offsetInCU: 0x19995, offset: 0x4F9F2, size: 0x8, addend: 0x0, symName: __ZNKSt3__117__compressed_pairImNS_9allocatorIPNS_16__hash_node_baseIPNS_11__hash_nodeINS_17__hash_value_typeIPv3RefIN8MQTTPlus6ClientEEEES5_EEEEEEE5firstB8ue170006Ev, symObjAddr: 0xA68C, symBinAddr: 0x100037EF0, symSize: 0x24 }
  - { offsetInCU: 0x199BB, offset: 0x4FA18, size: 0x8, addend: 0x0, symName: __ZNKSt3__122__compressed_pair_elemImLi0ELb0EE5__getB8ue170006Ev, symObjAddr: 0xA6B0, symBinAddr: 0x100037F14, symSize: 0x14 }
  - { offsetInCU: 0x199E1, offset: 0x4FA3E, size: 0x8, addend: 0x0, symName: __ZNKSt3__117__compressed_pairIPPNS_16__hash_node_baseIPNS_11__hash_nodeINS_17__hash_value_typeIPv3RefIN8MQTTPlus6ClientEEEES4_EEEENS_25__bucket_list_deallocatorINS_9allocatorISD_EEEEE5firstB8ue170006Ev, symObjAddr: 0xA6C4, symBinAddr: 0x100037F28, symSize: 0x24 }
  - { offsetInCU: 0x19A07, offset: 0x4FA64, size: 0x8, addend: 0x0, symName: __ZNKSt3__122__compressed_pair_elemIPPNS_16__hash_node_baseIPNS_11__hash_nodeINS_17__hash_value_typeIPv3RefIN8MQTTPlus6ClientEEEES4_EEEELi0ELb0EE5__getB8ue170006Ev, symObjAddr: 0xA6E8, symBinAddr: 0x100037F4C, symSize: 0x14 }
  - { offsetInCU: 0x19A2D, offset: 0x4FA8A, size: 0x8, addend: 0x0, symName: __ZNSt3__117__compressed_pairIfNS_21__unordered_map_equalIPvNS_17__hash_value_typeIS2_3RefIN8MQTTPlus6ClientEEEENS_8equal_toIS2_EENS_4hashIS2_EELb1EEEE6secondB8ue170006Ev, symObjAddr: 0xA6FC, symBinAddr: 0x100037F60, symSize: 0x24 }
  - { offsetInCU: 0x19A53, offset: 0x4FAB0, size: 0x8, addend: 0x0, symName: __ZNSt3__122__compressed_pair_elemINS_21__unordered_map_equalIPvNS_17__hash_value_typeIS2_3RefIN8MQTTPlus6ClientEEEENS_8equal_toIS2_EENS_4hashIS2_EELb1EEELi1ELb1EE5__getB8ue170006Ev, symObjAddr: 0xA720, symBinAddr: 0x100037F84, symSize: 0x14 }
  - { offsetInCU: 0x19A79, offset: 0x4FAD6, size: 0x8, addend: 0x0, symName: __ZNKSt3__18equal_toIPvEclB8ue170006ERKS1_S4_, symObjAddr: 0xA734, symBinAddr: 0x100037F98, symSize: 0x34 }
  - { offsetInCU: 0x19ABD, offset: 0x4FB1A, size: 0x8, addend: 0x0, symName: __ZNKSt3__117__hash_value_typeIPv3RefIN8MQTTPlus6ClientEEE11__get_valueB8ue170006Ev, symObjAddr: 0xA768, symBinAddr: 0x100037FCC, symSize: 0x24 }
  - { offsetInCU: 0x19AE3, offset: 0x4FB40, size: 0x8, addend: 0x0, symName: __ZNSt3__116allocator_traitsINS_9allocatorINS_11__hash_nodeINS_17__hash_value_typeIPv3RefIN8MQTTPlus6ClientEEEES4_EEEEE8allocateB8ue170006ERSB_m, symObjAddr: 0xA7C4, symBinAddr: 0x100038028, symSize: 0x2C }
  - { offsetInCU: 0x19B16, offset: 0x4FB73, size: 0x8, addend: 0x0, symName: __ZNSt3__122__hash_node_destructorINS_9allocatorINS_11__hash_nodeINS_17__hash_value_typeIPv3RefIN8MQTTPlus6ClientEEEES4_EEEEEC1B8ue170006ERSB_b, symObjAddr: 0xA7F0, symBinAddr: 0x100038054, symSize: 0x48 }
  - { offsetInCU: 0x19B64, offset: 0x4FBC1, size: 0x8, addend: 0x0, symName: __ZNSt3__110unique_ptrINS_11__hash_nodeINS_17__hash_value_typeIPv3RefIN8MQTTPlus6ClientEEEES3_EENS_22__hash_node_destructorINS_9allocatorIS9_EEEEEC1B8ue170006ILb1EvEEPS9_NS_16__dependent_typeINS_27__unique_ptr_deleter_sfinaeISD_EEXT_EE20__good_rval_ref_typeE, symObjAddr: 0xA838, symBinAddr: 0x10003809C, symSize: 0x3C }
  - { offsetInCU: 0x19BB5, offset: 0x4FC12, size: 0x8, addend: 0x0, symName: __ZNSt3__116allocator_traitsINS_9allocatorINS_11__hash_nodeINS_17__hash_value_typeIPv3RefIN8MQTTPlus6ClientEEEES4_EEEEE9constructB8ue170006INS_4pairIKS4_S8_EEJRKNS_21piecewise_construct_tENS_5tupleIJRSF_EEENSK_IJEEEEvvEEvRSB_PT_DpOT0_, symObjAddr: 0xA874, symBinAddr: 0x1000380D8, symSize: 0x40 }
  - { offsetInCU: 0x19C32, offset: 0x4FC8F, size: 0x8, addend: 0x0, symName: __ZNSt3__110unique_ptrINS_11__hash_nodeINS_17__hash_value_typeIPv3RefIN8MQTTPlus6ClientEEEES3_EENS_22__hash_node_destructorINS_9allocatorIS9_EEEEE11get_deleterB8ue170006Ev, symObjAddr: 0xA8B4, symBinAddr: 0x100038118, symSize: 0x24 }
  - { offsetInCU: 0x19C58, offset: 0x4FCB5, size: 0x8, addend: 0x0, symName: __ZNSt3__19allocatorINS_11__hash_nodeINS_17__hash_value_typeIPv3RefIN8MQTTPlus6ClientEEEES3_EEE8allocateB8ue170006Em, symObjAddr: 0xA8D8, symBinAddr: 0x10003813C, symSize: 0x58 }
  - { offsetInCU: 0x19C98, offset: 0x4FCF5, size: 0x8, addend: 0x0, symName: __ZNSt3__116allocator_traitsINS_9allocatorINS_11__hash_nodeINS_17__hash_value_typeIPv3RefIN8MQTTPlus6ClientEEEES4_EEEEE8max_sizeB8ue170006ISB_vvEEmRKSB_, symObjAddr: 0xA930, symBinAddr: 0x100038194, symSize: 0x28 }
  - { offsetInCU: 0x19CC4, offset: 0x4FD21, size: 0x8, addend: 0x0, symName: __ZNSt3__122__hash_node_destructorINS_9allocatorINS_11__hash_nodeINS_17__hash_value_typeIPv3RefIN8MQTTPlus6ClientEEEES4_EEEEEC2B8ue170006ERSB_b, symObjAddr: 0xA958, symBinAddr: 0x1000381BC, symSize: 0x38 }
  - { offsetInCU: 0x19D0C, offset: 0x4FD69, size: 0x8, addend: 0x0, symName: __ZNSt3__110unique_ptrINS_11__hash_nodeINS_17__hash_value_typeIPv3RefIN8MQTTPlus6ClientEEEES3_EENS_22__hash_node_destructorINS_9allocatorIS9_EEEEEC2B8ue170006ILb1EvEEPS9_NS_16__dependent_typeINS_27__unique_ptr_deleter_sfinaeISD_EEXT_EE20__good_rval_ref_typeE, symObjAddr: 0xA990, symBinAddr: 0x1000381F4, symSize: 0x48 }
  - { offsetInCU: 0x19D5D, offset: 0x4FDBA, size: 0x8, addend: 0x0, symName: __ZNSt3__117__compressed_pairIPNS_11__hash_nodeINS_17__hash_value_typeIPv3RefIN8MQTTPlus6ClientEEEES3_EENS_22__hash_node_destructorINS_9allocatorIS9_EEEEEC1B8ue170006IRSA_SE_EEOT_OT0_, symObjAddr: 0xA9D8, symBinAddr: 0x10003823C, symSize: 0x3C }
  - { offsetInCU: 0x19DB5, offset: 0x4FE12, size: 0x8, addend: 0x0, symName: __ZNSt3__117__compressed_pairIPNS_11__hash_nodeINS_17__hash_value_typeIPv3RefIN8MQTTPlus6ClientEEEES3_EENS_22__hash_node_destructorINS_9allocatorIS9_EEEEEC2B8ue170006IRSA_SE_EEOT_OT0_, symObjAddr: 0xAA14, symBinAddr: 0x100038278, symSize: 0x48 }
  - { offsetInCU: 0x19E0D, offset: 0x4FE6A, size: 0x8, addend: 0x0, symName: __ZNSt3__122__compressed_pair_elemIPNS_11__hash_nodeINS_17__hash_value_typeIPv3RefIN8MQTTPlus6ClientEEEES3_EELi0ELb0EEC2B8ue170006IRSA_vEEOT_, symObjAddr: 0xAA5C, symBinAddr: 0x1000382C0, symSize: 0x24 }
  - { offsetInCU: 0x19E4F, offset: 0x4FEAC, size: 0x8, addend: 0x0, symName: __ZNSt3__122__compressed_pair_elemINS_22__hash_node_destructorINS_9allocatorINS_11__hash_nodeINS_17__hash_value_typeIPv3RefIN8MQTTPlus6ClientEEEES5_EEEEEELi1ELb0EEC2B8ue170006ISD_vEEOT_, symObjAddr: 0xAA80, symBinAddr: 0x1000382E4, symSize: 0x24 }
  - { offsetInCU: 0x19E91, offset: 0x4FEEE, size: 0x8, addend: 0x0, symName: __ZNSt3__14pairIKPv3RefIN8MQTTPlus6ClientEEEC1B8ue170006IJRS2_EJEEENS_21piecewise_construct_tENS_5tupleIJDpT_EEENSB_IJDpT0_EEE, symObjAddr: 0xAAF4, symBinAddr: 0x100038358, symSize: 0x3C }
  - { offsetInCU: 0x19EF8, offset: 0x4FF55, size: 0x8, addend: 0x0, symName: __ZNSt3__14pairIKPv3RefIN8MQTTPlus6ClientEEEC1B8ue170006IJRS2_EJEJLm0EEJEEENS_21piecewise_construct_tERNS_5tupleIJDpT_EEERNSB_IJDpT0_EEENS_15__tuple_indicesIJXspT1_EEEENSK_IJXspT2_EEEE, symObjAddr: 0xAB30, symBinAddr: 0x100038394, symSize: 0x3C }
  - { offsetInCU: 0x19F88, offset: 0x4FFE5, size: 0x8, addend: 0x0, symName: __ZNSt3__14pairIKPv3RefIN8MQTTPlus6ClientEEEC2B8ue170006IJRS2_EJEJLm0EEJEEENS_21piecewise_construct_tERNS_5tupleIJDpT_EEERNSB_IJDpT0_EEENS_15__tuple_indicesIJXspT1_EEEENSK_IJXspT2_EEEE, symObjAddr: 0xAB6C, symBinAddr: 0x1000383D0, symSize: 0x4C }
  - { offsetInCU: 0x1A018, offset: 0x50075, size: 0x8, addend: 0x0, symName: __ZN3RefIN8MQTTPlus6ClientEEC1Ev, symObjAddr: 0xABDC, symBinAddr: 0x100038440, symSize: 0x2C }
  - { offsetInCU: 0x1A042, offset: 0x5009F, size: 0x8, addend: 0x0, symName: __ZNSt3__112__tuple_leafILm0ERKPvLb0EE3getB8ue170006Ev, symObjAddr: 0xAC08, symBinAddr: 0x10003846C, symSize: 0x18 }
  - { offsetInCU: 0x1A068, offset: 0x500C5, size: 0x8, addend: 0x0, symName: __ZN3RefIN8MQTTPlus6ClientEEC2Ev, symObjAddr: 0xAC20, symBinAddr: 0x100038484, symSize: 0x18 }
  - { offsetInCU: 0x1A092, offset: 0x500EF, size: 0x8, addend: 0x0, symName: __ZNSt3__117__compressed_pairIPNS_11__hash_nodeINS_17__hash_value_typeIPv3RefIN8MQTTPlus6ClientEEEES3_EENS_22__hash_node_destructorINS_9allocatorIS9_EEEEE6secondB8ue170006Ev, symObjAddr: 0xAC38, symBinAddr: 0x10003849C, symSize: 0x28 }
  - { offsetInCU: 0x1A0B8, offset: 0x50115, size: 0x8, addend: 0x0, symName: __ZNSt3__122__compressed_pair_elemINS_22__hash_node_destructorINS_9allocatorINS_11__hash_nodeINS_17__hash_value_typeIPv3RefIN8MQTTPlus6ClientEEEES5_EEEEEELi1ELb0EE5__getB8ue170006Ev, symObjAddr: 0xAC60, symBinAddr: 0x1000384C4, symSize: 0x14 }
  - { offsetInCU: 0x1A0DE, offset: 0x5013B, size: 0x8, addend: 0x0, symName: __ZNSt3__117__compressed_pairImNS_22__unordered_map_hasherIPvNS_17__hash_value_typeIS2_3RefIN8MQTTPlus6ClientEEEENS_4hashIS2_EENS_8equal_toIS2_EELb1EEEE5firstB8ue170006Ev, symObjAddr: 0xAC74, symBinAddr: 0x1000384D8, symSize: 0x24 }
  - { offsetInCU: 0x1A104, offset: 0x50161, size: 0x8, addend: 0x0, symName: __ZNSt3__117__compressed_pairIfNS_21__unordered_map_equalIPvNS_17__hash_value_typeIS2_3RefIN8MQTTPlus6ClientEEEENS_8equal_toIS2_EENS_4hashIS2_EELb1EEEE5firstB8ue170006Ev, symObjAddr: 0xAC98, symBinAddr: 0x1000384FC, symSize: 0x24 }
  - { offsetInCU: 0x1A12A, offset: 0x50187, size: 0x8, addend: 0x0, symName: __ZNSt3__122__compressed_pair_elemIfLi0ELb0EE5__getB8ue170006Ev, symObjAddr: 0xACBC, symBinAddr: 0x100038520, symSize: 0x14 }
  - { offsetInCU: 0x1A150, offset: 0x501AD, size: 0x8, addend: 0x0, symName: __ZNSt3__112__hash_tableINS_17__hash_value_typeIPv3RefIN8MQTTPlus6ClientEEEENS_22__unordered_map_hasherIS2_S7_NS_4hashIS2_EENS_8equal_toIS2_EELb1EEENS_21__unordered_map_equalIS2_S7_SC_SA_Lb1EEENS_9allocatorIS7_EEE8__rehashILb1EEEvm, symObjAddr: 0xACD0, symBinAddr: 0x100038534, symSize: 0x1A8 }
  - { offsetInCU: 0x1A1A0, offset: 0x501FD, size: 0x8, addend: 0x0, symName: __ZNSt3__112__hash_tableINS_17__hash_value_typeIPv3RefIN8MQTTPlus6ClientEEEENS_22__unordered_map_hasherIS2_S7_NS_4hashIS2_EENS_8equal_toIS2_EELb1EEENS_21__unordered_map_equalIS2_S7_SC_SA_Lb1EEENS_9allocatorIS7_EEE11__do_rehashILb1EEEvm, symObjAddr: 0xAE78, symBinAddr: 0x1000386DC, symSize: 0x288 }
  - { offsetInCU: 0x1A283, offset: 0x502E0, size: 0x8, addend: 0x0, symName: __ZNSt3__110unique_ptrIA_PNS_16__hash_node_baseIPNS_11__hash_nodeINS_17__hash_value_typeIPv3RefIN8MQTTPlus6ClientEEEES4_EEEENS_25__bucket_list_deallocatorINS_9allocatorISD_EEEEE11get_deleterB8ue170006Ev, symObjAddr: 0xB16C, symBinAddr: 0x1000389D0, symSize: 0x24 }
  - { offsetInCU: 0x1A2A9, offset: 0x50306, size: 0x8, addend: 0x0, symName: __ZNSt3__110unique_ptrIA_PNS_16__hash_node_baseIPNS_11__hash_nodeINS_17__hash_value_typeIPv3RefIN8MQTTPlus6ClientEEEES4_EEEENS_25__bucket_list_deallocatorINS_9allocatorISD_EEEEE5resetB8ue170006IPSD_EENS_9enable_ifIXsr28_CheckArrayPointerConversionIT_EE5valueEvE4typeESN_, symObjAddr: 0xB190, symBinAddr: 0x1000389F4, symSize: 0x78 }
  - { offsetInCU: 0x1A2F6, offset: 0x50353, size: 0x8, addend: 0x0, symName: __ZNSt3__116allocator_traitsINS_9allocatorIPNS_16__hash_node_baseIPNS_11__hash_nodeINS_17__hash_value_typeIPv3RefIN8MQTTPlus6ClientEEEES5_EEEEEEE8allocateB8ue170006ERSF_m, symObjAddr: 0xB208, symBinAddr: 0x100038A6C, symSize: 0x2C }
  - { offsetInCU: 0x1A329, offset: 0x50386, size: 0x8, addend: 0x0, symName: __ZNSt3__19allocatorIPNS_16__hash_node_baseIPNS_11__hash_nodeINS_17__hash_value_typeIPv3RefIN8MQTTPlus6ClientEEEES4_EEEEE8allocateB8ue170006Em, symObjAddr: 0xB234, symBinAddr: 0x100038A98, symSize: 0x58 }
  - { offsetInCU: 0x1A369, offset: 0x503C6, size: 0x8, addend: 0x0, symName: __ZNSt3__116allocator_traitsINS_9allocatorIPNS_16__hash_node_baseIPNS_11__hash_nodeINS_17__hash_value_typeIPv3RefIN8MQTTPlus6ClientEEEES5_EEEEEEE8max_sizeB8ue170006ISF_vvEEmRKSF_, symObjAddr: 0xB28C, symBinAddr: 0x100038AF0, symSize: 0x28 }
  - { offsetInCU: 0x1A395, offset: 0x503F2, size: 0x8, addend: 0x0, symName: __ZNKSt3__117__compressed_pairIPNS_11__hash_nodeINS_17__hash_value_typeIPv3RefIN8MQTTPlus6ClientEEEES3_EENS_22__hash_node_destructorINS_9allocatorIS9_EEEEE5firstB8ue170006Ev, symObjAddr: 0xB358, symBinAddr: 0x100038B88, symSize: 0x24 }
  - { offsetInCU: 0x1A3BB, offset: 0x50418, size: 0x8, addend: 0x0, symName: __ZNKSt3__122__compressed_pair_elemIPNS_11__hash_nodeINS_17__hash_value_typeIPv3RefIN8MQTTPlus6ClientEEEES3_EELi0ELb0EE5__getB8ue170006Ev, symObjAddr: 0xB37C, symBinAddr: 0x100038BAC, symSize: 0x14 }
  - { offsetInCU: 0x1A3E1, offset: 0x5043E, size: 0x8, addend: 0x0, symName: __ZNSt3__117__compressed_pairIPNS_11__hash_nodeINS_17__hash_value_typeIPv3RefIN8MQTTPlus6ClientEEEES3_EENS_22__hash_node_destructorINS_9allocatorIS9_EEEEE5firstB8ue170006Ev, symObjAddr: 0xB390, symBinAddr: 0x100038BC0, symSize: 0x24 }
  - { offsetInCU: 0x1A407, offset: 0x50464, size: 0x8, addend: 0x0, symName: __ZNSt3__122__compressed_pair_elemIPNS_11__hash_nodeINS_17__hash_value_typeIPv3RefIN8MQTTPlus6ClientEEEES3_EELi0ELb0EE5__getB8ue170006Ev, symObjAddr: 0xB3B4, symBinAddr: 0x100038BE4, symSize: 0x14 }
  - { offsetInCU: 0x1A42D, offset: 0x5048A, size: 0x8, addend: 0x0, symName: __ZNSt3__110unique_ptrINS_11__hash_nodeINS_17__hash_value_typeIPv3RefIN8MQTTPlus6ClientEEEES3_EENS_22__hash_node_destructorINS_9allocatorIS9_EEEEED2B8ue170006Ev, symObjAddr: 0xB3C8, symBinAddr: 0x100038BF8, symSize: 0x30 }
  - { offsetInCU: 0x1A457, offset: 0x504B4, size: 0x8, addend: 0x0, symName: __ZNSt3__110unique_ptrINS_11__hash_nodeINS_17__hash_value_typeIPv3RefIN8MQTTPlus6ClientEEEES3_EENS_22__hash_node_destructorINS_9allocatorIS9_EEEEE5resetB8ue170006EPS9_, symObjAddr: 0xB3F8, symBinAddr: 0x100038C28, symSize: 0x78 }
  - { offsetInCU: 0x1A49B, offset: 0x504F8, size: 0x8, addend: 0x0, symName: __ZNSt3__122__hash_node_destructorINS_9allocatorINS_11__hash_nodeINS_17__hash_value_typeIPv3RefIN8MQTTPlus6ClientEEEES4_EEEEEclB8ue170006EPSA_, symObjAddr: 0xB470, symBinAddr: 0x100038CA0, symSize: 0x98 }
  - { offsetInCU: 0x1A4D0, offset: 0x5052D, size: 0x8, addend: 0x0, symName: __ZNSt3__115__hash_iteratorIPNS_11__hash_nodeINS_17__hash_value_typeIPv3RefIN8MQTTPlus6ClientEEEES3_EEEC2B8ue170006EPNS_16__hash_node_baseISA_EE, symObjAddr: 0xB508, symBinAddr: 0x100038D38, symSize: 0x20 }
  - { offsetInCU: 0x1A509, offset: 0x50566, size: 0x8, addend: 0x0, symName: __ZNSt3__14pairINS_15__hash_iteratorIPNS_11__hash_nodeINS_17__hash_value_typeIPv3RefIN8MQTTPlus6ClientEEEES4_EEEEbEC2B8ue170006ISC_RbLS4_0EEEOT_OT0_, symObjAddr: 0xB528, symBinAddr: 0x100038D58, symSize: 0x38 }
  - { offsetInCU: 0x1A567, offset: 0x505C4, size: 0x8, addend: 0x0, symName: __ZNSt3__15tupleIJRKPvEEC1B8ue170006INS_4_AndELi0EEES3_, symObjAddr: 0xB560, symBinAddr: 0x100038D90, symSize: 0x34 }
  - { offsetInCU: 0x1A5AF, offset: 0x5060C, size: 0x8, addend: 0x0, symName: __ZNSt3__15tupleIJRKPvEEC2B8ue170006INS_4_AndELi0EEES3_, symObjAddr: 0xB594, symBinAddr: 0x100038DC4, symSize: 0x34 }
  - { offsetInCU: 0x1A5F7, offset: 0x50654, size: 0x8, addend: 0x0, symName: __ZNSt3__112__tuple_implINS_15__tuple_indicesIJLm0EEEEJRKPvEEC1B8ue170006IJLm0EEJS5_EJEJEJS5_EEENS1_IJXspT_EEEENS_13__tuple_typesIJDpT0_EEENS1_IJXspT1_EEEENS9_IJDpT2_EEEDpOT3_, symObjAddr: 0xB5C8, symBinAddr: 0x100038DF8, symSize: 0x34 }
  - { offsetInCU: 0x1A68C, offset: 0x506E9, size: 0x8, addend: 0x0, symName: __ZNSt3__112__tuple_implINS_15__tuple_indicesIJLm0EEEEJRKPvEEC2B8ue170006IJLm0EEJS5_EJEJEJS5_EEENS1_IJXspT_EEEENS_13__tuple_typesIJDpT0_EEENS1_IJXspT1_EEEENS9_IJDpT2_EEEDpOT3_, symObjAddr: 0xB5FC, symBinAddr: 0x100038E2C, symSize: 0x34 }
  - { offsetInCU: 0x1A721, offset: 0x5077E, size: 0x8, addend: 0x0, symName: __ZNSt3__112__tuple_leafILm0ERKPvLb0EEC2B8ue170006IS3_vEEOT_, symObjAddr: 0xB630, symBinAddr: 0x100038E60, symSize: 0x20 }
  - { offsetInCU: 0x1A764, offset: 0x507C1, size: 0x8, addend: 0x0, symName: __ZNSt3__114pointer_traitsIPNS_17__hash_value_typeIPv3RefIN8MQTTPlus6ClientEEEEE10pointer_toB8ue170006ERS7_, symObjAddr: 0xB650, symBinAddr: 0x100038E80, symSize: 0x14 }
  - { offsetInCU: 0x1A787, offset: 0x507E4, size: 0x8, addend: 0x0, symName: '__ZNSt3__122__compressed_pair_elemIZN8MQTTPlus6Broker6ListenEvE3$_0Li0ELb0EE5__getB8ue170006Ev', symObjAddr: 0xB664, symBinAddr: 0x100038E94, symSize: 0x14 }
  - { offsetInCU: 0x1A7AD, offset: 0x5080A, size: 0x8, addend: 0x0, symName: '__ZNSt3__18functionIFvPviEEC2IZN8MQTTPlus6Broker6ListenEvE3$_1vEET_', symObjAddr: 0xB678, symBinAddr: 0x100038EA8, symSize: 0x38 }
  - { offsetInCU: 0x1A7F2, offset: 0x5084F, size: 0x8, addend: 0x0, symName: '__ZNSt3__110__function12__value_funcIFvPviEEC1B8ue170006IZN8MQTTPlus6Broker6ListenEvE3$_1vEEOT_', symObjAddr: 0xB6B0, symBinAddr: 0x100038EE0, symSize: 0x50 }
  - { offsetInCU: 0x1A835, offset: 0x50892, size: 0x8, addend: 0x0, symName: '__ZNSt3__19allocatorIZN8MQTTPlus6Broker6ListenEvE3$_1EC1B8ue170006Ev', symObjAddr: 0xB700, symBinAddr: 0x100038F30, symSize: 0x2C }
  - { offsetInCU: 0x1A85F, offset: 0x508BC, size: 0x8, addend: 0x0, symName: '__ZNSt3__110__function12__value_funcIFvPviEEC1B8ue170006IZN8MQTTPlus6Broker6ListenEvE3$_1NS_9allocatorIS8_EEEEOT_RKT0_', symObjAddr: 0xB72C, symBinAddr: 0x100038F5C, symSize: 0x3C }
  - { offsetInCU: 0x1A8B9, offset: 0x50916, size: 0x8, addend: 0x0, symName: '__ZNSt3__19allocatorIZN8MQTTPlus6Broker6ListenEvE3$_1EC2B8ue170006Ev', symObjAddr: 0xB768, symBinAddr: 0x100038F98, symSize: 0x2C }
  - { offsetInCU: 0x1A8E3, offset: 0x50940, size: 0x8, addend: 0x0, symName: '__ZNSt3__116__non_trivial_ifILb1ENS_9allocatorIZN8MQTTPlus6Broker6ListenEvE3$_1EEEC2B8ue170006Ev', symObjAddr: 0xB794, symBinAddr: 0x100038FC4, symSize: 0x14 }
  - { offsetInCU: 0x1A90D, offset: 0x5096A, size: 0x8, addend: 0x0, symName: '__ZNSt3__110__function12__value_funcIFvPviEEC2B8ue170006IZN8MQTTPlus6Broker6ListenEvE3$_1NS_9allocatorIS8_EEEEOT_RKT0_', symObjAddr: 0xB7A8, symBinAddr: 0x100038FD8, symSize: 0x94 }
  - { offsetInCU: 0x1A99C, offset: 0x509F9, size: 0x8, addend: 0x0, symName: '__ZNSt3__19allocatorINS_10__function6__funcIZN8MQTTPlus6Broker6ListenEvE3$_1NS0_IS5_EEFvPviEEEEC1B8ue170006IS5_EERKNS0_IT_EE', symObjAddr: 0xB854, symBinAddr: 0x100039084, symSize: 0x34 }
  - { offsetInCU: 0x1A9E5, offset: 0x50A42, size: 0x8, addend: 0x0, symName: '__ZNSt3__19allocatorIZN8MQTTPlus6Broker6ListenEvE3$_1EC1B8ue170006INS_10__function6__funcIS3_S4_FvPviEEEEERKNS0_IT_EE', symObjAddr: 0xB888, symBinAddr: 0x1000390B8, symSize: 0x34 }
  - { offsetInCU: 0x1AA22, offset: 0x50A7F, size: 0x8, addend: 0x0, symName: '__ZNSt3__110__function6__funcIZN8MQTTPlus6Broker6ListenEvE3$_1NS_9allocatorIS4_EEFvPviEEC1B8ue170006EOS4_OS6_', symObjAddr: 0xB8BC, symBinAddr: 0x1000390EC, symSize: 0x3C }
  - { offsetInCU: 0x1AA6A, offset: 0x50AC7, size: 0x8, addend: 0x0, symName: '__ZNSt3__19allocatorINS_10__function6__funcIZN8MQTTPlus6Broker6ListenEvE3$_1NS0_IS5_EEFvPviEEEEC2B8ue170006IS5_EERKNS0_IT_EE', symObjAddr: 0xB8F8, symBinAddr: 0x100039128, symSize: 0x30 }
  - { offsetInCU: 0x1AAA7, offset: 0x50B04, size: 0x8, addend: 0x0, symName: '__ZNSt3__116__non_trivial_ifILb1ENS_9allocatorINS_10__function6__funcIZN8MQTTPlus6Broker6ListenEvE3$_1NS1_IS6_EEFvPviEEEEEEC2B8ue170006Ev', symObjAddr: 0xB928, symBinAddr: 0x100039158, symSize: 0x14 }
  - { offsetInCU: 0x1AAD1, offset: 0x50B2E, size: 0x8, addend: 0x0, symName: '__ZNSt3__19allocatorIZN8MQTTPlus6Broker6ListenEvE3$_1EC2B8ue170006INS_10__function6__funcIS3_S4_FvPviEEEEERKNS0_IT_EE', symObjAddr: 0xB93C, symBinAddr: 0x10003916C, symSize: 0x30 }
  - { offsetInCU: 0x1AB0E, offset: 0x50B6B, size: 0x8, addend: 0x0, symName: '__ZNSt3__110__function6__funcIZN8MQTTPlus6Broker6ListenEvE3$_1NS_9allocatorIS4_EEFvPviEEC2B8ue170006EOS4_OS6_', symObjAddr: 0xB96C, symBinAddr: 0x10003919C, symSize: 0x88 }
  - { offsetInCU: 0x1AB56, offset: 0x50BB3, size: 0x8, addend: 0x0, symName: __ZNSt3__110__function6__baseIFvPviEEC2B8ue170006Ev, symObjAddr: 0xB9F4, symBinAddr: 0x100039224, symSize: 0x24 }
  - { offsetInCU: 0x1AB80, offset: 0x50BDD, size: 0x8, addend: 0x0, symName: '__ZNSt3__110__function12__alloc_funcIZN8MQTTPlus6Broker6ListenEvE3$_1NS_9allocatorIS4_EEFvPviEEC1B8ue170006EOS4_OS6_', symObjAddr: 0xBA18, symBinAddr: 0x100039248, symSize: 0x3C }
  - { offsetInCU: 0x1ABC6, offset: 0x50C23, size: 0x8, addend: 0x0, symName: __ZNSt3__110__function6__baseIFvPviEED2Ev, symObjAddr: 0xBA54, symBinAddr: 0x100039284, symSize: 0x14 }
  - { offsetInCU: 0x1ABF0, offset: 0x50C4D, size: 0x8, addend: 0x0, symName: '__ZNSt3__110__function6__funcIZN8MQTTPlus6Broker6ListenEvE3$_1NS_9allocatorIS4_EEFvPviEED1Ev', symObjAddr: 0xBA68, symBinAddr: 0x100039298, symSize: 0x2C }
  - { offsetInCU: 0x1AC1D, offset: 0x50C7A, size: 0x8, addend: 0x0, symName: '__ZNSt3__110__function6__funcIZN8MQTTPlus6Broker6ListenEvE3$_1NS_9allocatorIS4_EEFvPviEED0Ev', symObjAddr: 0xBA94, symBinAddr: 0x1000392C4, symSize: 0x30 }
  - { offsetInCU: 0x1AC4A, offset: 0x50CA7, size: 0x8, addend: 0x0, symName: '__ZNKSt3__110__function6__funcIZN8MQTTPlus6Broker6ListenEvE3$_1NS_9allocatorIS4_EEFvPviEE7__cloneEv', symObjAddr: 0xBAC4, symBinAddr: 0x1000392F4, symSize: 0xFC }
  - { offsetInCU: 0x1AC9C, offset: 0x50CF9, size: 0x8, addend: 0x0, symName: '__ZNKSt3__110__function6__funcIZN8MQTTPlus6Broker6ListenEvE3$_1NS_9allocatorIS4_EEFvPviEE7__cloneEPNS0_6__baseIS8_EE', symObjAddr: 0xBBC0, symBinAddr: 0x1000393F0, symSize: 0x58 }
  - { offsetInCU: 0x1ACD3, offset: 0x50D30, size: 0x8, addend: 0x0, symName: '__ZNSt3__110__function6__funcIZN8MQTTPlus6Broker6ListenEvE3$_1NS_9allocatorIS4_EEFvPviEE7destroyEv', symObjAddr: 0xBC18, symBinAddr: 0x100039448, symSize: 0x28 }
  - { offsetInCU: 0x1ACFB, offset: 0x50D58, size: 0x8, addend: 0x0, symName: '__ZNSt3__110__function6__funcIZN8MQTTPlus6Broker6ListenEvE3$_1NS_9allocatorIS4_EEFvPviEE18destroy_deallocateEv', symObjAddr: 0xBC40, symBinAddr: 0x100039470, symSize: 0x58 }
  - { offsetInCU: 0x1AD3E, offset: 0x50D9B, size: 0x8, addend: 0x0, symName: '__ZNSt3__110__function6__funcIZN8MQTTPlus6Broker6ListenEvE3$_1NS_9allocatorIS4_EEFvPviEEclEOS7_Oi', symObjAddr: 0xBC98, symBinAddr: 0x1000394C8, symSize: 0x38 }
  - { offsetInCU: 0x1AD84, offset: 0x50DE1, size: 0x8, addend: 0x0, symName: '__ZNKSt3__110__function6__funcIZN8MQTTPlus6Broker6ListenEvE3$_1NS_9allocatorIS4_EEFvPviEE6targetERKSt9type_info', symObjAddr: 0xBCD0, symBinAddr: 0x100039500, symSize: 0x60 }
  - { offsetInCU: 0x1ADBB, offset: 0x50E18, size: 0x8, addend: 0x0, symName: '__ZNKSt3__110__function6__funcIZN8MQTTPlus6Broker6ListenEvE3$_1NS_9allocatorIS4_EEFvPviEE11target_typeEv', symObjAddr: 0xBD30, symBinAddr: 0x100039560, symSize: 0x18 }
  - { offsetInCU: 0x1ADE3, offset: 0x50E40, size: 0x8, addend: 0x0, symName: __ZNSt3__110__function6__baseIFvPviEED1Ev, symObjAddr: 0xBD48, symBinAddr: 0x100039578, symSize: 0x14 }
  - { offsetInCU: 0x1AE0D, offset: 0x50E6A, size: 0x8, addend: 0x0, symName: __ZNSt3__110__function6__baseIFvPviEED0Ev, symObjAddr: 0xBD5C, symBinAddr: 0x10003958C, symSize: 0xC }
  - { offsetInCU: 0x1AE37, offset: 0x50E94, size: 0x8, addend: 0x0, symName: '__ZNSt3__110__function12__alloc_funcIZN8MQTTPlus6Broker6ListenEvE3$_1NS_9allocatorIS4_EEFvPviEEC2B8ue170006EOS4_OS6_', symObjAddr: 0xBD68, symBinAddr: 0x100039598, symSize: 0x5C }
  - { offsetInCU: 0x1AE7D, offset: 0x50EDA, size: 0x8, addend: 0x0, symName: '__ZNSt3__117__compressed_pairIZN8MQTTPlus6Broker6ListenEvE3$_1NS_9allocatorIS3_EEEC1B8ue170006IJOS3_EJOS5_EEENS_21piecewise_construct_tENS_5tupleIJDpT_EEENSB_IJDpT0_EEE', symObjAddr: 0xBE1C, symBinAddr: 0x10003964C, symSize: 0x3C }
  - { offsetInCU: 0x1AEE7, offset: 0x50F44, size: 0x8, addend: 0x0, symName: '__ZNSt3__15tupleIJOZN8MQTTPlus6Broker6ListenEvE3$_1EEC1B8ue170006IJS3_ELi0EEEDpOT_', symObjAddr: 0xBE58, symBinAddr: 0x100039688, symSize: 0x34 }
  - { offsetInCU: 0x1AF31, offset: 0x50F8E, size: 0x8, addend: 0x0, symName: '__ZNSt3__15tupleIJOZN8MQTTPlus6Broker6ListenEvE3$_1EEC2B8ue170006IJS3_ELi0EEEDpOT_', symObjAddr: 0xBE8C, symBinAddr: 0x1000396BC, symSize: 0x34 }
  - { offsetInCU: 0x1AF7B, offset: 0x50FD8, size: 0x8, addend: 0x0, symName: '__ZNSt3__112__tuple_implINS_15__tuple_indicesIJLm0EEEEJOZN8MQTTPlus6Broker6ListenEvE3$_1EEC1B8ue170006IJLm0EEJS6_EJEJEJS5_EEENS1_IJXspT_EEEENS_13__tuple_typesIJDpT0_EEENS1_IJXspT1_EEEENSA_IJDpT2_EEEDpOT3_', symObjAddr: 0xBEC0, symBinAddr: 0x1000396F0, symSize: 0x34 }
  - { offsetInCU: 0x1B010, offset: 0x5106D, size: 0x8, addend: 0x0, symName: '__ZNSt3__112__tuple_implINS_15__tuple_indicesIJLm0EEEEJOZN8MQTTPlus6Broker6ListenEvE3$_1EEC2B8ue170006IJLm0EEJS6_EJEJEJS5_EEENS1_IJXspT_EEEENS_13__tuple_typesIJDpT0_EEENS1_IJXspT1_EEEENSA_IJDpT2_EEEDpOT3_', symObjAddr: 0xBEF4, symBinAddr: 0x100039724, symSize: 0x34 }
  - { offsetInCU: 0x1B0A5, offset: 0x51102, size: 0x8, addend: 0x0, symName: '__ZNSt3__112__tuple_leafILm0EOZN8MQTTPlus6Broker6ListenEvE3$_1Lb0EEC2B8ue170006IS3_vEEOT_', symObjAddr: 0xBF28, symBinAddr: 0x100039758, symSize: 0x20 }
  - { offsetInCU: 0x1B0E8, offset: 0x51145, size: 0x8, addend: 0x0, symName: '__ZNSt3__15tupleIJONS_9allocatorIZN8MQTTPlus6Broker6ListenEvE3$_1EEEEC1B8ue170006IJS5_ELi0EEEDpOT_', symObjAddr: 0xBF48, symBinAddr: 0x100039778, symSize: 0x34 }
  - { offsetInCU: 0x1B132, offset: 0x5118F, size: 0x8, addend: 0x0, symName: '__ZNSt3__15tupleIJONS_9allocatorIZN8MQTTPlus6Broker6ListenEvE3$_1EEEEC2B8ue170006IJS5_ELi0EEEDpOT_', symObjAddr: 0xBF7C, symBinAddr: 0x1000397AC, symSize: 0x34 }
  - { offsetInCU: 0x1B17C, offset: 0x511D9, size: 0x8, addend: 0x0, symName: '__ZNSt3__112__tuple_implINS_15__tuple_indicesIJLm0EEEEJONS_9allocatorIZN8MQTTPlus6Broker6ListenEvE3$_1EEEEC1B8ue170006IJLm0EEJS8_EJEJEJS7_EEENS1_IJXspT_EEEENS_13__tuple_typesIJDpT0_EEENS1_IJXspT1_EEEENSC_IJDpT2_EEEDpOT3_', symObjAddr: 0xBFB0, symBinAddr: 0x1000397E0, symSize: 0x34 }
  - { offsetInCU: 0x1B211, offset: 0x5126E, size: 0x8, addend: 0x0, symName: '__ZNSt3__112__tuple_implINS_15__tuple_indicesIJLm0EEEEJONS_9allocatorIZN8MQTTPlus6Broker6ListenEvE3$_1EEEEC2B8ue170006IJLm0EEJS8_EJEJEJS7_EEENS1_IJXspT_EEEENS_13__tuple_typesIJDpT0_EEENS1_IJXspT1_EEEENSC_IJDpT2_EEEDpOT3_', symObjAddr: 0xBFE4, symBinAddr: 0x100039814, symSize: 0x34 }
  - { offsetInCU: 0x1B2A6, offset: 0x51303, size: 0x8, addend: 0x0, symName: '__ZNSt3__112__tuple_leafILm0EONS_9allocatorIZN8MQTTPlus6Broker6ListenEvE3$_1EELb0EEC2B8ue170006IS5_vEEOT_', symObjAddr: 0xC018, symBinAddr: 0x100039848, symSize: 0x20 }
  - { offsetInCU: 0x1B2E9, offset: 0x51346, size: 0x8, addend: 0x0, symName: '__ZNSt3__117__compressed_pairIZN8MQTTPlus6Broker6ListenEvE3$_1NS_9allocatorIS3_EEEC2B8ue170006IJOS3_EJOS5_EEENS_21piecewise_construct_tENS_5tupleIJDpT_EEENSB_IJDpT0_EEE', symObjAddr: 0xC038, symBinAddr: 0x100039868, symSize: 0x54 }
  - { offsetInCU: 0x1B353, offset: 0x513B0, size: 0x8, addend: 0x0, symName: '__ZNSt3__122__compressed_pair_elemIZN8MQTTPlus6Broker6ListenEvE3$_1Li0ELb0EEC2B8ue170006IJOS3_EJLm0EEEENS_21piecewise_construct_tENS_5tupleIJDpT_EEENS_15__tuple_indicesIJXspT0_EEEE', symObjAddr: 0xC08C, symBinAddr: 0x1000398BC, symSize: 0x44 }
  - { offsetInCU: 0x1B3B6, offset: 0x51413, size: 0x8, addend: 0x0, symName: '__ZNSt3__122__compressed_pair_elemINS_9allocatorIZN8MQTTPlus6Broker6ListenEvE3$_1EELi1ELb1EEC2B8ue170006IJOS5_EJLm0EEEENS_21piecewise_construct_tENS_5tupleIJDpT_EEENS_15__tuple_indicesIJXspT0_EEEE', symObjAddr: 0xC0D0, symBinAddr: 0x100039900, symSize: 0x38 }
  - { offsetInCU: 0x1B419, offset: 0x51476, size: 0x8, addend: 0x0, symName: '__ZNSt3__112__tuple_leafILm0EOZN8MQTTPlus6Broker6ListenEvE3$_1Lb0EE3getB8ue170006Ev', symObjAddr: 0xC12C, symBinAddr: 0x10003995C, symSize: 0x18 }
  - { offsetInCU: 0x1B43F, offset: 0x5149C, size: 0x8, addend: 0x0, symName: '__ZNSt3__112__tuple_leafILm0EONS_9allocatorIZN8MQTTPlus6Broker6ListenEvE3$_1EELb0EE3getB8ue170006Ev', symObjAddr: 0xC168, symBinAddr: 0x100039998, symSize: 0x18 }
  - { offsetInCU: 0x1B465, offset: 0x514C2, size: 0x8, addend: 0x0, symName: '__ZNSt3__110__function6__funcIZN8MQTTPlus6Broker6ListenEvE3$_1NS_9allocatorIS4_EEFvPviEED2Ev', symObjAddr: 0xC180, symBinAddr: 0x1000399B0, symSize: 0x2C }
  - { offsetInCU: 0x1B492, offset: 0x514EF, size: 0x8, addend: 0x0, symName: '__ZNKSt3__110__function12__alloc_funcIZN8MQTTPlus6Broker6ListenEvE3$_1NS_9allocatorIS4_EEFvPviEE15__get_allocatorB8ue170006Ev', symObjAddr: 0xC1AC, symBinAddr: 0x1000399DC, symSize: 0x24 }
  - { offsetInCU: 0x1B4B8, offset: 0x51515, size: 0x8, addend: 0x0, symName: '__ZNSt3__19allocatorINS_10__function6__funcIZN8MQTTPlus6Broker6ListenEvE3$_1NS0_IS5_EEFvPviEEEE8allocateB8ue170006Em', symObjAddr: 0xC1D0, symBinAddr: 0x100039A00, symSize: 0x58 }
  - { offsetInCU: 0x1B4FE, offset: 0x5155B, size: 0x8, addend: 0x0, symName: '__ZNSt3__122__allocator_destructorINS_9allocatorINS_10__function6__funcIZN8MQTTPlus6Broker6ListenEvE3$_1NS1_IS6_EEFvPviEEEEEEC1B8ue170006ERSB_m', symObjAddr: 0xC228, symBinAddr: 0x100039A58, symSize: 0x3C }
  - { offsetInCU: 0x1B5F2, offset: 0x5164F, size: 0x8, addend: 0x0, symName: '__ZNSt3__110unique_ptrINS_10__function6__funcIZN8MQTTPlus6Broker6ListenEvE3$_1NS_9allocatorIS5_EEFvPviEEENS_22__allocator_destructorINS6_ISA_EEEEEC1B8ue170006ILb1EvEEPSA_NS_16__dependent_typeINS_27__unique_ptr_deleter_sfinaeISD_EEXT_EE20__good_rval_ref_typeE', symObjAddr: 0xC264, symBinAddr: 0x100039A94, symSize: 0x3C }
  - { offsetInCU: 0x1B643, offset: 0x516A0, size: 0x8, addend: 0x0, symName: '__ZNKSt3__110unique_ptrINS_10__function6__funcIZN8MQTTPlus6Broker6ListenEvE3$_1NS_9allocatorIS5_EEFvPviEEENS_22__allocator_destructorINS6_ISA_EEEEE3getB8ue170006Ev', symObjAddr: 0xC2A0, symBinAddr: 0x100039AD0, symSize: 0x28 }
  - { offsetInCU: 0x1B669, offset: 0x516C6, size: 0x8, addend: 0x0, symName: '__ZNKSt3__110__function12__alloc_funcIZN8MQTTPlus6Broker6ListenEvE3$_1NS_9allocatorIS4_EEFvPviEE8__targetB8ue170006Ev', symObjAddr: 0xC2C8, symBinAddr: 0x100039AF8, symSize: 0x24 }
  - { offsetInCU: 0x1B68F, offset: 0x516EC, size: 0x8, addend: 0x0, symName: '__ZNSt3__110__function6__funcIZN8MQTTPlus6Broker6ListenEvE3$_1NS_9allocatorIS4_EEFvPviEEC1B8ue170006ERKS4_OS6_', symObjAddr: 0xC2EC, symBinAddr: 0x100039B1C, symSize: 0x3C }
  - { offsetInCU: 0x1B6D7, offset: 0x51734, size: 0x8, addend: 0x0, symName: '__ZNSt3__110unique_ptrINS_10__function6__funcIZN8MQTTPlus6Broker6ListenEvE3$_1NS_9allocatorIS5_EEFvPviEEENS_22__allocator_destructorINS6_ISA_EEEEE7releaseB8ue170006Ev', symObjAddr: 0xC328, symBinAddr: 0x100039B58, symSize: 0x44 }
  - { offsetInCU: 0x1B70C, offset: 0x51769, size: 0x8, addend: 0x0, symName: '__ZNSt3__110unique_ptrINS_10__function6__funcIZN8MQTTPlus6Broker6ListenEvE3$_1NS_9allocatorIS5_EEFvPviEEENS_22__allocator_destructorINS6_ISA_EEEEED1B8ue170006Ev', symObjAddr: 0xC36C, symBinAddr: 0x100039B9C, symSize: 0x2C }
  - { offsetInCU: 0x1B736, offset: 0x51793, size: 0x8, addend: 0x0, symName: '__ZNKSt3__117__compressed_pairIZN8MQTTPlus6Broker6ListenEvE3$_1NS_9allocatorIS3_EEE6secondB8ue170006Ev', symObjAddr: 0xC398, symBinAddr: 0x100039BC8, symSize: 0x24 }
  - { offsetInCU: 0x1B75C, offset: 0x517B9, size: 0x8, addend: 0x0, symName: '__ZNKSt3__122__compressed_pair_elemINS_9allocatorIZN8MQTTPlus6Broker6ListenEvE3$_1EELi1ELb1EE5__getB8ue170006Ev', symObjAddr: 0xC3BC, symBinAddr: 0x100039BEC, symSize: 0x14 }
  - { offsetInCU: 0x1B78E, offset: 0x517EB, size: 0x8, addend: 0x0, symName: '__ZNSt3__116allocator_traitsINS_9allocatorINS_10__function6__funcIZN8MQTTPlus6Broker6ListenEvE3$_1NS1_IS6_EEFvPviEEEEEE8max_sizeB8ue170006ISB_vvEEmRKSB_', symObjAddr: 0xC3D0, symBinAddr: 0x100039C00, symSize: 0x28 }
  - { offsetInCU: 0x1B7BA, offset: 0x51817, size: 0x8, addend: 0x0, symName: '__ZNSt3__122__allocator_destructorINS_9allocatorINS_10__function6__funcIZN8MQTTPlus6Broker6ListenEvE3$_1NS1_IS6_EEFvPviEEEEEEC2B8ue170006ERSB_m', symObjAddr: 0xC3F8, symBinAddr: 0x100039C28, symSize: 0x2C }
  - { offsetInCU: 0x1B800, offset: 0x5185D, size: 0x8, addend: 0x0, symName: '__ZNSt3__110unique_ptrINS_10__function6__funcIZN8MQTTPlus6Broker6ListenEvE3$_1NS_9allocatorIS5_EEFvPviEEENS_22__allocator_destructorINS6_ISA_EEEEEC2B8ue170006ILb1EvEEPSA_NS_16__dependent_typeINS_27__unique_ptr_deleter_sfinaeISD_EEXT_EE20__good_rval_ref_typeE', symObjAddr: 0xC424, symBinAddr: 0x100039C54, symSize: 0x48 }
  - { offsetInCU: 0x1B851, offset: 0x518AE, size: 0x8, addend: 0x0, symName: '__ZNSt3__117__compressed_pairIPNS_10__function6__funcIZN8MQTTPlus6Broker6ListenEvE3$_1NS_9allocatorIS5_EEFvPviEEENS_22__allocator_destructorINS6_ISA_EEEEEC1B8ue170006IRSB_SE_EEOT_OT0_', symObjAddr: 0xC46C, symBinAddr: 0x100039C9C, symSize: 0x3C }
  - { offsetInCU: 0x1B8A9, offset: 0x51906, size: 0x8, addend: 0x0, symName: '__ZNSt3__117__compressed_pairIPNS_10__function6__funcIZN8MQTTPlus6Broker6ListenEvE3$_1NS_9allocatorIS5_EEFvPviEEENS_22__allocator_destructorINS6_ISA_EEEEEC2B8ue170006IRSB_SE_EEOT_OT0_', symObjAddr: 0xC4A8, symBinAddr: 0x100039CD8, symSize: 0x48 }
  - { offsetInCU: 0x1B901, offset: 0x5195E, size: 0x8, addend: 0x0, symName: '__ZNSt3__122__compressed_pair_elemIPNS_10__function6__funcIZN8MQTTPlus6Broker6ListenEvE3$_1NS_9allocatorIS5_EEFvPviEEELi0ELb0EEC2B8ue170006IRSB_vEEOT_', symObjAddr: 0xC4F0, symBinAddr: 0x100039D20, symSize: 0x24 }
  - { offsetInCU: 0x1B943, offset: 0x519A0, size: 0x8, addend: 0x0, symName: '__ZNSt3__122__compressed_pair_elemINS_22__allocator_destructorINS_9allocatorINS_10__function6__funcIZN8MQTTPlus6Broker6ListenEvE3$_1NS2_IS7_EEFvPviEEEEEEELi1ELb0EEC2B8ue170006ISD_vEEOT_', symObjAddr: 0xC514, symBinAddr: 0x100039D44, symSize: 0x24 }
  - { offsetInCU: 0x1B985, offset: 0x519E2, size: 0x8, addend: 0x0, symName: '__ZNKSt3__117__compressed_pairIPNS_10__function6__funcIZN8MQTTPlus6Broker6ListenEvE3$_1NS_9allocatorIS5_EEFvPviEEENS_22__allocator_destructorINS6_ISA_EEEEE5firstB8ue170006Ev', symObjAddr: 0xC538, symBinAddr: 0x100039D68, symSize: 0x24 }
  - { offsetInCU: 0x1B9AB, offset: 0x51A08, size: 0x8, addend: 0x0, symName: '__ZNKSt3__122__compressed_pair_elemIPNS_10__function6__funcIZN8MQTTPlus6Broker6ListenEvE3$_1NS_9allocatorIS5_EEFvPviEEELi0ELb0EE5__getB8ue170006Ev', symObjAddr: 0xC55C, symBinAddr: 0x100039D8C, symSize: 0x14 }
  - { offsetInCU: 0x1B9D1, offset: 0x51A2E, size: 0x8, addend: 0x0, symName: '__ZNKSt3__117__compressed_pairIZN8MQTTPlus6Broker6ListenEvE3$_1NS_9allocatorIS3_EEE5firstB8ue170006Ev', symObjAddr: 0xC570, symBinAddr: 0x100039DA0, symSize: 0x24 }
  - { offsetInCU: 0x1B9F7, offset: 0x51A54, size: 0x8, addend: 0x0, symName: '__ZNKSt3__122__compressed_pair_elemIZN8MQTTPlus6Broker6ListenEvE3$_1Li0ELb0EE5__getB8ue170006Ev', symObjAddr: 0xC594, symBinAddr: 0x100039DC4, symSize: 0x14 }
  - { offsetInCU: 0x1BA1D, offset: 0x51A7A, size: 0x8, addend: 0x0, symName: '__ZNSt3__110__function6__funcIZN8MQTTPlus6Broker6ListenEvE3$_1NS_9allocatorIS4_EEFvPviEEC2B8ue170006ERKS4_OS6_', symObjAddr: 0xC5A8, symBinAddr: 0x100039DD8, symSize: 0x88 }
  - { offsetInCU: 0x1BA65, offset: 0x51AC2, size: 0x8, addend: 0x0, symName: '__ZNSt3__110__function12__alloc_funcIZN8MQTTPlus6Broker6ListenEvE3$_1NS_9allocatorIS4_EEFvPviEEC1B8ue170006ERKS4_OS6_', symObjAddr: 0xC630, symBinAddr: 0x100039E60, symSize: 0x3C }
  - { offsetInCU: 0x1BAAB, offset: 0x51B08, size: 0x8, addend: 0x0, symName: '__ZNSt3__110__function12__alloc_funcIZN8MQTTPlus6Broker6ListenEvE3$_1NS_9allocatorIS4_EEFvPviEEC2B8ue170006ERKS4_OS6_', symObjAddr: 0xC66C, symBinAddr: 0x100039E9C, symSize: 0x5C }
  - { offsetInCU: 0x1BAF1, offset: 0x51B4E, size: 0x8, addend: 0x0, symName: '__ZNSt3__117__compressed_pairIZN8MQTTPlus6Broker6ListenEvE3$_1NS_9allocatorIS3_EEEC1B8ue170006IJRKS3_EJOS5_EEENS_21piecewise_construct_tENS_5tupleIJDpT_EEENSC_IJDpT0_EEE', symObjAddr: 0xC6F4, symBinAddr: 0x100039F24, symSize: 0x3C }
  - { offsetInCU: 0x1BB5B, offset: 0x51BB8, size: 0x8, addend: 0x0, symName: '__ZNSt3__15tupleIJRKZN8MQTTPlus6Broker6ListenEvE3$_1EEC1B8ue170006INS_4_AndELi0EEES5_', symObjAddr: 0xC730, symBinAddr: 0x100039F60, symSize: 0x34 }
  - { offsetInCU: 0x1BBA3, offset: 0x51C00, size: 0x8, addend: 0x0, symName: '__ZNSt3__15tupleIJRKZN8MQTTPlus6Broker6ListenEvE3$_1EEC2B8ue170006INS_4_AndELi0EEES5_', symObjAddr: 0xC764, symBinAddr: 0x100039F94, symSize: 0x34 }
  - { offsetInCU: 0x1BBEB, offset: 0x51C48, size: 0x8, addend: 0x0, symName: '__ZNSt3__112__tuple_implINS_15__tuple_indicesIJLm0EEEEJRKZN8MQTTPlus6Broker6ListenEvE3$_1EEC1B8ue170006IJLm0EEJS7_EJEJEJS7_EEENS1_IJXspT_EEEENS_13__tuple_typesIJDpT0_EEENS1_IJXspT1_EEEENSB_IJDpT2_EEEDpOT3_', symObjAddr: 0xC798, symBinAddr: 0x100039FC8, symSize: 0x34 }
  - { offsetInCU: 0x1BC80, offset: 0x51CDD, size: 0x8, addend: 0x0, symName: '__ZNSt3__112__tuple_implINS_15__tuple_indicesIJLm0EEEEJRKZN8MQTTPlus6Broker6ListenEvE3$_1EEC2B8ue170006IJLm0EEJS7_EJEJEJS7_EEENS1_IJXspT_EEEENS_13__tuple_typesIJDpT0_EEENS1_IJXspT1_EEEENSB_IJDpT2_EEEDpOT3_', symObjAddr: 0xC7CC, symBinAddr: 0x100039FFC, symSize: 0x34 }
  - { offsetInCU: 0x1BD15, offset: 0x51D72, size: 0x8, addend: 0x0, symName: '__ZNSt3__112__tuple_leafILm0ERKZN8MQTTPlus6Broker6ListenEvE3$_1Lb0EEC2B8ue170006IS5_vEEOT_', symObjAddr: 0xC800, symBinAddr: 0x10003A030, symSize: 0x20 }
  - { offsetInCU: 0x1BD58, offset: 0x51DB5, size: 0x8, addend: 0x0, symName: '__ZNSt3__117__compressed_pairIZN8MQTTPlus6Broker6ListenEvE3$_1NS_9allocatorIS3_EEEC2B8ue170006IJRKS3_EJOS5_EEENS_21piecewise_construct_tENS_5tupleIJDpT_EEENSC_IJDpT0_EEE', symObjAddr: 0xC820, symBinAddr: 0x10003A050, symSize: 0x54 }
  - { offsetInCU: 0x1BDC2, offset: 0x51E1F, size: 0x8, addend: 0x0, symName: '__ZNSt3__122__compressed_pair_elemIZN8MQTTPlus6Broker6ListenEvE3$_1Li0ELb0EEC2B8ue170006IJRKS3_EJLm0EEEENS_21piecewise_construct_tENS_5tupleIJDpT_EEENS_15__tuple_indicesIJXspT0_EEEE', symObjAddr: 0xC874, symBinAddr: 0x10003A0A4, symSize: 0x44 }
  - { offsetInCU: 0x1BE25, offset: 0x51E82, size: 0x8, addend: 0x0, symName: '__ZNSt3__112__tuple_leafILm0ERKZN8MQTTPlus6Broker6ListenEvE3$_1Lb0EE3getB8ue170006Ev', symObjAddr: 0xC8DC, symBinAddr: 0x10003A10C, symSize: 0x18 }
  - { offsetInCU: 0x1BE4B, offset: 0x51EA8, size: 0x8, addend: 0x0, symName: '__ZNSt3__117__compressed_pairIPNS_10__function6__funcIZN8MQTTPlus6Broker6ListenEvE3$_1NS_9allocatorIS5_EEFvPviEEENS_22__allocator_destructorINS6_ISA_EEEEE5firstB8ue170006Ev', symObjAddr: 0xC8F4, symBinAddr: 0x10003A124, symSize: 0x24 }
  - { offsetInCU: 0x1BE71, offset: 0x51ECE, size: 0x8, addend: 0x0, symName: '__ZNSt3__122__compressed_pair_elemIPNS_10__function6__funcIZN8MQTTPlus6Broker6ListenEvE3$_1NS_9allocatorIS5_EEFvPviEEELi0ELb0EE5__getB8ue170006Ev', symObjAddr: 0xC918, symBinAddr: 0x10003A148, symSize: 0x14 }
  - { offsetInCU: 0x1BE97, offset: 0x51EF4, size: 0x8, addend: 0x0, symName: '__ZNSt3__110unique_ptrINS_10__function6__funcIZN8MQTTPlus6Broker6ListenEvE3$_1NS_9allocatorIS5_EEFvPviEEENS_22__allocator_destructorINS6_ISA_EEEEED2B8ue170006Ev', symObjAddr: 0xC92C, symBinAddr: 0x10003A15C, symSize: 0x30 }
  - { offsetInCU: 0x1BEC1, offset: 0x51F1E, size: 0x8, addend: 0x0, symName: '__ZNSt3__110unique_ptrINS_10__function6__funcIZN8MQTTPlus6Broker6ListenEvE3$_1NS_9allocatorIS5_EEFvPviEEENS_22__allocator_destructorINS6_ISA_EEEEE5resetB8ue170006EPSA_', symObjAddr: 0xC95C, symBinAddr: 0x10003A18C, symSize: 0x78 }
  - { offsetInCU: 0x1BF05, offset: 0x51F62, size: 0x8, addend: 0x0, symName: '__ZNSt3__117__compressed_pairIPNS_10__function6__funcIZN8MQTTPlus6Broker6ListenEvE3$_1NS_9allocatorIS5_EEFvPviEEENS_22__allocator_destructorINS6_ISA_EEEEE6secondB8ue170006Ev', symObjAddr: 0xC9D4, symBinAddr: 0x10003A204, symSize: 0x28 }
  - { offsetInCU: 0x1BF2B, offset: 0x51F88, size: 0x8, addend: 0x0, symName: '__ZNSt3__122__allocator_destructorINS_9allocatorINS_10__function6__funcIZN8MQTTPlus6Broker6ListenEvE3$_1NS1_IS6_EEFvPviEEEEEEclB8ue170006EPSA_', symObjAddr: 0xC9FC, symBinAddr: 0x10003A22C, symSize: 0x34 }
  - { offsetInCU: 0x1BF5F, offset: 0x51FBC, size: 0x8, addend: 0x0, symName: '__ZNSt3__122__compressed_pair_elemINS_22__allocator_destructorINS_9allocatorINS_10__function6__funcIZN8MQTTPlus6Broker6ListenEvE3$_1NS2_IS7_EEFvPviEEEEEEELi1ELb0EE5__getB8ue170006Ev', symObjAddr: 0xCA30, symBinAddr: 0x10003A260, symSize: 0x14 }
  - { offsetInCU: 0x1BF85, offset: 0x51FE2, size: 0x8, addend: 0x0, symName: '__ZNSt3__116allocator_traitsINS_9allocatorINS_10__function6__funcIZN8MQTTPlus6Broker6ListenEvE3$_1NS1_IS6_EEFvPviEEEEEE10deallocateB8ue170006ERSB_PSA_m', symObjAddr: 0xCA44, symBinAddr: 0x10003A274, symSize: 0x34 }
  - { offsetInCU: 0x1BFC7, offset: 0x52024, size: 0x8, addend: 0x0, symName: '__ZNSt3__19allocatorINS_10__function6__funcIZN8MQTTPlus6Broker6ListenEvE3$_1NS0_IS5_EEFvPviEEEE10deallocateB8ue170006EPS9_m', symObjAddr: 0xCA78, symBinAddr: 0x10003A2A8, symSize: 0x40 }
  - { offsetInCU: 0x1C009, offset: 0x52066, size: 0x8, addend: 0x0, symName: '__ZNSt3__110__function6__funcIZN8MQTTPlus6Broker6ListenEvE3$_1NS_9allocatorIS4_EEFvPviEEC1B8ue170006ERKS4_RKS6_', symObjAddr: 0xCAB8, symBinAddr: 0x10003A2E8, symSize: 0x3C }
  - { offsetInCU: 0x1C051, offset: 0x520AE, size: 0x8, addend: 0x0, symName: '__ZNSt3__110__function6__funcIZN8MQTTPlus6Broker6ListenEvE3$_1NS_9allocatorIS4_EEFvPviEEC2B8ue170006ERKS4_RKS6_', symObjAddr: 0xCAF4, symBinAddr: 0x10003A324, symSize: 0x88 }
  - { offsetInCU: 0x1C099, offset: 0x520F6, size: 0x8, addend: 0x0, symName: '__ZNSt3__110__function12__alloc_funcIZN8MQTTPlus6Broker6ListenEvE3$_1NS_9allocatorIS4_EEFvPviEEC1B8ue170006ERKS4_RKS6_', symObjAddr: 0xCB7C, symBinAddr: 0x10003A3AC, symSize: 0x3C }
  - { offsetInCU: 0x1C0DF, offset: 0x5213C, size: 0x8, addend: 0x0, symName: '__ZNSt3__110__function12__alloc_funcIZN8MQTTPlus6Broker6ListenEvE3$_1NS_9allocatorIS4_EEFvPviEEC2B8ue170006ERKS4_RKS6_', symObjAddr: 0xCBB8, symBinAddr: 0x10003A3E8, symSize: 0x5C }
  - { offsetInCU: 0x1C125, offset: 0x52182, size: 0x8, addend: 0x0, symName: '__ZNSt3__117__compressed_pairIZN8MQTTPlus6Broker6ListenEvE3$_1NS_9allocatorIS3_EEEC1B8ue170006IJRKS3_EJRKS5_EEENS_21piecewise_construct_tENS_5tupleIJDpT_EEENSD_IJDpT0_EEE', symObjAddr: 0xCC40, symBinAddr: 0x10003A470, symSize: 0x3C }
  - { offsetInCU: 0x1C18F, offset: 0x521EC, size: 0x8, addend: 0x0, symName: '__ZNSt3__15tupleIJRKNS_9allocatorIZN8MQTTPlus6Broker6ListenEvE3$_1EEEEC1B8ue170006INS_4_AndELi0EEES7_', symObjAddr: 0xCC7C, symBinAddr: 0x10003A4AC, symSize: 0x34 }
  - { offsetInCU: 0x1C1D7, offset: 0x52234, size: 0x8, addend: 0x0, symName: '__ZNSt3__15tupleIJRKNS_9allocatorIZN8MQTTPlus6Broker6ListenEvE3$_1EEEEC2B8ue170006INS_4_AndELi0EEES7_', symObjAddr: 0xCCB0, symBinAddr: 0x10003A4E0, symSize: 0x34 }
  - { offsetInCU: 0x1C21F, offset: 0x5227C, size: 0x8, addend: 0x0, symName: '__ZNSt3__112__tuple_implINS_15__tuple_indicesIJLm0EEEEJRKNS_9allocatorIZN8MQTTPlus6Broker6ListenEvE3$_1EEEEC1B8ue170006IJLm0EEJS9_EJEJEJS9_EEENS1_IJXspT_EEEENS_13__tuple_typesIJDpT0_EEENS1_IJXspT1_EEEENSD_IJDpT2_EEEDpOT3_', symObjAddr: 0xCCE4, symBinAddr: 0x10003A514, symSize: 0x34 }
  - { offsetInCU: 0x1C2B4, offset: 0x52311, size: 0x8, addend: 0x0, symName: '__ZNSt3__112__tuple_implINS_15__tuple_indicesIJLm0EEEEJRKNS_9allocatorIZN8MQTTPlus6Broker6ListenEvE3$_1EEEEC2B8ue170006IJLm0EEJS9_EJEJEJS9_EEENS1_IJXspT_EEEENS_13__tuple_typesIJDpT0_EEENS1_IJXspT1_EEEENSD_IJDpT2_EEEDpOT3_', symObjAddr: 0xCD18, symBinAddr: 0x10003A548, symSize: 0x34 }
  - { offsetInCU: 0x1C349, offset: 0x523A6, size: 0x8, addend: 0x0, symName: '__ZNSt3__112__tuple_leafILm0ERKNS_9allocatorIZN8MQTTPlus6Broker6ListenEvE3$_1EELb0EEC2B8ue170006IS7_vEEOT_', symObjAddr: 0xCD4C, symBinAddr: 0x10003A57C, symSize: 0x20 }
  - { offsetInCU: 0x1C38C, offset: 0x523E9, size: 0x8, addend: 0x0, symName: '__ZNSt3__117__compressed_pairIZN8MQTTPlus6Broker6ListenEvE3$_1NS_9allocatorIS3_EEEC2B8ue170006IJRKS3_EJRKS5_EEENS_21piecewise_construct_tENS_5tupleIJDpT_EEENSD_IJDpT0_EEE', symObjAddr: 0xCD6C, symBinAddr: 0x10003A59C, symSize: 0x54 }
  - { offsetInCU: 0x1C3F6, offset: 0x52453, size: 0x8, addend: 0x0, symName: '__ZNSt3__122__compressed_pair_elemINS_9allocatorIZN8MQTTPlus6Broker6ListenEvE3$_1EELi1ELb1EEC2B8ue170006IJRKS5_EJLm0EEEENS_21piecewise_construct_tENS_5tupleIJDpT_EEENS_15__tuple_indicesIJXspT0_EEEE', symObjAddr: 0xCDC0, symBinAddr: 0x10003A5F0, symSize: 0x38 }
  - { offsetInCU: 0x1C459, offset: 0x524B6, size: 0x8, addend: 0x0, symName: '__ZNSt3__112__tuple_leafILm0ERKNS_9allocatorIZN8MQTTPlus6Broker6ListenEvE3$_1EELb0EE3getB8ue170006Ev', symObjAddr: 0xCE1C, symBinAddr: 0x10003A64C, symSize: 0x18 }
  - { offsetInCU: 0x1C47F, offset: 0x524DC, size: 0x8, addend: 0x0, symName: '__ZNSt3__110__function12__alloc_funcIZN8MQTTPlus6Broker6ListenEvE3$_1NS_9allocatorIS4_EEFvPviEE7destroyB8ue170006Ev', symObjAddr: 0xCE34, symBinAddr: 0x10003A664, symSize: 0x10 }
  - { offsetInCU: 0x1C4A5, offset: 0x52502, size: 0x8, addend: 0x0, symName: '__ZNSt3__110__function12__alloc_funcIZN8MQTTPlus6Broker6ListenEvE3$_1NS_9allocatorIS4_EEFvPviEEclB8ue170006EOS7_Oi', symObjAddr: 0xCE44, symBinAddr: 0x10003A674, symSize: 0x38 }
  - { offsetInCU: 0x1C4E7, offset: 0x52544, size: 0x8, addend: 0x0, symName: '__ZNSt3__128__invoke_void_return_wrapperIvLb1EE6__callB8ue170006IJRZN8MQTTPlus6Broker6ListenEvE3$_1PviEEEvDpOT_', symObjAddr: 0xCE7C, symBinAddr: 0x10003A6AC, symSize: 0x34 }
  - { offsetInCU: 0x1C53E, offset: 0x5259B, size: 0x8, addend: 0x0, symName: '__ZNSt3__117__compressed_pairIZN8MQTTPlus6Broker6ListenEvE3$_1NS_9allocatorIS3_EEE5firstB8ue170006Ev', symObjAddr: 0xCEB0, symBinAddr: 0x10003A6E0, symSize: 0x24 }
  - { offsetInCU: 0x1C56A, offset: 0x525C7, size: 0x8, addend: 0x0, symName: '__ZZN8MQTTPlus6Broker6ListenEvENK3$_1clEPvi', symObjAddr: 0xCF10, symBinAddr: 0x10003A740, symSize: 0x94 }
  - { offsetInCU: 0x1C5BF, offset: 0x5261C, size: 0x8, addend: 0x0, symName: __ZNSt3__113unordered_mapIPv3RefIN8MQTTPlus6ClientEENS_4hashIS1_EENS_8equal_toIS1_EENS_9allocatorINS_4pairIKS1_S5_EEEEE4findB8ue170006ERSC_, symObjAddr: 0xCFA4, symBinAddr: 0x10003A7D4, symSize: 0x40 }
  - { offsetInCU: 0x1C5F4, offset: 0x52651, size: 0x8, addend: 0x0, symName: __ZNSt3__113unordered_mapIPv3RefIN8MQTTPlus6ClientEENS_4hashIS1_EENS_8equal_toIS1_EENS_9allocatorINS_4pairIKS1_S5_EEEEE3endB8ue170006Ev, symObjAddr: 0xD014, symBinAddr: 0x10003A844, symSize: 0x38 }
  - { offsetInCU: 0x1C61A, offset: 0x52677, size: 0x8, addend: 0x0, symName: __ZNSt3__113unordered_mapIPv3RefIN8MQTTPlus6ClientEENS_4hashIS1_EENS_8equal_toIS1_EENS_9allocatorINS_4pairIKS1_S5_EEEEE5eraseB8ue170006ENS_19__hash_map_iteratorINS_15__hash_iteratorIPNS_11__hash_nodeINS_17__hash_value_typeIS1_S5_EES1_EEEEEE, symObjAddr: 0xD04C, symBinAddr: 0x10003A87C, symSize: 0x58 }
  - { offsetInCU: 0x1C64F, offset: 0x526AC, size: 0x8, addend: 0x0, symName: __ZNSt3__112__hash_tableINS_17__hash_value_typeIPv3RefIN8MQTTPlus6ClientEEEENS_22__unordered_map_hasherIS2_S7_NS_4hashIS2_EENS_8equal_toIS2_EELb1EEENS_21__unordered_map_equalIS2_S7_SC_SA_Lb1EEENS_9allocatorIS7_EEE4findIS2_EENS_15__hash_iteratorIPNS_11__hash_nodeIS7_S2_EEEERKT_, symObjAddr: 0xD0A4, symBinAddr: 0x10003A8D4, symSize: 0x1B0 }
  - { offsetInCU: 0x1C6D9, offset: 0x52736, size: 0x8, addend: 0x0, symName: __ZNSt3__119__hash_map_iteratorINS_15__hash_iteratorIPNS_11__hash_nodeINS_17__hash_value_typeIPv3RefIN8MQTTPlus6ClientEEEES4_EEEEEC1B8ue170006ESC_, symObjAddr: 0xD254, symBinAddr: 0x10003AA84, symSize: 0x34 }
  - { offsetInCU: 0x1C712, offset: 0x5276F, size: 0x8, addend: 0x0, symName: __ZNSt3__112__hash_tableINS_17__hash_value_typeIPv3RefIN8MQTTPlus6ClientEEEENS_22__unordered_map_hasherIS2_S7_NS_4hashIS2_EENS_8equal_toIS2_EELb1EEENS_21__unordered_map_equalIS2_S7_SC_SA_Lb1EEENS_9allocatorIS7_EEE3endEv, symObjAddr: 0xD288, symBinAddr: 0x10003AAB8, symSize: 0x2C }
  - { offsetInCU: 0x1C73A, offset: 0x52797, size: 0x8, addend: 0x0, symName: __ZNSt3__119__hash_map_iteratorINS_15__hash_iteratorIPNS_11__hash_nodeINS_17__hash_value_typeIPv3RefIN8MQTTPlus6ClientEEEES4_EEEEEC2B8ue170006ESC_, symObjAddr: 0xD2B4, symBinAddr: 0x10003AAE4, symSize: 0x20 }
  - { offsetInCU: 0x1C773, offset: 0x527D0, size: 0x8, addend: 0x0, symName: __ZNSt3__112__hash_tableINS_17__hash_value_typeIPv3RefIN8MQTTPlus6ClientEEEENS_22__unordered_map_hasherIS2_S7_NS_4hashIS2_EENS_8equal_toIS2_EELb1EEENS_21__unordered_map_equalIS2_S7_SC_SA_Lb1EEENS_9allocatorIS7_EEE5eraseENS_21__hash_const_iteratorIPNS_11__hash_nodeIS7_S2_EEEE, symObjAddr: 0xD304, symBinAddr: 0x10003AB34, symSize: 0x70 }
  - { offsetInCU: 0x1C7C8, offset: 0x52825, size: 0x8, addend: 0x0, symName: __ZNSt3__121__hash_const_iteratorIPNS_11__hash_nodeINS_17__hash_value_typeIPv3RefIN8MQTTPlus6ClientEEEES3_EEEC1B8ue170006ERKNS_15__hash_iteratorISA_EE, symObjAddr: 0xD374, symBinAddr: 0x10003ABA4, symSize: 0x34 }
  - { offsetInCU: 0x1C801, offset: 0x5285E, size: 0x8, addend: 0x0, symName: __ZNSt3__115__hash_iteratorIPNS_11__hash_nodeINS_17__hash_value_typeIPv3RefIN8MQTTPlus6ClientEEEES3_EEEppB8ue170006Ev, symObjAddr: 0xD3A8, symBinAddr: 0x10003ABD8, symSize: 0x20 }
  - { offsetInCU: 0x1C827, offset: 0x52884, size: 0x8, addend: 0x0, symName: __ZNSt3__112__hash_tableINS_17__hash_value_typeIPv3RefIN8MQTTPlus6ClientEEEENS_22__unordered_map_hasherIS2_S7_NS_4hashIS2_EENS_8equal_toIS2_EELb1EEENS_21__unordered_map_equalIS2_S7_SC_SA_Lb1EEENS_9allocatorIS7_EEE6removeENS_21__hash_const_iteratorIPNS_11__hash_nodeIS7_S2_EEEE, symObjAddr: 0xD3C8, symBinAddr: 0x10003ABF8, symSize: 0x220 }
  - { offsetInCU: 0x1C8B8, offset: 0x52915, size: 0x8, addend: 0x0, symName: __ZNSt3__121__hash_const_iteratorIPNS_11__hash_nodeINS_17__hash_value_typeIPv3RefIN8MQTTPlus6ClientEEEES3_EEEC2B8ue170006ERKNS_15__hash_iteratorISA_EE, symObjAddr: 0xD5E8, symBinAddr: 0x10003AE18, symSize: 0x24 }
  - { offsetInCU: 0x1C8F1, offset: 0x5294E, size: 0x8, addend: 0x0, symName: '__ZNSt3__122__compressed_pair_elemIZN8MQTTPlus6Broker6ListenEvE3$_1Li0ELb0EE5__getB8ue170006Ev', symObjAddr: 0xD60C, symBinAddr: 0x10003AE3C, symSize: 0x14 }
  - { offsetInCU: 0x1C917, offset: 0x52974, size: 0x8, addend: 0x0, symName: '__ZNSt3__18functionIFvPvPciEEC2IZN8MQTTPlus6Broker6ListenEvE3$_2vEET_', symObjAddr: 0xD620, symBinAddr: 0x10003AE50, symSize: 0x38 }
  - { offsetInCU: 0x1C95C, offset: 0x529B9, size: 0x8, addend: 0x0, symName: '__ZNSt3__110__function12__value_funcIFvPvPciEEC1B8ue170006IZN8MQTTPlus6Broker6ListenEvE3$_2vEEOT_', symObjAddr: 0xD658, symBinAddr: 0x10003AE88, symSize: 0x50 }
  - { offsetInCU: 0x1C99F, offset: 0x529FC, size: 0x8, addend: 0x0, symName: '__ZNSt3__19allocatorIZN8MQTTPlus6Broker6ListenEvE3$_2EC1B8ue170006Ev', symObjAddr: 0xD6A8, symBinAddr: 0x10003AED8, symSize: 0x2C }
  - { offsetInCU: 0x1C9C9, offset: 0x52A26, size: 0x8, addend: 0x0, symName: '__ZNSt3__110__function12__value_funcIFvPvPciEEC1B8ue170006IZN8MQTTPlus6Broker6ListenEvE3$_2NS_9allocatorIS9_EEEEOT_RKT0_', symObjAddr: 0xD6D4, symBinAddr: 0x10003AF04, symSize: 0x3C }
  - { offsetInCU: 0x1CA23, offset: 0x52A80, size: 0x8, addend: 0x0, symName: '__ZNSt3__19allocatorIZN8MQTTPlus6Broker6ListenEvE3$_2EC2B8ue170006Ev', symObjAddr: 0xD710, symBinAddr: 0x10003AF40, symSize: 0x2C }
  - { offsetInCU: 0x1CA4D, offset: 0x52AAA, size: 0x8, addend: 0x0, symName: '__ZNSt3__116__non_trivial_ifILb1ENS_9allocatorIZN8MQTTPlus6Broker6ListenEvE3$_2EEEC2B8ue170006Ev', symObjAddr: 0xD73C, symBinAddr: 0x10003AF6C, symSize: 0x14 }
  - { offsetInCU: 0x1CA77, offset: 0x52AD4, size: 0x8, addend: 0x0, symName: '__ZNSt3__110__function12__value_funcIFvPvPciEEC2B8ue170006IZN8MQTTPlus6Broker6ListenEvE3$_2NS_9allocatorIS9_EEEEOT_RKT0_', symObjAddr: 0xD750, symBinAddr: 0x10003AF80, symSize: 0x94 }
  - { offsetInCU: 0x1CB06, offset: 0x52B63, size: 0x8, addend: 0x0, symName: '__ZNSt3__19allocatorINS_10__function6__funcIZN8MQTTPlus6Broker6ListenEvE3$_2NS0_IS5_EEFvPvPciEEEEC1B8ue170006IS5_EERKNS0_IT_EE', symObjAddr: 0xD7FC, symBinAddr: 0x10003B02C, symSize: 0x34 }
  - { offsetInCU: 0x1CB4F, offset: 0x52BAC, size: 0x8, addend: 0x0, symName: '__ZNSt3__19allocatorIZN8MQTTPlus6Broker6ListenEvE3$_2EC1B8ue170006INS_10__function6__funcIS3_S4_FvPvPciEEEEERKNS0_IT_EE', symObjAddr: 0xD830, symBinAddr: 0x10003B060, symSize: 0x34 }
  - { offsetInCU: 0x1CB8C, offset: 0x52BE9, size: 0x8, addend: 0x0, symName: '__ZNSt3__110__function6__funcIZN8MQTTPlus6Broker6ListenEvE3$_2NS_9allocatorIS4_EEFvPvPciEEC1B8ue170006EOS4_OS6_', symObjAddr: 0xD864, symBinAddr: 0x10003B094, symSize: 0x3C }
  - { offsetInCU: 0x1CBD4, offset: 0x52C31, size: 0x8, addend: 0x0, symName: '__ZNSt3__19allocatorINS_10__function6__funcIZN8MQTTPlus6Broker6ListenEvE3$_2NS0_IS5_EEFvPvPciEEEEC2B8ue170006IS5_EERKNS0_IT_EE', symObjAddr: 0xD8A0, symBinAddr: 0x10003B0D0, symSize: 0x30 }
  - { offsetInCU: 0x1CC11, offset: 0x52C6E, size: 0x8, addend: 0x0, symName: '__ZNSt3__116__non_trivial_ifILb1ENS_9allocatorINS_10__function6__funcIZN8MQTTPlus6Broker6ListenEvE3$_2NS1_IS6_EEFvPvPciEEEEEEC2B8ue170006Ev', symObjAddr: 0xD8D0, symBinAddr: 0x10003B100, symSize: 0x14 }
  - { offsetInCU: 0x1CC3B, offset: 0x52C98, size: 0x8, addend: 0x0, symName: '__ZNSt3__19allocatorIZN8MQTTPlus6Broker6ListenEvE3$_2EC2B8ue170006INS_10__function6__funcIS3_S4_FvPvPciEEEEERKNS0_IT_EE', symObjAddr: 0xD8E4, symBinAddr: 0x10003B114, symSize: 0x30 }
  - { offsetInCU: 0x1CC78, offset: 0x52CD5, size: 0x8, addend: 0x0, symName: '__ZNSt3__110__function6__funcIZN8MQTTPlus6Broker6ListenEvE3$_2NS_9allocatorIS4_EEFvPvPciEEC2B8ue170006EOS4_OS6_', symObjAddr: 0xD914, symBinAddr: 0x10003B144, symSize: 0x88 }
  - { offsetInCU: 0x1CCC0, offset: 0x52D1D, size: 0x8, addend: 0x0, symName: __ZNSt3__110__function6__baseIFvPvPciEEC2B8ue170006Ev, symObjAddr: 0xD99C, symBinAddr: 0x10003B1CC, symSize: 0x24 }
  - { offsetInCU: 0x1CCEA, offset: 0x52D47, size: 0x8, addend: 0x0, symName: '__ZNSt3__110__function12__alloc_funcIZN8MQTTPlus6Broker6ListenEvE3$_2NS_9allocatorIS4_EEFvPvPciEEC1B8ue170006EOS4_OS6_', symObjAddr: 0xD9C0, symBinAddr: 0x10003B1F0, symSize: 0x3C }
  - { offsetInCU: 0x1CD30, offset: 0x52D8D, size: 0x8, addend: 0x0, symName: __ZNSt3__110__function6__baseIFvPvPciEED2Ev, symObjAddr: 0xD9FC, symBinAddr: 0x10003B22C, symSize: 0x14 }
  - { offsetInCU: 0x1CD5A, offset: 0x52DB7, size: 0x8, addend: 0x0, symName: '__ZNSt3__110__function6__funcIZN8MQTTPlus6Broker6ListenEvE3$_2NS_9allocatorIS4_EEFvPvPciEED1Ev', symObjAddr: 0xDA10, symBinAddr: 0x10003B240, symSize: 0x2C }
  - { offsetInCU: 0x1CD87, offset: 0x52DE4, size: 0x8, addend: 0x0, symName: '__ZNSt3__110__function6__funcIZN8MQTTPlus6Broker6ListenEvE3$_2NS_9allocatorIS4_EEFvPvPciEED0Ev', symObjAddr: 0xDA3C, symBinAddr: 0x10003B26C, symSize: 0x30 }
  - { offsetInCU: 0x1CDB4, offset: 0x52E11, size: 0x8, addend: 0x0, symName: '__ZNKSt3__110__function6__funcIZN8MQTTPlus6Broker6ListenEvE3$_2NS_9allocatorIS4_EEFvPvPciEE7__cloneEv', symObjAddr: 0xDA6C, symBinAddr: 0x10003B29C, symSize: 0xFC }
  - { offsetInCU: 0x1CE06, offset: 0x52E63, size: 0x8, addend: 0x0, symName: '__ZNKSt3__110__function6__funcIZN8MQTTPlus6Broker6ListenEvE3$_2NS_9allocatorIS4_EEFvPvPciEE7__cloneEPNS0_6__baseIS9_EE', symObjAddr: 0xDB68, symBinAddr: 0x10003B398, symSize: 0x58 }
  - { offsetInCU: 0x1CE3D, offset: 0x52E9A, size: 0x8, addend: 0x0, symName: '__ZNSt3__110__function6__funcIZN8MQTTPlus6Broker6ListenEvE3$_2NS_9allocatorIS4_EEFvPvPciEE7destroyEv', symObjAddr: 0xDBC0, symBinAddr: 0x10003B3F0, symSize: 0x28 }
  - { offsetInCU: 0x1CE65, offset: 0x52EC2, size: 0x8, addend: 0x0, symName: '__ZNSt3__110__function6__funcIZN8MQTTPlus6Broker6ListenEvE3$_2NS_9allocatorIS4_EEFvPvPciEE18destroy_deallocateEv', symObjAddr: 0xDBE8, symBinAddr: 0x10003B418, symSize: 0x58 }
  - { offsetInCU: 0x1CEA8, offset: 0x52F05, size: 0x8, addend: 0x0, symName: '__ZNSt3__110__function6__funcIZN8MQTTPlus6Broker6ListenEvE3$_2NS_9allocatorIS4_EEFvPvPciEEclEOS7_OS8_Oi', symObjAddr: 0xDC40, symBinAddr: 0x10003B470, symSize: 0x40 }
  - { offsetInCU: 0x1CEFD, offset: 0x52F5A, size: 0x8, addend: 0x0, symName: '__ZNKSt3__110__function6__funcIZN8MQTTPlus6Broker6ListenEvE3$_2NS_9allocatorIS4_EEFvPvPciEE6targetERKSt9type_info', symObjAddr: 0xDC80, symBinAddr: 0x10003B4B0, symSize: 0x60 }
  - { offsetInCU: 0x1CF34, offset: 0x52F91, size: 0x8, addend: 0x0, symName: '__ZNKSt3__110__function6__funcIZN8MQTTPlus6Broker6ListenEvE3$_2NS_9allocatorIS4_EEFvPvPciEE11target_typeEv', symObjAddr: 0xDCE0, symBinAddr: 0x10003B510, symSize: 0x18 }
  - { offsetInCU: 0x1CF5C, offset: 0x52FB9, size: 0x8, addend: 0x0, symName: __ZNSt3__110__function6__baseIFvPvPciEED1Ev, symObjAddr: 0xDCF8, symBinAddr: 0x10003B528, symSize: 0x14 }
  - { offsetInCU: 0x1CF86, offset: 0x52FE3, size: 0x8, addend: 0x0, symName: __ZNSt3__110__function6__baseIFvPvPciEED0Ev, symObjAddr: 0xDD0C, symBinAddr: 0x10003B53C, symSize: 0xC }
  - { offsetInCU: 0x1CFB0, offset: 0x5300D, size: 0x8, addend: 0x0, symName: '__ZNSt3__110__function12__alloc_funcIZN8MQTTPlus6Broker6ListenEvE3$_2NS_9allocatorIS4_EEFvPvPciEEC2B8ue170006EOS4_OS6_', symObjAddr: 0xDD18, symBinAddr: 0x10003B548, symSize: 0x5C }
  - { offsetInCU: 0x1CFF6, offset: 0x53053, size: 0x8, addend: 0x0, symName: '__ZNSt3__117__compressed_pairIZN8MQTTPlus6Broker6ListenEvE3$_2NS_9allocatorIS3_EEEC1B8ue170006IJOS3_EJOS5_EEENS_21piecewise_construct_tENS_5tupleIJDpT_EEENSB_IJDpT0_EEE', symObjAddr: 0xDDCC, symBinAddr: 0x10003B5FC, symSize: 0x3C }
  - { offsetInCU: 0x1D060, offset: 0x530BD, size: 0x8, addend: 0x0, symName: '__ZNSt3__15tupleIJOZN8MQTTPlus6Broker6ListenEvE3$_2EEC1B8ue170006IJS3_ELi0EEEDpOT_', symObjAddr: 0xDE08, symBinAddr: 0x10003B638, symSize: 0x34 }
  - { offsetInCU: 0x1D0AA, offset: 0x53107, size: 0x8, addend: 0x0, symName: '__ZNSt3__15tupleIJOZN8MQTTPlus6Broker6ListenEvE3$_2EEC2B8ue170006IJS3_ELi0EEEDpOT_', symObjAddr: 0xDE3C, symBinAddr: 0x10003B66C, symSize: 0x34 }
  - { offsetInCU: 0x1D0F4, offset: 0x53151, size: 0x8, addend: 0x0, symName: '__ZNSt3__112__tuple_implINS_15__tuple_indicesIJLm0EEEEJOZN8MQTTPlus6Broker6ListenEvE3$_2EEC1B8ue170006IJLm0EEJS6_EJEJEJS5_EEENS1_IJXspT_EEEENS_13__tuple_typesIJDpT0_EEENS1_IJXspT1_EEEENSA_IJDpT2_EEEDpOT3_', symObjAddr: 0xDE70, symBinAddr: 0x10003B6A0, symSize: 0x34 }
  - { offsetInCU: 0x1D189, offset: 0x531E6, size: 0x8, addend: 0x0, symName: '__ZNSt3__112__tuple_implINS_15__tuple_indicesIJLm0EEEEJOZN8MQTTPlus6Broker6ListenEvE3$_2EEC2B8ue170006IJLm0EEJS6_EJEJEJS5_EEENS1_IJXspT_EEEENS_13__tuple_typesIJDpT0_EEENS1_IJXspT1_EEEENSA_IJDpT2_EEEDpOT3_', symObjAddr: 0xDEA4, symBinAddr: 0x10003B6D4, symSize: 0x34 }
  - { offsetInCU: 0x1D21E, offset: 0x5327B, size: 0x8, addend: 0x0, symName: '__ZNSt3__112__tuple_leafILm0EOZN8MQTTPlus6Broker6ListenEvE3$_2Lb0EEC2B8ue170006IS3_vEEOT_', symObjAddr: 0xDED8, symBinAddr: 0x10003B708, symSize: 0x20 }
  - { offsetInCU: 0x1D261, offset: 0x532BE, size: 0x8, addend: 0x0, symName: '__ZNSt3__15tupleIJONS_9allocatorIZN8MQTTPlus6Broker6ListenEvE3$_2EEEEC1B8ue170006IJS5_ELi0EEEDpOT_', symObjAddr: 0xDEF8, symBinAddr: 0x10003B728, symSize: 0x34 }
  - { offsetInCU: 0x1D2AB, offset: 0x53308, size: 0x8, addend: 0x0, symName: '__ZNSt3__15tupleIJONS_9allocatorIZN8MQTTPlus6Broker6ListenEvE3$_2EEEEC2B8ue170006IJS5_ELi0EEEDpOT_', symObjAddr: 0xDF2C, symBinAddr: 0x10003B75C, symSize: 0x34 }
  - { offsetInCU: 0x1D2F5, offset: 0x53352, size: 0x8, addend: 0x0, symName: '__ZNSt3__112__tuple_implINS_15__tuple_indicesIJLm0EEEEJONS_9allocatorIZN8MQTTPlus6Broker6ListenEvE3$_2EEEEC1B8ue170006IJLm0EEJS8_EJEJEJS7_EEENS1_IJXspT_EEEENS_13__tuple_typesIJDpT0_EEENS1_IJXspT1_EEEENSC_IJDpT2_EEEDpOT3_', symObjAddr: 0xDF60, symBinAddr: 0x10003B790, symSize: 0x34 }
  - { offsetInCU: 0x1D38A, offset: 0x533E7, size: 0x8, addend: 0x0, symName: '__ZNSt3__112__tuple_implINS_15__tuple_indicesIJLm0EEEEJONS_9allocatorIZN8MQTTPlus6Broker6ListenEvE3$_2EEEEC2B8ue170006IJLm0EEJS8_EJEJEJS7_EEENS1_IJXspT_EEEENS_13__tuple_typesIJDpT0_EEENS1_IJXspT1_EEEENSC_IJDpT2_EEEDpOT3_', symObjAddr: 0xDF94, symBinAddr: 0x10003B7C4, symSize: 0x34 }
  - { offsetInCU: 0x1D41F, offset: 0x5347C, size: 0x8, addend: 0x0, symName: '__ZNSt3__112__tuple_leafILm0EONS_9allocatorIZN8MQTTPlus6Broker6ListenEvE3$_2EELb0EEC2B8ue170006IS5_vEEOT_', symObjAddr: 0xDFC8, symBinAddr: 0x10003B7F8, symSize: 0x20 }
  - { offsetInCU: 0x1D462, offset: 0x534BF, size: 0x8, addend: 0x0, symName: '__ZNSt3__117__compressed_pairIZN8MQTTPlus6Broker6ListenEvE3$_2NS_9allocatorIS3_EEEC2B8ue170006IJOS3_EJOS5_EEENS_21piecewise_construct_tENS_5tupleIJDpT_EEENSB_IJDpT0_EEE', symObjAddr: 0xDFE8, symBinAddr: 0x10003B818, symSize: 0x54 }
  - { offsetInCU: 0x1D4CC, offset: 0x53529, size: 0x8, addend: 0x0, symName: '__ZNSt3__122__compressed_pair_elemIZN8MQTTPlus6Broker6ListenEvE3$_2Li0ELb0EEC2B8ue170006IJOS3_EJLm0EEEENS_21piecewise_construct_tENS_5tupleIJDpT_EEENS_15__tuple_indicesIJXspT0_EEEE', symObjAddr: 0xE03C, symBinAddr: 0x10003B86C, symSize: 0x44 }
  - { offsetInCU: 0x1D52F, offset: 0x5358C, size: 0x8, addend: 0x0, symName: '__ZNSt3__122__compressed_pair_elemINS_9allocatorIZN8MQTTPlus6Broker6ListenEvE3$_2EELi1ELb1EEC2B8ue170006IJOS5_EJLm0EEEENS_21piecewise_construct_tENS_5tupleIJDpT_EEENS_15__tuple_indicesIJXspT0_EEEE', symObjAddr: 0xE080, symBinAddr: 0x10003B8B0, symSize: 0x38 }
  - { offsetInCU: 0x1D592, offset: 0x535EF, size: 0x8, addend: 0x0, symName: '__ZNSt3__112__tuple_leafILm0EOZN8MQTTPlus6Broker6ListenEvE3$_2Lb0EE3getB8ue170006Ev', symObjAddr: 0xE0DC, symBinAddr: 0x10003B90C, symSize: 0x18 }
  - { offsetInCU: 0x1D5B8, offset: 0x53615, size: 0x8, addend: 0x0, symName: '__ZNSt3__112__tuple_leafILm0EONS_9allocatorIZN8MQTTPlus6Broker6ListenEvE3$_2EELb0EE3getB8ue170006Ev', symObjAddr: 0xE118, symBinAddr: 0x10003B948, symSize: 0x18 }
  - { offsetInCU: 0x1D5DE, offset: 0x5363B, size: 0x8, addend: 0x0, symName: '__ZNSt3__110__function6__funcIZN8MQTTPlus6Broker6ListenEvE3$_2NS_9allocatorIS4_EEFvPvPciEED2Ev', symObjAddr: 0xE130, symBinAddr: 0x10003B960, symSize: 0x2C }
  - { offsetInCU: 0x1D60B, offset: 0x53668, size: 0x8, addend: 0x0, symName: '__ZNKSt3__110__function12__alloc_funcIZN8MQTTPlus6Broker6ListenEvE3$_2NS_9allocatorIS4_EEFvPvPciEE15__get_allocatorB8ue170006Ev', symObjAddr: 0xE15C, symBinAddr: 0x10003B98C, symSize: 0x24 }
  - { offsetInCU: 0x1D631, offset: 0x5368E, size: 0x8, addend: 0x0, symName: '__ZNSt3__19allocatorINS_10__function6__funcIZN8MQTTPlus6Broker6ListenEvE3$_2NS0_IS5_EEFvPvPciEEEE8allocateB8ue170006Em', symObjAddr: 0xE180, symBinAddr: 0x10003B9B0, symSize: 0x58 }
  - { offsetInCU: 0x1D677, offset: 0x536D4, size: 0x8, addend: 0x0, symName: '__ZNSt3__122__allocator_destructorINS_9allocatorINS_10__function6__funcIZN8MQTTPlus6Broker6ListenEvE3$_2NS1_IS6_EEFvPvPciEEEEEEC1B8ue170006ERSC_m', symObjAddr: 0xE1D8, symBinAddr: 0x10003BA08, symSize: 0x3C }
  - { offsetInCU: 0x1D76B, offset: 0x537C8, size: 0x8, addend: 0x0, symName: '__ZNSt3__110unique_ptrINS_10__function6__funcIZN8MQTTPlus6Broker6ListenEvE3$_2NS_9allocatorIS5_EEFvPvPciEEENS_22__allocator_destructorINS6_ISB_EEEEEC1B8ue170006ILb1EvEEPSB_NS_16__dependent_typeINS_27__unique_ptr_deleter_sfinaeISE_EEXT_EE20__good_rval_ref_typeE', symObjAddr: 0xE214, symBinAddr: 0x10003BA44, symSize: 0x3C }
  - { offsetInCU: 0x1D7BC, offset: 0x53819, size: 0x8, addend: 0x0, symName: '__ZNKSt3__110unique_ptrINS_10__function6__funcIZN8MQTTPlus6Broker6ListenEvE3$_2NS_9allocatorIS5_EEFvPvPciEEENS_22__allocator_destructorINS6_ISB_EEEEE3getB8ue170006Ev', symObjAddr: 0xE250, symBinAddr: 0x10003BA80, symSize: 0x28 }
  - { offsetInCU: 0x1D7E2, offset: 0x5383F, size: 0x8, addend: 0x0, symName: '__ZNKSt3__110__function12__alloc_funcIZN8MQTTPlus6Broker6ListenEvE3$_2NS_9allocatorIS4_EEFvPvPciEE8__targetB8ue170006Ev', symObjAddr: 0xE278, symBinAddr: 0x10003BAA8, symSize: 0x24 }
  - { offsetInCU: 0x1D808, offset: 0x53865, size: 0x8, addend: 0x0, symName: '__ZNSt3__110__function6__funcIZN8MQTTPlus6Broker6ListenEvE3$_2NS_9allocatorIS4_EEFvPvPciEEC1B8ue170006ERKS4_OS6_', symObjAddr: 0xE29C, symBinAddr: 0x10003BACC, symSize: 0x3C }
  - { offsetInCU: 0x1D850, offset: 0x538AD, size: 0x8, addend: 0x0, symName: '__ZNSt3__110unique_ptrINS_10__function6__funcIZN8MQTTPlus6Broker6ListenEvE3$_2NS_9allocatorIS5_EEFvPvPciEEENS_22__allocator_destructorINS6_ISB_EEEEE7releaseB8ue170006Ev', symObjAddr: 0xE2D8, symBinAddr: 0x10003BB08, symSize: 0x44 }
  - { offsetInCU: 0x1D885, offset: 0x538E2, size: 0x8, addend: 0x0, symName: '__ZNSt3__110unique_ptrINS_10__function6__funcIZN8MQTTPlus6Broker6ListenEvE3$_2NS_9allocatorIS5_EEFvPvPciEEENS_22__allocator_destructorINS6_ISB_EEEEED1B8ue170006Ev', symObjAddr: 0xE31C, symBinAddr: 0x10003BB4C, symSize: 0x2C }
  - { offsetInCU: 0x1D8AF, offset: 0x5390C, size: 0x8, addend: 0x0, symName: '__ZNKSt3__117__compressed_pairIZN8MQTTPlus6Broker6ListenEvE3$_2NS_9allocatorIS3_EEE6secondB8ue170006Ev', symObjAddr: 0xE348, symBinAddr: 0x10003BB78, symSize: 0x24 }
  - { offsetInCU: 0x1D8D5, offset: 0x53932, size: 0x8, addend: 0x0, symName: '__ZNKSt3__122__compressed_pair_elemINS_9allocatorIZN8MQTTPlus6Broker6ListenEvE3$_2EELi1ELb1EE5__getB8ue170006Ev', symObjAddr: 0xE36C, symBinAddr: 0x10003BB9C, symSize: 0x14 }
  - { offsetInCU: 0x1D907, offset: 0x53964, size: 0x8, addend: 0x0, symName: '__ZNSt3__116allocator_traitsINS_9allocatorINS_10__function6__funcIZN8MQTTPlus6Broker6ListenEvE3$_2NS1_IS6_EEFvPvPciEEEEEE8max_sizeB8ue170006ISC_vvEEmRKSC_', symObjAddr: 0xE380, symBinAddr: 0x10003BBB0, symSize: 0x28 }
  - { offsetInCU: 0x1D933, offset: 0x53990, size: 0x8, addend: 0x0, symName: '__ZNSt3__122__allocator_destructorINS_9allocatorINS_10__function6__funcIZN8MQTTPlus6Broker6ListenEvE3$_2NS1_IS6_EEFvPvPciEEEEEEC2B8ue170006ERSC_m', symObjAddr: 0xE3A8, symBinAddr: 0x10003BBD8, symSize: 0x2C }
  - { offsetInCU: 0x1D979, offset: 0x539D6, size: 0x8, addend: 0x0, symName: '__ZNSt3__110unique_ptrINS_10__function6__funcIZN8MQTTPlus6Broker6ListenEvE3$_2NS_9allocatorIS5_EEFvPvPciEEENS_22__allocator_destructorINS6_ISB_EEEEEC2B8ue170006ILb1EvEEPSB_NS_16__dependent_typeINS_27__unique_ptr_deleter_sfinaeISE_EEXT_EE20__good_rval_ref_typeE', symObjAddr: 0xE3D4, symBinAddr: 0x10003BC04, symSize: 0x48 }
  - { offsetInCU: 0x1D9CA, offset: 0x53A27, size: 0x8, addend: 0x0, symName: '__ZNSt3__117__compressed_pairIPNS_10__function6__funcIZN8MQTTPlus6Broker6ListenEvE3$_2NS_9allocatorIS5_EEFvPvPciEEENS_22__allocator_destructorINS6_ISB_EEEEEC1B8ue170006IRSC_SF_EEOT_OT0_', symObjAddr: 0xE41C, symBinAddr: 0x10003BC4C, symSize: 0x3C }
  - { offsetInCU: 0x1DA22, offset: 0x53A7F, size: 0x8, addend: 0x0, symName: '__ZNSt3__117__compressed_pairIPNS_10__function6__funcIZN8MQTTPlus6Broker6ListenEvE3$_2NS_9allocatorIS5_EEFvPvPciEEENS_22__allocator_destructorINS6_ISB_EEEEEC2B8ue170006IRSC_SF_EEOT_OT0_', symObjAddr: 0xE458, symBinAddr: 0x10003BC88, symSize: 0x48 }
  - { offsetInCU: 0x1DA7A, offset: 0x53AD7, size: 0x8, addend: 0x0, symName: '__ZNSt3__122__compressed_pair_elemIPNS_10__function6__funcIZN8MQTTPlus6Broker6ListenEvE3$_2NS_9allocatorIS5_EEFvPvPciEEELi0ELb0EEC2B8ue170006IRSC_vEEOT_', symObjAddr: 0xE4A0, symBinAddr: 0x10003BCD0, symSize: 0x24 }
  - { offsetInCU: 0x1DABC, offset: 0x53B19, size: 0x8, addend: 0x0, symName: '__ZNSt3__122__compressed_pair_elemINS_22__allocator_destructorINS_9allocatorINS_10__function6__funcIZN8MQTTPlus6Broker6ListenEvE3$_2NS2_IS7_EEFvPvPciEEEEEEELi1ELb0EEC2B8ue170006ISE_vEEOT_', symObjAddr: 0xE4C4, symBinAddr: 0x10003BCF4, symSize: 0x24 }
  - { offsetInCU: 0x1DAFE, offset: 0x53B5B, size: 0x8, addend: 0x0, symName: '__ZNKSt3__117__compressed_pairIPNS_10__function6__funcIZN8MQTTPlus6Broker6ListenEvE3$_2NS_9allocatorIS5_EEFvPvPciEEENS_22__allocator_destructorINS6_ISB_EEEEE5firstB8ue170006Ev', symObjAddr: 0xE4E8, symBinAddr: 0x10003BD18, symSize: 0x24 }
  - { offsetInCU: 0x1DB24, offset: 0x53B81, size: 0x8, addend: 0x0, symName: '__ZNKSt3__122__compressed_pair_elemIPNS_10__function6__funcIZN8MQTTPlus6Broker6ListenEvE3$_2NS_9allocatorIS5_EEFvPvPciEEELi0ELb0EE5__getB8ue170006Ev', symObjAddr: 0xE50C, symBinAddr: 0x10003BD3C, symSize: 0x14 }
  - { offsetInCU: 0x1DB4A, offset: 0x53BA7, size: 0x8, addend: 0x0, symName: '__ZNKSt3__117__compressed_pairIZN8MQTTPlus6Broker6ListenEvE3$_2NS_9allocatorIS3_EEE5firstB8ue170006Ev', symObjAddr: 0xE520, symBinAddr: 0x10003BD50, symSize: 0x24 }
  - { offsetInCU: 0x1DB70, offset: 0x53BCD, size: 0x8, addend: 0x0, symName: '__ZNKSt3__122__compressed_pair_elemIZN8MQTTPlus6Broker6ListenEvE3$_2Li0ELb0EE5__getB8ue170006Ev', symObjAddr: 0xE544, symBinAddr: 0x10003BD74, symSize: 0x14 }
  - { offsetInCU: 0x1DB96, offset: 0x53BF3, size: 0x8, addend: 0x0, symName: '__ZNSt3__110__function6__funcIZN8MQTTPlus6Broker6ListenEvE3$_2NS_9allocatorIS4_EEFvPvPciEEC2B8ue170006ERKS4_OS6_', symObjAddr: 0xE558, symBinAddr: 0x10003BD88, symSize: 0x88 }
  - { offsetInCU: 0x1DBDE, offset: 0x53C3B, size: 0x8, addend: 0x0, symName: '__ZNSt3__110__function12__alloc_funcIZN8MQTTPlus6Broker6ListenEvE3$_2NS_9allocatorIS4_EEFvPvPciEEC1B8ue170006ERKS4_OS6_', symObjAddr: 0xE5E0, symBinAddr: 0x10003BE10, symSize: 0x3C }
  - { offsetInCU: 0x1DC24, offset: 0x53C81, size: 0x8, addend: 0x0, symName: '__ZNSt3__110__function12__alloc_funcIZN8MQTTPlus6Broker6ListenEvE3$_2NS_9allocatorIS4_EEFvPvPciEEC2B8ue170006ERKS4_OS6_', symObjAddr: 0xE61C, symBinAddr: 0x10003BE4C, symSize: 0x5C }
  - { offsetInCU: 0x1DC6A, offset: 0x53CC7, size: 0x8, addend: 0x0, symName: '__ZNSt3__117__compressed_pairIZN8MQTTPlus6Broker6ListenEvE3$_2NS_9allocatorIS3_EEEC1B8ue170006IJRKS3_EJOS5_EEENS_21piecewise_construct_tENS_5tupleIJDpT_EEENSC_IJDpT0_EEE', symObjAddr: 0xE6A4, symBinAddr: 0x10003BED4, symSize: 0x3C }
  - { offsetInCU: 0x1DCD4, offset: 0x53D31, size: 0x8, addend: 0x0, symName: '__ZNSt3__15tupleIJRKZN8MQTTPlus6Broker6ListenEvE3$_2EEC1B8ue170006INS_4_AndELi0EEES5_', symObjAddr: 0xE6E0, symBinAddr: 0x10003BF10, symSize: 0x34 }
  - { offsetInCU: 0x1DD1C, offset: 0x53D79, size: 0x8, addend: 0x0, symName: '__ZNSt3__15tupleIJRKZN8MQTTPlus6Broker6ListenEvE3$_2EEC2B8ue170006INS_4_AndELi0EEES5_', symObjAddr: 0xE714, symBinAddr: 0x10003BF44, symSize: 0x34 }
  - { offsetInCU: 0x1DD64, offset: 0x53DC1, size: 0x8, addend: 0x0, symName: '__ZNSt3__112__tuple_implINS_15__tuple_indicesIJLm0EEEEJRKZN8MQTTPlus6Broker6ListenEvE3$_2EEC1B8ue170006IJLm0EEJS7_EJEJEJS7_EEENS1_IJXspT_EEEENS_13__tuple_typesIJDpT0_EEENS1_IJXspT1_EEEENSB_IJDpT2_EEEDpOT3_', symObjAddr: 0xE748, symBinAddr: 0x10003BF78, symSize: 0x34 }
  - { offsetInCU: 0x1DDF9, offset: 0x53E56, size: 0x8, addend: 0x0, symName: '__ZNSt3__112__tuple_implINS_15__tuple_indicesIJLm0EEEEJRKZN8MQTTPlus6Broker6ListenEvE3$_2EEC2B8ue170006IJLm0EEJS7_EJEJEJS7_EEENS1_IJXspT_EEEENS_13__tuple_typesIJDpT0_EEENS1_IJXspT1_EEEENSB_IJDpT2_EEEDpOT3_', symObjAddr: 0xE77C, symBinAddr: 0x10003BFAC, symSize: 0x34 }
  - { offsetInCU: 0x1DE8E, offset: 0x53EEB, size: 0x8, addend: 0x0, symName: '__ZNSt3__112__tuple_leafILm0ERKZN8MQTTPlus6Broker6ListenEvE3$_2Lb0EEC2B8ue170006IS5_vEEOT_', symObjAddr: 0xE7B0, symBinAddr: 0x10003BFE0, symSize: 0x20 }
  - { offsetInCU: 0x1DED1, offset: 0x53F2E, size: 0x8, addend: 0x0, symName: '__ZNSt3__117__compressed_pairIZN8MQTTPlus6Broker6ListenEvE3$_2NS_9allocatorIS3_EEEC2B8ue170006IJRKS3_EJOS5_EEENS_21piecewise_construct_tENS_5tupleIJDpT_EEENSC_IJDpT0_EEE', symObjAddr: 0xE7D0, symBinAddr: 0x10003C000, symSize: 0x54 }
  - { offsetInCU: 0x1DF3B, offset: 0x53F98, size: 0x8, addend: 0x0, symName: '__ZNSt3__122__compressed_pair_elemIZN8MQTTPlus6Broker6ListenEvE3$_2Li0ELb0EEC2B8ue170006IJRKS3_EJLm0EEEENS_21piecewise_construct_tENS_5tupleIJDpT_EEENS_15__tuple_indicesIJXspT0_EEEE', symObjAddr: 0xE824, symBinAddr: 0x10003C054, symSize: 0x44 }
  - { offsetInCU: 0x1DF9E, offset: 0x53FFB, size: 0x8, addend: 0x0, symName: '__ZNSt3__112__tuple_leafILm0ERKZN8MQTTPlus6Broker6ListenEvE3$_2Lb0EE3getB8ue170006Ev', symObjAddr: 0xE88C, symBinAddr: 0x10003C0BC, symSize: 0x18 }
  - { offsetInCU: 0x1DFC4, offset: 0x54021, size: 0x8, addend: 0x0, symName: '__ZNSt3__117__compressed_pairIPNS_10__function6__funcIZN8MQTTPlus6Broker6ListenEvE3$_2NS_9allocatorIS5_EEFvPvPciEEENS_22__allocator_destructorINS6_ISB_EEEEE5firstB8ue170006Ev', symObjAddr: 0xE8A4, symBinAddr: 0x10003C0D4, symSize: 0x24 }
  - { offsetInCU: 0x1DFEA, offset: 0x54047, size: 0x8, addend: 0x0, symName: '__ZNSt3__122__compressed_pair_elemIPNS_10__function6__funcIZN8MQTTPlus6Broker6ListenEvE3$_2NS_9allocatorIS5_EEFvPvPciEEELi0ELb0EE5__getB8ue170006Ev', symObjAddr: 0xE8C8, symBinAddr: 0x10003C0F8, symSize: 0x14 }
  - { offsetInCU: 0x1E010, offset: 0x5406D, size: 0x8, addend: 0x0, symName: '__ZNSt3__110unique_ptrINS_10__function6__funcIZN8MQTTPlus6Broker6ListenEvE3$_2NS_9allocatorIS5_EEFvPvPciEEENS_22__allocator_destructorINS6_ISB_EEEEED2B8ue170006Ev', symObjAddr: 0xE8DC, symBinAddr: 0x10003C10C, symSize: 0x30 }
  - { offsetInCU: 0x1E03A, offset: 0x54097, size: 0x8, addend: 0x0, symName: '__ZNSt3__110unique_ptrINS_10__function6__funcIZN8MQTTPlus6Broker6ListenEvE3$_2NS_9allocatorIS5_EEFvPvPciEEENS_22__allocator_destructorINS6_ISB_EEEEE5resetB8ue170006EPSB_', symObjAddr: 0xE90C, symBinAddr: 0x10003C13C, symSize: 0x78 }
  - { offsetInCU: 0x1E07E, offset: 0x540DB, size: 0x8, addend: 0x0, symName: '__ZNSt3__117__compressed_pairIPNS_10__function6__funcIZN8MQTTPlus6Broker6ListenEvE3$_2NS_9allocatorIS5_EEFvPvPciEEENS_22__allocator_destructorINS6_ISB_EEEEE6secondB8ue170006Ev', symObjAddr: 0xE984, symBinAddr: 0x10003C1B4, symSize: 0x28 }
  - { offsetInCU: 0x1E0A4, offset: 0x54101, size: 0x8, addend: 0x0, symName: '__ZNSt3__122__allocator_destructorINS_9allocatorINS_10__function6__funcIZN8MQTTPlus6Broker6ListenEvE3$_2NS1_IS6_EEFvPvPciEEEEEEclB8ue170006EPSB_', symObjAddr: 0xE9AC, symBinAddr: 0x10003C1DC, symSize: 0x34 }
  - { offsetInCU: 0x1E0D8, offset: 0x54135, size: 0x8, addend: 0x0, symName: '__ZNSt3__122__compressed_pair_elemINS_22__allocator_destructorINS_9allocatorINS_10__function6__funcIZN8MQTTPlus6Broker6ListenEvE3$_2NS2_IS7_EEFvPvPciEEEEEEELi1ELb0EE5__getB8ue170006Ev', symObjAddr: 0xE9E0, symBinAddr: 0x10003C210, symSize: 0x14 }
  - { offsetInCU: 0x1E0FE, offset: 0x5415B, size: 0x8, addend: 0x0, symName: '__ZNSt3__116allocator_traitsINS_9allocatorINS_10__function6__funcIZN8MQTTPlus6Broker6ListenEvE3$_2NS1_IS6_EEFvPvPciEEEEEE10deallocateB8ue170006ERSC_PSB_m', symObjAddr: 0xE9F4, symBinAddr: 0x10003C224, symSize: 0x34 }
  - { offsetInCU: 0x1E140, offset: 0x5419D, size: 0x8, addend: 0x0, symName: '__ZNSt3__19allocatorINS_10__function6__funcIZN8MQTTPlus6Broker6ListenEvE3$_2NS0_IS5_EEFvPvPciEEEE10deallocateB8ue170006EPSA_m', symObjAddr: 0xEA28, symBinAddr: 0x10003C258, symSize: 0x40 }
  - { offsetInCU: 0x1E182, offset: 0x541DF, size: 0x8, addend: 0x0, symName: '__ZNSt3__110__function6__funcIZN8MQTTPlus6Broker6ListenEvE3$_2NS_9allocatorIS4_EEFvPvPciEEC1B8ue170006ERKS4_RKS6_', symObjAddr: 0xEA68, symBinAddr: 0x10003C298, symSize: 0x3C }
  - { offsetInCU: 0x1E1CA, offset: 0x54227, size: 0x8, addend: 0x0, symName: '__ZNSt3__110__function6__funcIZN8MQTTPlus6Broker6ListenEvE3$_2NS_9allocatorIS4_EEFvPvPciEEC2B8ue170006ERKS4_RKS6_', symObjAddr: 0xEAA4, symBinAddr: 0x10003C2D4, symSize: 0x88 }
  - { offsetInCU: 0x1E212, offset: 0x5426F, size: 0x8, addend: 0x0, symName: '__ZNSt3__110__function12__alloc_funcIZN8MQTTPlus6Broker6ListenEvE3$_2NS_9allocatorIS4_EEFvPvPciEEC1B8ue170006ERKS4_RKS6_', symObjAddr: 0xEB2C, symBinAddr: 0x10003C35C, symSize: 0x3C }
  - { offsetInCU: 0x1E258, offset: 0x542B5, size: 0x8, addend: 0x0, symName: '__ZNSt3__110__function12__alloc_funcIZN8MQTTPlus6Broker6ListenEvE3$_2NS_9allocatorIS4_EEFvPvPciEEC2B8ue170006ERKS4_RKS6_', symObjAddr: 0xEB68, symBinAddr: 0x10003C398, symSize: 0x5C }
  - { offsetInCU: 0x1E29E, offset: 0x542FB, size: 0x8, addend: 0x0, symName: '__ZNSt3__117__compressed_pairIZN8MQTTPlus6Broker6ListenEvE3$_2NS_9allocatorIS3_EEEC1B8ue170006IJRKS3_EJRKS5_EEENS_21piecewise_construct_tENS_5tupleIJDpT_EEENSD_IJDpT0_EEE', symObjAddr: 0xEBF0, symBinAddr: 0x10003C420, symSize: 0x3C }
  - { offsetInCU: 0x1E308, offset: 0x54365, size: 0x8, addend: 0x0, symName: '__ZNSt3__15tupleIJRKNS_9allocatorIZN8MQTTPlus6Broker6ListenEvE3$_2EEEEC1B8ue170006INS_4_AndELi0EEES7_', symObjAddr: 0xEC2C, symBinAddr: 0x10003C45C, symSize: 0x34 }
  - { offsetInCU: 0x1E350, offset: 0x543AD, size: 0x8, addend: 0x0, symName: '__ZNSt3__15tupleIJRKNS_9allocatorIZN8MQTTPlus6Broker6ListenEvE3$_2EEEEC2B8ue170006INS_4_AndELi0EEES7_', symObjAddr: 0xEC60, symBinAddr: 0x10003C490, symSize: 0x34 }
  - { offsetInCU: 0x1E398, offset: 0x543F5, size: 0x8, addend: 0x0, symName: '__ZNSt3__112__tuple_implINS_15__tuple_indicesIJLm0EEEEJRKNS_9allocatorIZN8MQTTPlus6Broker6ListenEvE3$_2EEEEC1B8ue170006IJLm0EEJS9_EJEJEJS9_EEENS1_IJXspT_EEEENS_13__tuple_typesIJDpT0_EEENS1_IJXspT1_EEEENSD_IJDpT2_EEEDpOT3_', symObjAddr: 0xEC94, symBinAddr: 0x10003C4C4, symSize: 0x34 }
  - { offsetInCU: 0x1E42D, offset: 0x5448A, size: 0x8, addend: 0x0, symName: '__ZNSt3__112__tuple_implINS_15__tuple_indicesIJLm0EEEEJRKNS_9allocatorIZN8MQTTPlus6Broker6ListenEvE3$_2EEEEC2B8ue170006IJLm0EEJS9_EJEJEJS9_EEENS1_IJXspT_EEEENS_13__tuple_typesIJDpT0_EEENS1_IJXspT1_EEEENSD_IJDpT2_EEEDpOT3_', symObjAddr: 0xECC8, symBinAddr: 0x10003C4F8, symSize: 0x34 }
  - { offsetInCU: 0x1E4C2, offset: 0x5451F, size: 0x8, addend: 0x0, symName: '__ZNSt3__112__tuple_leafILm0ERKNS_9allocatorIZN8MQTTPlus6Broker6ListenEvE3$_2EELb0EEC2B8ue170006IS7_vEEOT_', symObjAddr: 0xECFC, symBinAddr: 0x10003C52C, symSize: 0x20 }
  - { offsetInCU: 0x1E505, offset: 0x54562, size: 0x8, addend: 0x0, symName: '__ZNSt3__117__compressed_pairIZN8MQTTPlus6Broker6ListenEvE3$_2NS_9allocatorIS3_EEEC2B8ue170006IJRKS3_EJRKS5_EEENS_21piecewise_construct_tENS_5tupleIJDpT_EEENSD_IJDpT0_EEE', symObjAddr: 0xED1C, symBinAddr: 0x10003C54C, symSize: 0x54 }
  - { offsetInCU: 0x1E56F, offset: 0x545CC, size: 0x8, addend: 0x0, symName: '__ZNSt3__122__compressed_pair_elemINS_9allocatorIZN8MQTTPlus6Broker6ListenEvE3$_2EELi1ELb1EEC2B8ue170006IJRKS5_EJLm0EEEENS_21piecewise_construct_tENS_5tupleIJDpT_EEENS_15__tuple_indicesIJXspT0_EEEE', symObjAddr: 0xED70, symBinAddr: 0x10003C5A0, symSize: 0x38 }
  - { offsetInCU: 0x1E5D2, offset: 0x5462F, size: 0x8, addend: 0x0, symName: '__ZNSt3__112__tuple_leafILm0ERKNS_9allocatorIZN8MQTTPlus6Broker6ListenEvE3$_2EELb0EE3getB8ue170006Ev', symObjAddr: 0xEDCC, symBinAddr: 0x10003C5FC, symSize: 0x18 }
  - { offsetInCU: 0x1E5F8, offset: 0x54655, size: 0x8, addend: 0x0, symName: '__ZNSt3__110__function12__alloc_funcIZN8MQTTPlus6Broker6ListenEvE3$_2NS_9allocatorIS4_EEFvPvPciEE7destroyB8ue170006Ev', symObjAddr: 0xEDE4, symBinAddr: 0x10003C614, symSize: 0x10 }
  - { offsetInCU: 0x1E61E, offset: 0x5467B, size: 0x8, addend: 0x0, symName: '__ZNSt3__110__function12__alloc_funcIZN8MQTTPlus6Broker6ListenEvE3$_2NS_9allocatorIS4_EEFvPvPciEEclB8ue170006EOS7_OS8_Oi', symObjAddr: 0xEDF4, symBinAddr: 0x10003C624, symSize: 0x40 }
  - { offsetInCU: 0x1E66E, offset: 0x546CB, size: 0x8, addend: 0x0, symName: '__ZNSt3__128__invoke_void_return_wrapperIvLb1EE6__callB8ue170006IJRZN8MQTTPlus6Broker6ListenEvE3$_2PvPciEEEvDpOT_', symObjAddr: 0xEE34, symBinAddr: 0x10003C664, symSize: 0x3C }
  - { offsetInCU: 0x1E6D9, offset: 0x54736, size: 0x8, addend: 0x0, symName: '__ZNSt3__117__compressed_pairIZN8MQTTPlus6Broker6ListenEvE3$_2NS_9allocatorIS3_EEE5firstB8ue170006Ev', symObjAddr: 0xEE70, symBinAddr: 0x10003C6A0, symSize: 0x24 }
  - { offsetInCU: 0x1E705, offset: 0x54762, size: 0x8, addend: 0x0, symName: '__ZZN8MQTTPlus6Broker6ListenEvENK3$_2clEPvPci', symObjAddr: 0xEEDC, symBinAddr: 0x10003C70C, symSize: 0x74 }
  - { offsetInCU: 0x1E759, offset: 0x547B6, size: 0x8, addend: 0x0, symName: __ZN3RefIN8MQTTPlus6ClientEEcvbEv, symObjAddr: 0xEF50, symBinAddr: 0x10003C780, symSize: 0x24 }
  - { offsetInCU: 0x1E77F, offset: 0x547DC, size: 0x8, addend: 0x0, symName: '__ZNSt3__122__compressed_pair_elemIZN8MQTTPlus6Broker6ListenEvE3$_2Li0ELb0EE5__getB8ue170006Ev', symObjAddr: 0xEF74, symBinAddr: 0x10003C7A4, symSize: 0x14 }
  - { offsetInCU: 0x1E7A5, offset: 0x54802, size: 0x8, addend: 0x0, symName: __ZNKSt3__110__function12__value_funcIFv3RefIN8MQTTPlus6ClientEEEEclB8ue170006EOS5_, symObjAddr: 0xEF88, symBinAddr: 0x10003C7B8, symSize: 0x58 }
  - { offsetInCU: 0x1E7DA, offset: 0x54837, size: 0x8, addend: 0x0, symName: __ZN3RefIN8MQTTPlus6ClientEEC2ERKS2_, symObjAddr: 0xF134, symBinAddr: 0x10003C810, symSize: 0x3C }
  - { offsetInCU: 0x57B, offset: 0x55215, size: 0x8, addend: 0x0, symName: __ZN3fmt3v106detail14to_string_viewIcNSt3__111char_traitsIcEENS3_9allocatorIcEEEENS0_17basic_string_viewIT_EERKNS3_12basic_stringIS9_T0_T1_EE, symObjAddr: 0x2A334, symBinAddr: 0x10003D99C, symSize: 0x30 }
  - { offsetInCU: 0xBEE, offset: 0x55888, size: 0x8, addend: 0x0, symName: __ZN3fmt3v1016make_format_argsINS0_20basic_format_contextINS0_8appenderEcEEJKNSt3__112basic_stringIcNS5_11char_traitsIcEENS5_9allocatorIcEEEEKhKtEEENS0_16format_arg_storeIT_JDpNS5_9remove_cvINS5_16remove_referenceIT0_E4typeEE4typeEEEEDpRSJ_, symObjAddr: 0x3E8C, symBinAddr: 0x10003D744, symSize: 0x258 }
  - { offsetInCU: 0xF8E, offset: 0x55C28, size: 0x8, addend: 0x0, symName: __ZN3fmt3v1016make_format_argsINS0_20basic_format_contextINS0_8appenderEcEEJKNSt3__112basic_stringIcNS5_11char_traitsIcEENS5_9allocatorIcEEEEEEENS0_16format_arg_storeIT_JDpNS5_9remove_cvINS5_16remove_referenceIT0_E4typeEE4typeEEEEDpRSH_, symObjAddr: 0x2A438, symBinAddr: 0x10003DAA0, symSize: 0x140 }
  - { offsetInCU: 0x5B2C, offset: 0x5A7C6, size: 0x8, addend: 0x0, symName: __ZNSt3__1lsB8ue170006INS_11char_traitsIcEEEERNS_13basic_ostreamIcT_EES6_PKc, symObjAddr: 0x790, symBinAddr: 0x10003CEEC, symSize: 0x48 }
  - { offsetInCU: 0x5B72, offset: 0x5A80C, size: 0x8, addend: 0x0, symName: __ZNSt3__118__constexpr_strlenB8ue170006EPKc, symObjAddr: 0x2B34, symBinAddr: 0x10003D6D8, symSize: 0x24 }
  - { offsetInCU: 0x5F31, offset: 0x5ABCB, size: 0x8, addend: 0x0, symName: __ZN4MQTTL10ReadStringER12CachedBuffer, symObjAddr: 0x4C4, symBinAddr: 0x10003CCA0, symSize: 0x110 }
  - { offsetInCU: 0x853F, offset: 0x5D1D9, size: 0x8, addend: 0x0, symName: __ZN4MQTT14ConnectMessageC2ER12CachedBuffer, symObjAddr: 0x0, symBinAddr: 0x10003C84C, symSize: 0x3CC }
  - { offsetInCU: 0x8595, offset: 0x5D22F, size: 0x8, addend: 0x0, symName: __ZN12CachedBuffer4ReadItEET_v, symObjAddr: 0x43C, symBinAddr: 0x10003CC18, symSize: 0x88 }
  - { offsetInCU: 0x85D3, offset: 0x5D26D, size: 0x8, addend: 0x0, symName: __ZN12CachedBuffer4ReadIN4MQTT15ProtocolVersionEEET_v, symObjAddr: 0x5D4, symBinAddr: 0x10003CDB0, symSize: 0x88 }
  - { offsetInCU: 0x8611, offset: 0x5D2AB, size: 0x8, addend: 0x0, symName: __ZN12CachedBuffer4ReadIhEET_v, symObjAddr: 0x65C, symBinAddr: 0x10003CE38, symSize: 0x88 }
  - { offsetInCU: 0x864F, offset: 0x5D2E9, size: 0x8, addend: 0x0, symName: __ZNSt3__112basic_stringIcNS_11char_traitsIcEENS_9allocatorIcEEEpLB8ue170006ERKS5_, symObjAddr: 0x6E4, symBinAddr: 0x10003CEC0, symSize: 0x2C }
  - { offsetInCU: 0x8684, offset: 0x5D31E, size: 0x8, addend: 0x0, symName: __ZN4MQTT14ConnectMessageC1ER12CachedBuffer, symObjAddr: 0x8B4, symBinAddr: 0x10003CF34, symSize: 0x34 }
  - { offsetInCU: 0x86D0, offset: 0x5D36A, size: 0x8, addend: 0x0, symName: __ZN4MQTT14PublishMessageC2ER12CachedBuffer, symObjAddr: 0x8E8, symBinAddr: 0x10003CF68, symSize: 0xF8 }
  - { offsetInCU: 0x872E, offset: 0x5D3C8, size: 0x8, addend: 0x0, symName: __ZNSt3__16vectorIhNS_9allocatorIhEEEC1B8ue170006Ev, symObjAddr: 0xA0C, symBinAddr: 0x10003D060, symSize: 0x2C }
  - { offsetInCU: 0x8758, offset: 0x5D3F2, size: 0x8, addend: 0x0, symName: __ZN4MQTT14PublishMessageC1ER12CachedBuffer, symObjAddr: 0xA64, symBinAddr: 0x10003D08C, symSize: 0x34 }
  - { offsetInCU: 0x8792, offset: 0x5D42C, size: 0x8, addend: 0x0, symName: __ZN4MQTT14ConnectMessageD1Ev, symObjAddr: 0xA98, symBinAddr: 0x10003D0C0, symSize: 0x2C }
  - { offsetInCU: 0x87BE, offset: 0x5D458, size: 0x8, addend: 0x0, symName: __ZN4MQTT14ConnectMessageD0Ev, symObjAddr: 0xAC4, symBinAddr: 0x10003D0EC, symSize: 0x30 }
  - { offsetInCU: 0x87EA, offset: 0x5D484, size: 0x8, addend: 0x0, symName: __ZNK4MQTT14ConnectMessage7GetTypeEv, symObjAddr: 0xAF4, symBinAddr: 0x10003D11C, symSize: 0x14 }
  - { offsetInCU: 0x8810, offset: 0x5D4AA, size: 0x8, addend: 0x0, symName: __ZNK4MQTT14ConnectMessage8GetBytesEv, symObjAddr: 0xB08, symBinAddr: 0x10003D130, symSize: 0x64 }
  - { offsetInCU: 0x892C, offset: 0x5D5C6, size: 0x8, addend: 0x0, symName: __ZNK4MQTT14ConnectMessage8ToStringEv, symObjAddr: 0xB6C, symBinAddr: 0x10003D194, symSize: 0x12C }
  - { offsetInCU: 0x8A40, offset: 0x5D6DA, size: 0x8, addend: 0x0, symName: __ZN4MQTT14PublishMessageD1Ev, symObjAddr: 0xC98, symBinAddr: 0x10003D2C0, symSize: 0x2C }
  - { offsetInCU: 0x8A6C, offset: 0x5D706, size: 0x8, addend: 0x0, symName: __ZN4MQTT14PublishMessageD0Ev, symObjAddr: 0xCC4, symBinAddr: 0x10003D2EC, symSize: 0x30 }
